; ModuleID = '70hn50kgh2nd2uv0gn9vnsrw1'
source_filename = "70hn50kgh2nd2uv0gn9vnsrw1"
target datalayout = "e-m:e-p270:32:32-p271:32:32-p272:64:64-i64:64-i128:128-f80:128-n8:16:32:64-S128"
target triple = "x86_64-unknown-linux-gnu"

%"alloc::string::String" = type { %"alloc::vec::Vec<u8>" }
%"alloc::vec::Vec<u8>" = type { %"alloc::raw_vec::RawVec<u8>", i64 }
%"alloc::raw_vec::RawVec<u8>" = type { %"alloc::raw_vec::RawVecInner", %"core::marker::PhantomData<u8>" }
%"alloc::raw_vec::RawVecInner" = type { i64, ptr, %"alloc::alloc::Global" }
%"alloc::alloc::Global" = type {}
%"core::marker::PhantomData<u8>" = type {}
%"core::fmt::rt::Argument<'_>" = type { %"core::fmt::rt::ArgumentType<'_>" }
%"core::fmt::rt::ArgumentType<'_>" = type { ptr, [1 x i64] }

@alloc_18d73aa062d524e9620b9e3b55bd9eb1 = private unnamed_addr constant [218 x i8] c"unsafe precondition(s) violated: slice::get_unchecked_mut requires that the range is within the slice\0A\0AThis indicates a bug in the program. This Undefined Behavior check is optional, and cannot be relied on for safety.", align 1
@alloc_31365cfefba383c4d2bf6b6a04cc10aa = private unnamed_addr constant [17 x i8] c"capacity overflow", align 1
@alloc_11d257f5ed6cc7fc38feaa801053bac6 = private unnamed_addr constant <{ ptr, [8 x i8] }> <{ ptr @alloc_31365cfefba383c4d2bf6b6a04cc10aa, [8 x i8] c"\11\00\00\00\00\00\00\00" }>, align 8
@anon.60f91fde1ce0e38296af11bc775d42ab.0 = private unnamed_addr constant <{ [8 x i8], [8 x i8] }> <{ [8 x i8] zeroinitializer, [8 x i8] undef }>, align 8
@vtable.0 = private constant <{ [24 x i8], ptr, ptr, ptr }> <{ [24 x i8] c"\00\00\00\00\00\00\00\00\08\00\00\00\00\00\00\00\08\00\00\00\00\00\00\00", ptr @"_ZN4core3ops8function6FnOnce40call_once$u7b$$u7b$vtable.shim$u7d$$u7d$17h2c4b924c667f85d6E", ptr @"_ZN3std2rt10lang_start28_$u7b$$u7b$closure$u7d$$u7d$17h7bca82e2071632c2E", ptr @"_ZN3std2rt10lang_start28_$u7b$$u7b$closure$u7d$$u7d$17h7bca82e2071632c2E" }>, align 8, !dbg !0
@vtable.1 = private constant <{ ptr, [16 x i8], ptr, ptr, ptr }> <{ ptr @"_ZN4core3ptr42drop_in_place$LT$alloc..string..String$GT$17h5c57c16fee11b4e5E", [16 x i8] c"\18\00\00\00\00\00\00\00\08\00\00\00\00\00\00\00", ptr @"_ZN58_$LT$alloc..string..String$u20$as$u20$core..fmt..Write$GT$9write_str17hac7aa2f1a1a9c098E", ptr @"_ZN58_$LT$alloc..string..String$u20$as$u20$core..fmt..Write$GT$10write_char17h06b31811cc254cb9E", ptr @_ZN4core3fmt5Write9write_fmt17h4aaf63cab02d5a3dE }>, align 8, !dbg !24
@alloc_cc656815297f75969399c3f4b1ad3de4 = private unnamed_addr constant [55 x i8] c"a Display implementation returned an error unexpectedly", align 1
@alloc_6a9d0d5a283a7a335300e6cc5f837dd5 = private unnamed_addr constant [114 x i8] c"/home/ordyboii/.rustup/toolchains/stable-x86_64-unknown-linux-gnu/lib/rustlib/src/rust/library/alloc/src/string.rs", align 1
@alloc_bbd70200b282c7ecf5149962ea1ae7d6 = private unnamed_addr constant <{ ptr, [16 x i8] }> <{ ptr @alloc_6a9d0d5a283a7a335300e6cc5f837dd5, [16 x i8] c"r\00\00\00\00\00\00\00\F0\0A\00\00\0E\00\00\00" }>, align 8
@alloc_fad0cd83b7d1858a846a172eb260e593 = private unnamed_addr constant [42 x i8] c"is_aligned_to: align is not a power-of-two", align 1
@alloc_e92e94d0ff530782b571cfd99ec66aef = private unnamed_addr constant <{ ptr, [8 x i8] }> <{ ptr @alloc_fad0cd83b7d1858a846a172eb260e593, [8 x i8] c"*\00\00\00\00\00\00\00" }>, align 8
@alloc_3ab3990f5dba533d307a7c9c874deecb = private unnamed_addr constant [120 x i8] c"/home/ordyboii/.rustup/toolchains/stable-x86_64-unknown-linux-gnu/lib/rustlib/src/rust/library/core/src/ptr/const_ptr.rs", align 1
@alloc_7dfa5b04edcaa6d5675eb0d888192370 = private unnamed_addr constant <{ ptr, [16 x i8] }> <{ ptr @alloc_3ab3990f5dba533d307a7c9c874deecb, [16 x i8] c"x\00\00\00\00\00\00\00\C4\05\00\00\0D\00\00\00" }>, align 8
@alloc_bd3468a7b96187f70c1ce98a3e7a63bf = private unnamed_addr constant [283 x i8] c"unsafe precondition(s) violated: ptr::copy_nonoverlapping requires that both pointer arguments are aligned and non-null and the specified memory ranges do not overlap\0A\0AThis indicates a bug in the program. This Undefined Behavior check is optional, and cannot be relied on for safety.", align 1
@vtable.2 = private constant <{ [24 x i8], ptr }> <{ [24 x i8] c"\00\00\00\00\00\00\00\00\08\00\00\00\00\00\00\00\08\00\00\00\00\00\00\00", ptr @"_ZN42_$LT$$RF$T$u20$as$u20$core..fmt..Debug$GT$3fmt17h604aa6ac4e2b7f9cE" }>, align 8, !dbg !81
@alloc_a6a0cc8156fe455996de64a9d05b1dfe = private unnamed_addr constant [184 x i8] c"unsafe precondition(s) violated: u32::unchecked_add cannot overflow\0A\0AThis indicates a bug in the program. This Undefined Behavior check is optional, and cannot be relied on for safety.", align 1
@alloc_3e1ebac14318b612ab4efabc52799932 = private unnamed_addr constant [186 x i8] c"unsafe precondition(s) violated: usize::unchecked_add cannot overflow\0A\0AThis indicates a bug in the program. This Undefined Behavior check is optional, and cannot be relied on for safety.", align 1
@alloc_2dff866d8f4414dd3e87cf8872473df8 = private unnamed_addr constant [227 x i8] c"unsafe precondition(s) violated: ptr::read_volatile requires that the pointer argument is aligned and non-null\0A\0AThis indicates a bug in the program. This Undefined Behavior check is optional, and cannot be relied on for safety.", align 1
@alloc_560a59ed819b9d9a5841f6e731c4c8e5 = private unnamed_addr constant [210 x i8] c"unsafe precondition(s) violated: NonNull::new_unchecked requires that the pointer is non-null\0A\0AThis indicates a bug in the program. This Undefined Behavior check is optional, and cannot be relied on for safety.", align 1
@alloc_ec595fc0e82ef92fc59bd74f68296eae = private unnamed_addr constant [73 x i8] c"assertion failed: 0 < pointee_size && pointee_size <= isize::MAX as usize", align 1
@alloc_14573fd9627d2f7178cbebe3fe4a47e2 = private unnamed_addr constant <{ ptr, [16 x i8] }> <{ ptr @alloc_3ab3990f5dba533d307a7c9c874deecb, [16 x i8] c"x\00\00\00\00\00\00\00\1E\03\00\00\09\00\00\00" }>, align 8
@alloc_de4e626d456b04760e72bc785ed7e52a = private unnamed_addr constant [201 x i8] c"unsafe precondition(s) violated: ptr::offset_from_unsigned requires `self >= origin`\0A\0AThis indicates a bug in the program. This Undefined Behavior check is optional, and cannot be relied on for safety.", align 1
@alloc_64e308ef4babfeb8b6220184de794a17 = private unnamed_addr constant [221 x i8] c"unsafe precondition(s) violated: hint::assert_unchecked must never be called when the condition is false\0A\0AThis indicates a bug in the program. This Undefined Behavior check is optional, and cannot be relied on for safety.", align 1
@alloc_0506e44aa4e45dd176b6dc74ac36ab3b = private unnamed_addr constant [20 x i8] c"Malformed size_hint ", align 1
@alloc_4f957698b52dbe11fa953a525a47908f = private unnamed_addr constant <{ ptr, [8 x i8] }> <{ ptr @alloc_0506e44aa4e45dd176b6dc74ac36ab3b, [8 x i8] c"\14\00\00\00\00\00\00\00" }>, align 8
@alloc_fac8176e798197b1a70d76e00f73213d = private unnamed_addr constant [127 x i8] c"/home/ordyboii/.rustup/toolchains/stable-x86_64-unknown-linux-gnu/lib/rustlib/src/rust/library/core/src/iter/traits/iterator.rs", align 1
@alloc_1707e2e22e7847b4f425f7aee0106778 = private unnamed_addr constant <{ ptr, [16 x i8] }> <{ ptr @alloc_fac8176e798197b1a70d76e00f73213d, [16 x i8] c"\7F\00\00\00\00\00\00\00\D1\07\00\00\09\00\00\00" }>, align 8
@alloc_1be5ea12ba708d9a11b6e93a7d387a75 = private unnamed_addr constant [281 x i8] c"unsafe precondition(s) violated: Layout::from_size_align_unchecked requires that align is a power of 2 and the rounded-up allocation size does not exceed isize::MAX\0A\0AThis indicates a bug in the program. This Undefined Behavior check is optional, and cannot be relied on for safety.", align 1
@alloc_6b0b11c9e93314b588b613b55005cf18 = private unnamed_addr constant [221 x i8] c"unsafe precondition(s) violated: slice::split_at_mut_unchecked requires the index to be within the slice\0A\0AThis indicates a bug in the program. This Undefined Behavior check is optional, and cannot be relied on for safety.", align 1
@alloc_a8541c028ef8bc4dbab60a240a2ddda1 = private unnamed_addr constant [116 x i8] c"/home/ordyboii/.rustup/toolchains/stable-x86_64-unknown-linux-gnu/lib/rustlib/src/rust/library/core/src/ub_checks.rs", align 1
@alloc_b18b240f2935a488311f19da48231f62 = private unnamed_addr constant <{ ptr, [16 x i8] }> <{ ptr @alloc_a8541c028ef8bc4dbab60a240a2ddda1, [16 x i8] c"t\00\00\00\00\00\00\00\86\00\00\006\00\00\00" }>, align 8
@alloc_a28e8c8fd5088943a8b5d44af697ff83 = private unnamed_addr constant [279 x i8] c"unsafe precondition(s) violated: slice::from_raw_parts requires the pointer to be aligned and non-null, and the total size of the slice not to exceed `isize::MAX`\0A\0AThis indicates a bug in the program. This Undefined Behavior check is optional, and cannot be relied on for safety.", align 1
@alloc_5c1a2f972552229672fc942406cfc298 = private unnamed_addr constant [283 x i8] c"unsafe precondition(s) violated: slice::from_raw_parts_mut requires the pointer to be aligned and non-null, and the total size of the slice not to exceed `isize::MAX`\0A\0AThis indicates a bug in the program. This Undefined Behavior check is optional, and cannot be relied on for safety.", align 1
@vtable.3 = private constant <{ [24 x i8], ptr }> <{ [24 x i8] c"\00\00\00\00\00\00\00\00\00\00\00\00\00\00\00\00\01\00\00\00\00\00\00\00", ptr @"_ZN53_$LT$core..fmt..Error$u20$as$u20$core..fmt..Debug$GT$3fmt17hb54a22f9e2e24d6fE" }>, align 8, !dbg !91
@alloc_763310d78c99c2c1ad3f8a9821e942f3 = private unnamed_addr constant [61 x i8] c"is_nonoverlapping: `size_of::<T>() * count` overflows a usize", align 1
@alloc_99ac8a81a24cac863217ce4a5cbfabea = private unnamed_addr constant [5 x i8] c"Error", align 1
@alloc_ca673fb95acb8e58af271999e89294ae = private unnamed_addr constant [53 x i8] c"attempt to join into collection with len > usize::MAX", align 1
@alloc_d1084648e479974e70c9329824bf76f9 = private unnamed_addr constant [9 x i8] c"mid > len", align 1
@alloc_716ff0773fff869d3b6edfdef8f974a4 = private unnamed_addr constant <{ ptr, [8 x i8] }> <{ ptr @alloc_d1084648e479974e70c9329824bf76f9, [8 x i8] c"\09\00\00\00\00\00\00\00" }>, align 8
@alloc_1c8bf0db333894b40781b08e6558aabc = private unnamed_addr constant [111 x i8] c"/home/ordyboii/.rustup/toolchains/stable-x86_64-unknown-linux-gnu/lib/rustlib/src/rust/library/alloc/src/str.rs", align 1
@alloc_82cb368424cd3b29662cae70b90c8035 = private unnamed_addr constant <{ ptr, [16 x i8] }> <{ ptr @alloc_1c8bf0db333894b40781b08e6558aabc, [16 x i8] c"o\00\00\00\00\00\00\00\9A\00\00\00\0A\00\00\00" }>, align 8
@alloc_6d98aea90a0ccc58e9d5cbf1cb8b9641 = private unnamed_addr constant <{ ptr, [16 x i8] }> <{ ptr @alloc_1c8bf0db333894b40781b08e6558aabc, [16 x i8] c"o\00\00\00\00\00\00\00\9D\00\00\00\16\00\00\00" }>, align 8
@alloc_f7ea5887c2bc7816e6abbac26f3ad579 = private unnamed_addr constant <{ ptr, [16 x i8] }> <{ ptr @alloc_1c8bf0db333894b40781b08e6558aabc, [16 x i8] c"o\00\00\00\00\00\00\00\A0\00\00\00\0C\00\00\00" }>, align 8
@alloc_49aa68791856071b837b838c704c5121 = private unnamed_addr constant <{ ptr, [16 x i8] }> <{ ptr @alloc_1c8bf0db333894b40781b08e6558aabc, [16 x i8] c"o\00\00\00\00\00\00\00\B1\00\00\00\16\00\00\00" }>, align 8
@alloc_b1ecd77e972920fe40acfe472058f68f = private unnamed_addr constant <{ ptr, [16 x i8] }> <{ ptr @alloc_1c8bf0db333894b40781b08e6558aabc, [16 x i8] c"o\00\00\00\00\00\00\00\C0\00\00\00\0E\00\00\00" }>, align 8
@alloc_0e04792c42b6f73201faf4ee17426000 = private unnamed_addr constant [46 x i8] c"TrustedLen iterator's size hint is not exact: ", align 1
@alloc_f0c0bcdc51174ae2a47538e8553750ac = private unnamed_addr constant <{ ptr, [8 x i8] }> <{ ptr @alloc_0e04792c42b6f73201faf4ee17426000, [8 x i8] c".\00\00\00\00\00\00\00" }>, align 8
@__rust_no_alloc_shim_is_unstable = external global i8
@alloc_368e9f96b16b91034a2c43f50ed90757 = private unnamed_addr constant <{ ptr, [16 x i8] }> <{ ptr @alloc_6a9d0d5a283a7a335300e6cc5f837dd5, [16 x i8] c"r\00\00\00\00\00\00\00\BB\04\00\00\12\00\00\00" }>, align 8
@alloc_0de1a2d5b3323d53a6c2298f92ee2733 = private unnamed_addr constant <{ ptr, [16 x i8] }> <{ ptr @alloc_6a9d0d5a283a7a335300e6cc5f837dd5, [16 x i8] c"r\00\00\00\00\00\00\00X\04\00\00\12\00\00\00" }>, align 8
@alloc_bc162be98e2ba1bb36794bf2abf69baf = private unnamed_addr constant [19 x i8] c"Variables practise\0A", align 1
@alloc_c58d47d7c6699803ccc4d30e43993e46 = private unnamed_addr constant <{ ptr, [8 x i8] }> <{ ptr @alloc_bc162be98e2ba1bb36794bf2abf69baf, [8 x i8] c"\13\00\00\00\00\00\00\00" }>, align 8
@alloc_f00bb8b2593f5bcf7b2758e0e3d8f453 = private unnamed_addr constant [23 x i8] c" degrees farenheiht is ", align 1
@alloc_4bcd61f9fa4c16ab8ad07a17ec116a9c = private unnamed_addr constant [17 x i8] c" degrees celsius\0A", align 1
@alloc_3daeb573fca324052616f7b6680cfc0a = private unnamed_addr constant <{ ptr, [8 x i8], ptr, [8 x i8], ptr, [8 x i8] }> <{ ptr inttoptr (i64 1 to ptr), [8 x i8] zeroinitializer, ptr @alloc_f00bb8b2593f5bcf7b2758e0e3d8f453, [8 x i8] c"\17\00\00\00\00\00\00\00", ptr @alloc_4bcd61f9fa4c16ab8ad07a17ec116a9c, [8 x i8] c"\11\00\00\00\00\00\00\00" }>, align 8
@alloc_750033806605233e5e7ed4bba3f95630 = private unnamed_addr constant <{ [4 x i8], [12 x i8], [2 x i8], [14 x i8], [12 x i8], [4 x i8], [4 x i8], [12 x i8], [2 x i8], [14 x i8], [12 x i8], [4 x i8] }> <{ [4 x i8] c"\00\00\01\00", [12 x i8] undef, [2 x i8] c"\02\00", [14 x i8] undef, [12 x i8] c"\00\00\00\00\00\00\00\00 \00\00\F0", [4 x i8] undef, [4 x i8] c"\00\00\02\00", [12 x i8] undef, [2 x i8] c"\02\00", [14 x i8] undef, [12 x i8] c"\01\00\00\00\00\00\00\00 \00\00\F0", [4 x i8] undef }>, align 8
@alloc_49a1e817e911805af64bbc7efb390101 = private unnamed_addr constant [1 x i8] c"\0A", align 1
@alloc_9771be2481f51be410bd2ac520d18601 = private unnamed_addr constant <{ ptr, [8 x i8], ptr, [8 x i8] }> <{ ptr inttoptr (i64 1 to ptr), [8 x i8] zeroinitializer, ptr @alloc_49a1e817e911805af64bbc7efb390101, [8 x i8] c"\01\00\00\00\00\00\00\00" }>, align 8
@alloc_3ba7eeeabd3d9c4a56f56d0cfe62277d = private unnamed_addr constant [11 x i8] c"src/main.rs", align 1
@alloc_34fe5ba59e495170f70781d25edce66a = private unnamed_addr constant <{ ptr, [16 x i8] }> <{ ptr @alloc_3ba7eeeabd3d9c4a56f56d0cfe62277d, [16 x i8] c"\0B\00\00\00\00\00\00\00\1E\00\00\00\22\00\00\00" }>, align 8
@alloc_6fa4c0dbef872abd04d7784986de963c = private unnamed_addr constant <{ ptr, [16 x i8] }> <{ ptr @alloc_3ba7eeeabd3d9c4a56f56d0cfe62277d, [16 x i8] c"\0B\00\00\00\00\00\00\00\1F\00\00\00\1D\00\00\00" }>, align 8
@alloc_7039893b88d97077c36d119349dda8ab = private unnamed_addr constant <{ ptr, [16 x i8] }> <{ ptr @alloc_3ba7eeeabd3d9c4a56f56d0cfe62277d, [16 x i8] c"\0B\00\00\00\00\00\00\00 \00\00\00\1B\00\00\00" }>, align 8
@alloc_94b00be069aafad82a2c6df764237b82 = private unnamed_addr constant [2 x i8] c", ", align 1
@alloc_13f0500ec55155a594238963b1f515bc = private unnamed_addr constant <{ ptr, [16 x i8] }> <{ ptr @alloc_3ba7eeeabd3d9c4a56f56d0cfe62277d, [16 x i8] c"\0B\00\00\00\00\00\00\00#\00\00\00\13\00\00\00" }>, align 8
@alloc_51b13bf28de0ee63cf77951c8050de33 = private unnamed_addr constant <{ ptr, [16 x i8] }> <{ ptr @alloc_3ba7eeeabd3d9c4a56f56d0cfe62277d, [16 x i8] c"\0B\00\00\00\00\00\00\00'\00\00\00\12\00\00\00" }>, align 8
@__rustc_debug_gdb_scripts_section__ = linkonce_odr unnamed_addr constant [34 x i8] c"\01gdb_load_rust_pretty_printers.py\00", section ".debug_gdb_scripts", align 1

; <core::iter::adapters::map::Map<I,F> as core::iter::traits::iterator::Iterator>::fold
; Function Attrs: nonlazybind uwtable
define internal void @"_ZN102_$LT$core..iter..adapters..map..Map$LT$I$C$F$GT$$u20$as$u20$core..iter..traits..iterator..Iterator$GT$4fold17h7ddcd6cc84702cbbE"(ptr %self.0, ptr %self.1, ptr align 8 %g) unnamed_addr #0 !dbg !185 {
start:
  %f.dbg.spill = alloca [0 x i8], align 1
  %init.dbg.spill = alloca [0 x i8], align 1
  %self.dbg.spill = alloca [16 x i8], align 8
  %_5 = alloca [24 x i8], align 8
  store ptr %self.0, ptr %self.dbg.spill, align 8
  %0 = getelementptr inbounds i8, ptr %self.dbg.spill, i64 8
  store ptr %self.1, ptr %0, align 8
    #dbg_declare(ptr %self.dbg.spill, !241, !DIExpression(), !248)
    #dbg_declare(ptr %init.dbg.spill, !242, !DIExpression(), !249)
    #dbg_declare(ptr %g, !243, !DIExpression(), !250)
    #dbg_declare(ptr %g, !251, !DIExpression(), !265)
    #dbg_declare(ptr %f.dbg.spill, !261, !DIExpression(), !267)
  call void @llvm.memcpy.p0.p0.i64(ptr align 8 %_5, ptr align 8 %g, i64 24, i1 false), !dbg !268
; call <core::slice::iter::Iter<T> as core::iter::traits::iterator::Iterator>::fold
  call void @"_ZN91_$LT$core..slice..iter..Iter$LT$T$GT$$u20$as$u20$core..iter..traits..iterator..Iterator$GT$4fold17h9e2d81e84835e3d5E"(ptr %self.0, ptr %self.1, ptr align 8 %_5), !dbg !269
  ret void, !dbg !270
}

; <core::iter::adapters::map::Map<I,F> as core::iter::traits::iterator::Iterator>::size_hint
; Function Attrs: inlinehint nonlazybind uwtable
define internal void @"_ZN102_$LT$core..iter..adapters..map..Map$LT$I$C$F$GT$$u20$as$u20$core..iter..traits..iterator..Iterator$GT$9size_hint17h3ffa7ca613f66c5aE"(ptr sret([24 x i8]) align 8 %_0, ptr align 8 %self) unnamed_addr #1 !dbg !271 {
start:
  %self.dbg.spill = alloca [8 x i8], align 8
  store ptr %self, ptr %self.dbg.spill, align 8
    #dbg_declare(ptr %self.dbg.spill, !294, !DIExpression(), !296)
; call <core::slice::iter::Iter<T> as core::iter::traits::iterator::Iterator>::size_hint
  call void @"_ZN91_$LT$core..slice..iter..Iter$LT$T$GT$$u20$as$u20$core..iter..traits..iterator..Iterator$GT$9size_hint17hc6e5892ca13747a1E"(ptr sret([24 x i8]) align 8 %_0, ptr align 8 %self), !dbg !297
  ret void, !dbg !298
}

; <core::ops::range::Range<usize> as core::slice::index::SliceIndex<[T]>>::get_unchecked_mut::precondition_check
; Function Attrs: inlinehint nounwind nonlazybind uwtable
define internal void @"_ZN106_$LT$core..ops..range..Range$LT$usize$GT$$u20$as$u20$core..slice..index..SliceIndex$LT$$u5b$T$u5d$$GT$$GT$17get_unchecked_mut18precondition_check17h9361b567bc89acc4E"(i64 %start1, i64 %end, i64 %len) unnamed_addr #2 !dbg !299 {
start:
  %len.dbg.spill = alloca [8 x i8], align 8
  %end.dbg.spill = alloca [8 x i8], align 8
  %start.dbg.spill = alloca [8 x i8], align 8
  store i64 %start1, ptr %start.dbg.spill, align 8
    #dbg_declare(ptr %start.dbg.spill, !307, !DIExpression(), !310)
  store i64 %end, ptr %end.dbg.spill, align 8
    #dbg_declare(ptr %end.dbg.spill, !308, !DIExpression(), !310)
  store i64 %len, ptr %len.dbg.spill, align 8
    #dbg_declare(ptr %len.dbg.spill, !309, !DIExpression(), !310)
  %_4 = icmp uge i64 %end, %start1, !dbg !311
  br i1 %_4, label %bb1, label %bb3, !dbg !311

bb3:                                              ; preds = %bb1, %start
; call core::panicking::panic_nounwind
  call void @_ZN4core9panicking14panic_nounwind17h0c59dc9f7f043eadE(ptr align 1 @alloc_18d73aa062d524e9620b9e3b55bd9eb1, i64 218) #18, !dbg !314
  unreachable, !dbg !314

bb1:                                              ; preds = %start
  %_5 = icmp ule i64 %end, %len, !dbg !315
  br i1 %_5, label %bb2, label %bb3, !dbg !315

bb2:                                              ; preds = %bb1
  ret void, !dbg !316
}

; <alloc::vec::Vec<T> as alloc::vec::spec_from_iter_nested::SpecFromIterNested<T,I>>::from_iter
; Function Attrs: nonlazybind uwtable
define internal void @"_ZN111_$LT$alloc..vec..Vec$LT$T$GT$$u20$as$u20$alloc..vec..spec_from_iter_nested..SpecFromIterNested$LT$T$C$I$GT$$GT$9from_iter17h6cd1dac3112a4a07E"(ptr sret([24 x i8]) align 8 %_0, ptr %0, ptr %1, ptr align 8 %2) unnamed_addr #0 personality ptr @rust_eh_personality !dbg !317 {
start:
  %upper.dbg.spill = alloca [8 x i8], align 8
  %3 = alloca [16 x i8], align 8
  %alloc.dbg.spill1 = alloca [0 x i8], align 1
  %alloc.dbg.spill = alloca [0 x i8], align 1
  %pieces.dbg.spill = alloca [8 x i8], align 8
  %_12 = alloca [1 x i8], align 1
  %_8 = alloca [48 x i8], align 8
  %_3 = alloca [24 x i8], align 8
  %vector = alloca [24 x i8], align 8
  %iterator = alloca [16 x i8], align 8
  store ptr %0, ptr %iterator, align 8
  %4 = getelementptr inbounds i8, ptr %iterator, i64 8
  store ptr %1, ptr %4, align 8
    #dbg_declare(ptr %iterator, !349, !DIExpression(), !356)
    #dbg_declare(ptr %vector, !350, !DIExpression(), !357)
  store ptr @alloc_11d257f5ed6cc7fc38feaa801053bac6, ptr %pieces.dbg.spill, align 8, !dbg !358
    #dbg_declare(ptr %pieces.dbg.spill, !491, !DIExpression(), !358)
    #dbg_declare(ptr %alloc.dbg.spill, !493, !DIExpression(), !501)
    #dbg_declare(ptr %alloc.dbg.spill1, !510, !DIExpression(), !518)
  store i8 1, ptr %_12, align 1, !dbg !520
; invoke <core::iter::adapters::map::Map<I,F> as core::iter::traits::iterator::Iterator>::size_hint
  invoke void @"_ZN102_$LT$core..iter..adapters..map..Map$LT$I$C$F$GT$$u20$as$u20$core..iter..traits..iterator..Iterator$GT$9size_hint17h3ffa7ca613f66c5aE"(ptr sret([24 x i8]) align 8 %_3, ptr align 8 %iterator)
          to label %bb1 unwind label %cleanup, !dbg !521

bb8:                                              ; preds = %bb5, %cleanup
  %5 = load i8, ptr %_12, align 1, !dbg !522
  %6 = trunc nuw i8 %5 to i1, !dbg !522
  br i1 %6, label %bb7, label %bb6, !dbg !522

cleanup:                                          ; preds = %bb2, %bb3, %start
  %7 = landingpad { ptr, i32 }
          cleanup
  %8 = extractvalue { ptr, i32 } %7, 0
  %9 = extractvalue { ptr, i32 } %7, 1
  store ptr %8, ptr %3, align 8
  %10 = getelementptr inbounds i8, ptr %3, i64 8
  store i32 %9, ptr %10, align 8
  br label %bb8

bb1:                                              ; preds = %start
  %11 = getelementptr inbounds i8, ptr %_3, i64 8, !dbg !521
  %_5 = load i64, ptr %11, align 8, !dbg !521
  %12 = getelementptr inbounds i8, ptr %11, i64 8, !dbg !521
  %13 = load i64, ptr %12, align 8, !dbg !521
  %14 = trunc nuw i64 %_5 to i1, !dbg !523
  br i1 %14, label %bb3, label %bb2, !dbg !523

bb3:                                              ; preds = %bb1
  %15 = getelementptr inbounds i8, ptr %_3, i64 8, !dbg !524
  %16 = getelementptr inbounds i8, ptr %15, i64 8, !dbg !524
  %upper = load i64, ptr %16, align 8, !dbg !524
  store i64 %upper, ptr %upper.dbg.spill, align 8, !dbg !524
    #dbg_declare(ptr %upper.dbg.spill, !352, !DIExpression(), !525)
    #dbg_declare(ptr %upper.dbg.spill, !508, !DIExpression(), !526)
    #dbg_declare(ptr %upper.dbg.spill, !500, !DIExpression(), !527)
    #dbg_declare(ptr %upper.dbg.spill, !517, !DIExpression(), !528)
; invoke alloc::raw_vec::RawVecInner<A>::with_capacity_in
  %17 = invoke { i64, ptr } @"_ZN5alloc7raw_vec20RawVecInner$LT$A$GT$16with_capacity_in17h05a0957b7809f1a2E"(i64 %upper, i64 8, i64 24, ptr align 8 %2)
          to label %bb9 unwind label %cleanup, !dbg !529

bb2:                                              ; preds = %bb1
  store ptr @alloc_11d257f5ed6cc7fc38feaa801053bac6, ptr %_8, align 8, !dbg !530
  %18 = getelementptr inbounds i8, ptr %_8, i64 8, !dbg !530
  store i64 1, ptr %18, align 8, !dbg !530
  %19 = load ptr, ptr @anon.60f91fde1ce0e38296af11bc775d42ab.0, align 8, !dbg !530
  %20 = load i64, ptr getelementptr inbounds (i8, ptr @anon.60f91fde1ce0e38296af11bc775d42ab.0, i64 8), align 8, !dbg !530
  %21 = getelementptr inbounds i8, ptr %_8, i64 32, !dbg !530
  store ptr %19, ptr %21, align 8, !dbg !530
  %22 = getelementptr inbounds i8, ptr %21, i64 8, !dbg !530
  store i64 %20, ptr %22, align 8, !dbg !530
  %23 = getelementptr inbounds i8, ptr %_8, i64 16, !dbg !530
  store ptr inttoptr (i64 8 to ptr), ptr %23, align 8, !dbg !530
  %24 = getelementptr inbounds i8, ptr %23, i64 8, !dbg !530
  store i64 0, ptr %24, align 8, !dbg !530
; invoke core::panicking::panic_fmt
  invoke void @_ZN4core9panicking9panic_fmt17hc8737e8cca20a7c8E(ptr align 8 %_8, ptr align 8 %2) #19
          to label %unreachable unwind label %cleanup, !dbg !492

bb9:                                              ; preds = %bb3
  %_16.0 = extractvalue { i64, ptr } %17, 0, !dbg !529
  %_16.1 = extractvalue { i64, ptr } %17, 1, !dbg !529
  store i64 %_16.0, ptr %vector, align 8, !dbg !531
  %25 = getelementptr inbounds i8, ptr %vector, i64 8, !dbg !531
  store ptr %_16.1, ptr %25, align 8, !dbg !531
  %26 = getelementptr inbounds i8, ptr %vector, i64 16, !dbg !531
  store i64 0, ptr %26, align 8, !dbg !531
  store i8 0, ptr %_12, align 1, !dbg !532
  %_11.0 = load ptr, ptr %iterator, align 8, !dbg !532
  %27 = getelementptr inbounds i8, ptr %iterator, i64 8, !dbg !532
  %_11.1 = load ptr, ptr %27, align 8, !dbg !532
; invoke <alloc::vec::Vec<T,A> as alloc::vec::spec_extend::SpecExtend<T,I>>::spec_extend
  invoke void @"_ZN97_$LT$alloc..vec..Vec$LT$T$C$A$GT$$u20$as$u20$alloc..vec..spec_extend..SpecExtend$LT$T$C$I$GT$$GT$11spec_extend17h095ced255a6a2afaE"(ptr align 8 %vector, ptr %_11.0, ptr %_11.1, ptr align 8 %2)
          to label %bb4 unwind label %cleanup2, !dbg !533

bb5:                                              ; preds = %cleanup2
; invoke core::ptr::drop_in_place<alloc::vec::Vec<alloc::string::String>>
  invoke void @"_ZN4core3ptr65drop_in_place$LT$alloc..vec..Vec$LT$alloc..string..String$GT$$GT$17he8f3654548fa77e1E"(ptr align 8 %vector) #20
          to label %bb8 unwind label %terminate, !dbg !522

cleanup2:                                         ; preds = %bb9
  %28 = landingpad { ptr, i32 }
          cleanup
  %29 = extractvalue { ptr, i32 } %28, 0
  %30 = extractvalue { ptr, i32 } %28, 1
  store ptr %29, ptr %3, align 8
  %31 = getelementptr inbounds i8, ptr %3, i64 8
  store i32 %30, ptr %31, align 8
  br label %bb5

bb4:                                              ; preds = %bb9
  call void @llvm.memcpy.p0.p0.i64(ptr align 8 %_0, ptr align 8 %vector, i64 24, i1 false), !dbg !534
  ret void, !dbg !535

terminate:                                        ; preds = %bb5
  %32 = landingpad { ptr, i32 }
          filter [0 x ptr] zeroinitializer
  %33 = extractvalue { ptr, i32 } %32, 0
  %34 = extractvalue { ptr, i32 } %32, 1
; call core::panicking::panic_in_cleanup
  call void @_ZN4core9panicking16panic_in_cleanup17h51d1753fd07771d1E() #21, !dbg !536
  unreachable, !dbg !536

unreachable:                                      ; preds = %bb2
  unreachable

bb10:                                             ; No predecessors!
  unreachable, !dbg !536

bb6:                                              ; preds = %bb7, %bb8
  %35 = load ptr, ptr %3, align 8, !dbg !536
  %36 = getelementptr inbounds i8, ptr %3, i64 8, !dbg !536
  %37 = load i32, ptr %36, align 8, !dbg !536
  %38 = insertvalue { ptr, i32 } poison, ptr %35, 0, !dbg !536
  %39 = insertvalue { ptr, i32 } %38, i32 %37, 1, !dbg !536
  resume { ptr, i32 } %39, !dbg !536

bb7:                                              ; preds = %bb8
  br label %bb6, !dbg !522
}

; <core::option::Option<T> as core::ops::try_trait::FromResidual<core::option::Option<core::convert::Infallible>>>::from_residual
; Function Attrs: inlinehint nonlazybind uwtable
define internal { i64, i64 } @"_ZN145_$LT$core..option..Option$LT$T$GT$$u20$as$u20$core..ops..try_trait..FromResidual$LT$core..option..Option$LT$core..convert..Infallible$GT$$GT$$GT$13from_residual17h60ff51a2c2ccc921E"() unnamed_addr #1 !dbg !537 {
start:
  %_1.dbg.spill = alloca [0 x i8], align 1
  %_0 = alloca [16 x i8], align 8
    #dbg_declare(ptr %_1.dbg.spill, !559, !DIExpression(), !560)
  store i64 0, ptr %_0, align 8, !dbg !561
  %0 = load i64, ptr %_0, align 8, !dbg !562
  %1 = getelementptr inbounds i8, ptr %_0, i64 8, !dbg !562
  %2 = load i64, ptr %1, align 8, !dbg !562
  %3 = insertvalue { i64, i64 } poison, i64 %0, 0, !dbg !562
  %4 = insertvalue { i64, i64 } %3, i64 %2, 1, !dbg !562
  ret { i64, i64 } %4, !dbg !562
}

; std::rt::lang_start
; Function Attrs: nonlazybind uwtable
define hidden i64 @_ZN3std2rt10lang_start17h0e4b2f6a570fd303E(ptr %main, i64 %argc, ptr %argv, i8 %sigpipe) unnamed_addr #0 !dbg !563 {
start:
  %sigpipe.dbg.spill = alloca [1 x i8], align 1
  %argv.dbg.spill = alloca [8 x i8], align 8
  %argc.dbg.spill = alloca [8 x i8], align 8
  %main.dbg.spill = alloca [8 x i8], align 8
  %_7 = alloca [8 x i8], align 8
  store ptr %main, ptr %main.dbg.spill, align 8
    #dbg_declare(ptr %main.dbg.spill, !570, !DIExpression(), !574)
  store i64 %argc, ptr %argc.dbg.spill, align 8
    #dbg_declare(ptr %argc.dbg.spill, !571, !DIExpression(), !575)
  store ptr %argv, ptr %argv.dbg.spill, align 8
    #dbg_declare(ptr %argv.dbg.spill, !572, !DIExpression(), !576)
  store i8 %sigpipe, ptr %sigpipe.dbg.spill, align 1
    #dbg_declare(ptr %sigpipe.dbg.spill, !573, !DIExpression(), !577)
  store ptr %main, ptr %_7, align 8, !dbg !578
; call std::rt::lang_start_internal
  %_0 = call i64 @_ZN3std2rt19lang_start_internal17ha8ef919ae4984948E(ptr align 1 %_7, ptr align 8 @vtable.0, i64 %argc, ptr %argv, i8 %sigpipe), !dbg !579
  ret i64 %_0, !dbg !580
}

; std::rt::lang_start::{{closure}}
; Function Attrs: inlinehint nonlazybind uwtable
define internal i32 @"_ZN3std2rt10lang_start28_$u7b$$u7b$closure$u7d$$u7d$17h7bca82e2071632c2E"(ptr align 8 %_1) unnamed_addr #1 !dbg !581 {
start:
  %self.dbg.spill = alloca [1 x i8], align 1
  %_1.dbg.spill = alloca [8 x i8], align 8
  store ptr %_1, ptr %_1.dbg.spill, align 8
    #dbg_declare(ptr %_1.dbg.spill, !587, !DIExpression(DW_OP_deref), !588)
  %_4 = load ptr, ptr %_1, align 8, !dbg !589
; call std::sys::backtrace::__rust_begin_short_backtrace
  call void @_ZN3std3sys9backtrace28__rust_begin_short_backtrace17h5d36bea90cfefb88E(ptr %_4), !dbg !590
; call <() as std::process::Termination>::report
  %self = call i8 @"_ZN54_$LT$$LP$$RP$$u20$as$u20$std..process..Termination$GT$6report17hc0bfbf9625380bc6E"(), !dbg !590
  store i8 %self, ptr %self.dbg.spill, align 1, !dbg !590
    #dbg_declare(ptr %self.dbg.spill, !591, !DIExpression(), !609)
  %_0 = zext i8 %self to i32, !dbg !611
  ret i32 %_0, !dbg !619
}

; std::sys::backtrace::__rust_begin_short_backtrace
; Function Attrs: noinline nonlazybind uwtable
define internal void @_ZN3std3sys9backtrace28__rust_begin_short_backtrace17h5d36bea90cfefb88E(ptr %f) unnamed_addr #3 !dbg !620 {
start:
  %dummy.dbg.spill = alloca [0 x i8], align 1
  %f.dbg.spill = alloca [8 x i8], align 8
  %result.dbg.spill = alloca [0 x i8], align 1
    #dbg_declare(ptr %result.dbg.spill, !627, !DIExpression(), !631)
  store ptr %f, ptr %f.dbg.spill, align 8
    #dbg_declare(ptr %f.dbg.spill, !626, !DIExpression(), !632)
    #dbg_declare(ptr %dummy.dbg.spill, !633, !DIExpression(), !640)
; call core::ops::function::FnOnce::call_once
  call void @_ZN4core3ops8function6FnOnce9call_once17h44661120698f704fE(ptr %f), !dbg !642
  call void asm sideeffect "", "~{memory}"(), !dbg !643, !srcloc !644
  ret void, !dbg !645
}

; <&T as core::fmt::Debug>::fmt
; Function Attrs: nonlazybind uwtable
define internal zeroext i1 @"_ZN42_$LT$$RF$T$u20$as$u20$core..fmt..Debug$GT$3fmt17h604aa6ac4e2b7f9cE"(ptr align 8 %self, ptr align 8 %f) unnamed_addr #0 !dbg !646 {
start:
  %f.dbg.spill = alloca [8 x i8], align 8
  %self.dbg.spill = alloca [8 x i8], align 8
  store ptr %self, ptr %self.dbg.spill, align 8
    #dbg_declare(ptr %self.dbg.spill, !653, !DIExpression(), !655)
  store ptr %f, ptr %f.dbg.spill, align 8
    #dbg_declare(ptr %f.dbg.spill, !654, !DIExpression(), !656)
  %_3 = load ptr, ptr %self, align 8, !dbg !657
; call core::fmt::num::<impl core::fmt::Debug for u32>::fmt
  %_0 = call zeroext i1 @"_ZN4core3fmt3num50_$LT$impl$u20$core..fmt..Debug$u20$for$u20$u32$GT$3fmt17h9a8837f6fe138309E"(ptr align 4 %_3, ptr align 8 %f), !dbg !658
  ret i1 %_0, !dbg !659
}

; <T as alloc::string::ToString>::to_string
; Function Attrs: inlinehint nonlazybind uwtable
define internal void @"_ZN45_$LT$T$u20$as$u20$alloc..string..ToString$GT$9to_string17h3ee06f2d717a5f76E"(ptr sret([24 x i8]) align 8 %_0, ptr align 4 %self) unnamed_addr #1 !dbg !660 {
start:
  %self.dbg.spill = alloca [8 x i8], align 8
  store ptr %self, ptr %self.dbg.spill, align 8
    #dbg_declare(ptr %self.dbg.spill, !666, !DIExpression(), !667)
; call <T as alloc::string::SpecToString>::spec_to_string
  call void @"_ZN49_$LT$T$u20$as$u20$alloc..string..SpecToString$GT$14spec_to_string17hbd2169576e296684E"(ptr sret([24 x i8]) align 8 %_0, ptr align 4 %self), !dbg !668
  ret void, !dbg !669
}

; <u32 as core::iter::range::Step>::forward_unchecked
; Function Attrs: inlinehint nonlazybind uwtable
define internal i32 @"_ZN47_$LT$u32$u20$as$u20$core..iter..range..Step$GT$17forward_unchecked17hab588e00b7cf7ac9E"(i32 %start1, i64 %n) unnamed_addr #1 !dbg !670 {
start:
  %rhs.dbg.spill = alloca [4 x i8], align 4
  %n.dbg.spill = alloca [8 x i8], align 8
  %start.dbg.spill = alloca [4 x i8], align 4
  store i32 %start1, ptr %start.dbg.spill, align 4
    #dbg_declare(ptr %start.dbg.spill, !677, !DIExpression(), !679)
    #dbg_declare(ptr %start.dbg.spill, !680, !DIExpression(), !688)
  store i64 %n, ptr %n.dbg.spill, align 8
    #dbg_declare(ptr %n.dbg.spill, !678, !DIExpression(), !690)
  %rhs = trunc i64 %n to i32, !dbg !691
  store i32 %rhs, ptr %rhs.dbg.spill, align 4, !dbg !691
    #dbg_declare(ptr %rhs.dbg.spill, !687, !DIExpression(), !692)
  br label %bb1, !dbg !693

bb1:                                              ; preds = %start
; call core::num::<impl u32>::unchecked_add::precondition_check
  call void @"_ZN4core3num21_$LT$impl$u20$u32$GT$13unchecked_add18precondition_check17h258d4fee987fb047E"(i32 %start1, i32 %rhs) #22, !dbg !695
  br label %bb2, !dbg !695

bb2:                                              ; preds = %bb1
  %_0 = add nuw i32 %start1, %rhs, !dbg !696
  ret i32 %_0, !dbg !697
}

; <[T] as core::fmt::Debug>::fmt
; Function Attrs: nonlazybind uwtable
define internal zeroext i1 @"_ZN48_$LT$$u5b$T$u5d$$u20$as$u20$core..fmt..Debug$GT$3fmt17h2485be3502a00e3eE"(ptr align 4 %self.0, i64 %self.1, ptr align 8 %f) unnamed_addr #0 !dbg !698 {
start:
  %self.dbg.spill2 = alloca [8 x i8], align 8
  %ptr.dbg.spill = alloca [8 x i8], align 8
  %self.dbg.spill1 = alloca [16 x i8], align 8
  %len.dbg.spill = alloca [8 x i8], align 8
  %f.dbg.spill = alloca [8 x i8], align 8
  %self.dbg.spill = alloca [16 x i8], align 8
  %end_or_len = alloca [8 x i8], align 8
  %_5 = alloca [16 x i8], align 8
  store ptr %self.0, ptr %self.dbg.spill, align 8
  %0 = getelementptr inbounds i8, ptr %self.dbg.spill, i64 8
  store i64 %self.1, ptr %0, align 8
    #dbg_declare(ptr %self.dbg.spill, !708, !DIExpression(), !710)
    #dbg_declare(ptr %self.dbg.spill, !711, !DIExpression(), !718)
    #dbg_declare(ptr %self.dbg.spill, !720, !DIExpression(), !731)
    #dbg_declare(ptr %self.dbg.spill, !733, !DIExpression(), !747)
  store ptr %f, ptr %f.dbg.spill, align 8
    #dbg_declare(ptr %f.dbg.spill, !709, !DIExpression(), !749)
    #dbg_declare(ptr %end_or_len, !729, !DIExpression(), !750)
; call core::fmt::Formatter::debug_list
  call void @_ZN4core3fmt9Formatter10debug_list17h091d7ad5d6835b04E(ptr sret([16 x i8]) align 8 %_5, ptr align 8 %f), !dbg !751
  store i64 %self.1, ptr %len.dbg.spill, align 8, !dbg !752
    #dbg_declare(ptr %len.dbg.spill, !725, !DIExpression(), !753)
    #dbg_declare(ptr %len.dbg.spill, !754, !DIExpression(), !760)
    #dbg_declare(ptr %len.dbg.spill, !762, !DIExpression(), !772)
  store ptr %self.0, ptr %self.dbg.spill1, align 8, !dbg !774
  %1 = getelementptr inbounds i8, ptr %self.dbg.spill1, i64 8, !dbg !774
  store i64 %self.1, ptr %1, align 8, !dbg !774
    #dbg_declare(ptr %self.dbg.spill1, !775, !DIExpression(), !783)
  store ptr %self.0, ptr %ptr.dbg.spill, align 8, !dbg !785
    #dbg_declare(ptr %ptr.dbg.spill, !727, !DIExpression(), !786)
    #dbg_declare(ptr %ptr.dbg.spill, !787, !DIExpression(), !793)
  br label %bb5, !dbg !795

bb5:                                              ; preds = %start
  store ptr %self.0, ptr %self.dbg.spill2, align 8, !dbg !796
    #dbg_declare(ptr %self.dbg.spill2, !771, !DIExpression(), !797)
  %_11 = getelementptr inbounds nuw i32, ptr %self.0, i64 %self.1, !dbg !798
  store ptr %_11, ptr %end_or_len, align 8, !dbg !799
  br label %bb6, !dbg !800

bb6:                                              ; preds = %bb5
  %_13 = load ptr, ptr %end_or_len, align 8, !dbg !801
; call core::fmt::builders::DebugList::entries
  %_3 = call align 8 ptr @_ZN4core3fmt8builders9DebugList7entries17hdaa253f17173d77aE(ptr align 8 %_5, ptr %self.0, ptr %_13), !dbg !751
; call core::fmt::builders::DebugList::finish
  %_0 = call zeroext i1 @_ZN4core3fmt8builders9DebugList6finish17h36cf362e84b5c024E(ptr align 8 %_3), !dbg !751
  ret i1 %_0, !dbg !802

bb4:                                              ; No predecessors!
  unreachable
}

; <T as alloc::string::SpecToString>::spec_to_string
; Function Attrs: inlinehint nonlazybind uwtable
define internal void @"_ZN49_$LT$T$u20$as$u20$alloc..string..SpecToString$GT$14spec_to_string17hbd2169576e296684E"(ptr sret([24 x i8]) align 8 %_0, ptr align 4 %self) unnamed_addr #1 personality ptr @rust_eh_personality !dbg !803 {
start:
  %0 = alloca [16 x i8], align 8
  %write.dbg.spill = alloca [16 x i8], align 8
  %self.dbg.spill = alloca [8 x i8], align 8
  %_10 = alloca [24 x i8], align 8
  %options = alloca [8 x i8], align 4
  %formatter = alloca [24 x i8], align 8
  %buf = alloca [24 x i8], align 8
  store ptr %self, ptr %self.dbg.spill, align 8
    #dbg_declare(ptr %self.dbg.spill, !806, !DIExpression(), !811)
    #dbg_declare(ptr %buf, !807, !DIExpression(), !812)
    #dbg_declare(ptr %formatter, !809, !DIExpression(), !813)
    #dbg_declare(ptr %options, !814, !DIExpression(), !821)
  store i64 0, ptr %_10, align 8, !dbg !823
  %1 = getelementptr inbounds i8, ptr %_10, i64 8, !dbg !823
  store ptr inttoptr (i64 1 to ptr), ptr %1, align 8, !dbg !823
  %2 = getelementptr inbounds i8, ptr %_10, i64 16, !dbg !823
  store i64 0, ptr %2, align 8, !dbg !823
  call void @llvm.memcpy.p0.p0.i64(ptr align 8 %buf, ptr align 8 %_10, i64 24, i1 false), !dbg !834
  store ptr %buf, ptr %write.dbg.spill, align 8, !dbg !835
  %3 = getelementptr inbounds i8, ptr %write.dbg.spill, i64 8, !dbg !835
  store ptr @vtable.1, ptr %3, align 8, !dbg !835
    #dbg_declare(ptr %write.dbg.spill, !820, !DIExpression(), !836)
  store i32 -536870880, ptr %options, align 4, !dbg !837
  %4 = getelementptr inbounds i8, ptr %options, i64 4, !dbg !837
  store i16 0, ptr %4, align 4, !dbg !837
  %5 = getelementptr inbounds i8, ptr %options, i64 6, !dbg !837
  store i16 0, ptr %5, align 2, !dbg !837
  %6 = getelementptr inbounds i8, ptr %formatter, i64 16, !dbg !843
  call void @llvm.memcpy.p0.p0.i64(ptr align 8 %6, ptr align 4 %options, i64 8, i1 false), !dbg !843
  store ptr %buf, ptr %formatter, align 8, !dbg !843
  %7 = getelementptr inbounds i8, ptr %formatter, i64 8, !dbg !843
  store ptr @vtable.1, ptr %7, align 8, !dbg !843
; invoke core::fmt::num::imp::<impl core::fmt::Display for u32>::fmt
  %_8 = invoke zeroext i1 @"_ZN4core3fmt3num3imp52_$LT$impl$u20$core..fmt..Display$u20$for$u20$u32$GT$3fmt17heae17e31cadbc382E"(ptr align 4 %self, ptr align 8 %formatter)
          to label %bb1 unwind label %cleanup, !dbg !844

bb3:                                              ; preds = %cleanup
; invoke core::ptr::drop_in_place<alloc::string::String>
  invoke void @"_ZN4core3ptr42drop_in_place$LT$alloc..string..String$GT$17h5c57c16fee11b4e5E"(ptr align 8 %buf) #20
          to label %bb4 unwind label %terminate, !dbg !845

cleanup:                                          ; preds = %bb1, %start
  %8 = landingpad { ptr, i32 }
          cleanup
  %9 = extractvalue { ptr, i32 } %8, 0
  %10 = extractvalue { ptr, i32 } %8, 1
  store ptr %9, ptr %0, align 8
  %11 = getelementptr inbounds i8, ptr %0, i64 8
  store i32 %10, ptr %11, align 8
  br label %bb3

bb1:                                              ; preds = %start
; invoke core::result::Result<T,E>::expect
  invoke void @"_ZN4core6result19Result$LT$T$C$E$GT$6expect17h5f6b71b3d785523fE"(i1 zeroext %_8, ptr align 1 @alloc_cc656815297f75969399c3f4b1ad3de4, i64 55, ptr align 8 @alloc_bbd70200b282c7ecf5149962ea1ae7d6)
          to label %bb2 unwind label %cleanup, !dbg !844

bb2:                                              ; preds = %bb1
  call void @llvm.memcpy.p0.p0.i64(ptr align 8 %_0, ptr align 8 %buf, i64 24, i1 false), !dbg !846
  ret void, !dbg !847

terminate:                                        ; preds = %bb3
  %12 = landingpad { ptr, i32 }
          filter [0 x ptr] zeroinitializer
  %13 = extractvalue { ptr, i32 } %12, 0
  %14 = extractvalue { ptr, i32 } %12, 1
; call core::panicking::panic_in_cleanup
  call void @_ZN4core9panicking16panic_in_cleanup17h51d1753fd07771d1E() #21, !dbg !848
  unreachable, !dbg !848

bb4:                                              ; preds = %bb3
  %15 = load ptr, ptr %0, align 8, !dbg !848
  %16 = getelementptr inbounds i8, ptr %0, i64 8, !dbg !848
  %17 = load i32, ptr %16, align 8, !dbg !848
  %18 = insertvalue { ptr, i32 } poison, ptr %15, 0, !dbg !848
  %19 = insertvalue { ptr, i32 } %18, i32 %17, 1, !dbg !848
  resume { ptr, i32 } %19, !dbg !848
}

; core::intrinsics::copy_nonoverlapping::precondition_check
; Function Attrs: inlinehint nounwind nonlazybind uwtable
define internal void @_ZN4core10intrinsics19copy_nonoverlapping18precondition_check17hc81675b7eb28c56aE(ptr %src, ptr %dst, i64 %size, i64 %align, i64 %count) unnamed_addr #2 personality ptr @rust_eh_personality !dbg !849 {
start:
  %0 = alloca [4 x i8], align 4
  %is_zst.dbg.spill = alloca [1 x i8], align 1
  %ptr.dbg.spill = alloca [8 x i8], align 8
  %pieces.dbg.spill2 = alloca [8 x i8], align 8
  %pieces.dbg.spill = alloca [8 x i8], align 8
  %count.dbg.spill = alloca [8 x i8], align 8
  %align.dbg.spill = alloca [8 x i8], align 8
  %size.dbg.spill = alloca [8 x i8], align 8
  %dst.dbg.spill = alloca [8 x i8], align 8
  %src.dbg.spill = alloca [8 x i8], align 8
  %_26 = alloca [48 x i8], align 8
  %_21 = alloca [4 x i8], align 4
  %_20 = alloca [8 x i8], align 8
  %_19 = alloca [8 x i8], align 8
  %_18 = alloca [8 x i8], align 8
  %_17 = alloca [48 x i8], align 8
  %is_zst = alloca [1 x i8], align 1
  %align1 = alloca [8 x i8], align 8
  %zero_size = alloca [1 x i8], align 1
  store ptr %src, ptr %src.dbg.spill, align 8
    #dbg_declare(ptr %src.dbg.spill, !856, !DIExpression(), !865)
    #dbg_declare(ptr %src.dbg.spill, !866, !DIExpression(), !874)
    #dbg_declare(ptr %src.dbg.spill, !876, !DIExpression(), !882)
    #dbg_declare(ptr %src.dbg.spill, !885, !DIExpression(), !894)
    #dbg_declare(ptr %src.dbg.spill, !897, !DIExpression(), !902)
    #dbg_declare(ptr %src.dbg.spill, !904, !DIExpression(), !911)
    #dbg_declare(ptr %src.dbg.spill, !913, !DIExpression(), !918)
    #dbg_declare(ptr %src.dbg.spill, !920, !DIExpression(), !928)
  store ptr %dst, ptr %dst.dbg.spill, align 8
    #dbg_declare(ptr %dst.dbg.spill, !857, !DIExpression(), !865)
  store i64 %size, ptr %size.dbg.spill, align 8
    #dbg_declare(ptr %size.dbg.spill, !858, !DIExpression(), !865)
    #dbg_declare(ptr %size.dbg.spill, !926, !DIExpression(), !930)
  store i64 %align, ptr %align.dbg.spill, align 8
    #dbg_declare(ptr %align.dbg.spill, !859, !DIExpression(), !865)
    #dbg_declare(ptr %align.dbg.spill, !872, !DIExpression(), !931)
    #dbg_declare(ptr %align.dbg.spill, !880, !DIExpression(), !933)
    #dbg_declare(ptr %align.dbg.spill, !893, !DIExpression(), !936)
    #dbg_declare(ptr %align.dbg.spill, !939, !DIExpression(), !945)
    #dbg_declare(ptr %align.dbg.spill, !948, !DIExpression(), !953)
  store i64 %count, ptr %count.dbg.spill, align 8
    #dbg_declare(ptr %count.dbg.spill, !860, !DIExpression(), !865)
    #dbg_declare(ptr %count.dbg.spill, !927, !DIExpression(), !956)
    #dbg_declare(ptr %zero_size, !861, !DIExpression(), !957)
    #dbg_declare(ptr %align1, !872, !DIExpression(), !958)
    #dbg_declare(ptr %align1, !880, !DIExpression(), !882)
    #dbg_declare(ptr %align1, !893, !DIExpression(), !959)
    #dbg_declare(ptr %align1, !939, !DIExpression(), !960)
    #dbg_declare(ptr %align1, !948, !DIExpression(), !962)
    #dbg_declare(ptr %is_zst, !873, !DIExpression(), !964)
    #dbg_declare(ptr %is_zst, !881, !DIExpression(), !882)
  store ptr @alloc_e92e94d0ff530782b571cfd99ec66aef, ptr %pieces.dbg.spill, align 8, !dbg !965
    #dbg_declare(ptr %pieces.dbg.spill, !968, !DIExpression(), !965)
  store ptr @alloc_e92e94d0ff530782b571cfd99ec66aef, ptr %pieces.dbg.spill2, align 8, !dbg !970
    #dbg_declare(ptr %pieces.dbg.spill2, !968, !DIExpression(), !970)
  %1 = icmp eq i64 %count, 0, !dbg !972
  br i1 %1, label %bb1, label %bb2, !dbg !972

bb1:                                              ; preds = %start
  store i8 1, ptr %zero_size, align 1, !dbg !972
  store i64 %align, ptr %align1, align 8, !dbg !974
  %2 = load i8, ptr %zero_size, align 1, !dbg !975
  %3 = trunc nuw i8 %2 to i1, !dbg !975
  %4 = zext i1 %3 to i8, !dbg !975
  store i8 %4, ptr %is_zst, align 1, !dbg !975
  %5 = call i64 @llvm.ctpop.i64(i64 %align), !dbg !976
  %6 = trunc i64 %5 to i32, !dbg !976
  store i32 %6, ptr %_21, align 4, !dbg !976
  %7 = load i32, ptr %_21, align 4, !dbg !977
  %8 = icmp eq i32 %7, 1, !dbg !977
  br i1 %8, label %bb26, label %bb15, !dbg !977

bb2:                                              ; preds = %start
  %9 = icmp eq i64 %size, 0, !dbg !978
  %10 = zext i1 %9 to i8, !dbg !978
  store i8 %10, ptr %zero_size, align 1, !dbg !978
  store i64 %align, ptr %align1, align 8, !dbg !974
  %11 = load i8, ptr %zero_size, align 1, !dbg !975
  %12 = trunc nuw i8 %11 to i1, !dbg !975
  %13 = zext i1 %12 to i8, !dbg !975
  store i8 %13, ptr %is_zst, align 1, !dbg !975
  %14 = call i64 @llvm.ctpop.i64(i64 %align), !dbg !976
  %15 = trunc i64 %14 to i32, !dbg !976
  store i32 %15, ptr %_21, align 4, !dbg !976
  %16 = load i32, ptr %_21, align 4, !dbg !977
  %17 = icmp eq i32 %16, 1, !dbg !977
  br i1 %17, label %bb14, label %bb15, !dbg !977

bb26:                                             ; preds = %bb1
  %18 = ptrtoint ptr %src to i64, !dbg !979
  store i64 %18, ptr %_19, align 8, !dbg !979
  %19 = sub i64 %align, 1, !dbg !980
  store i64 %19, ptr %_20, align 8, !dbg !980
  %20 = load i64, ptr %_19, align 8, !dbg !981
  %21 = load i64, ptr %_20, align 8, !dbg !981
  %22 = and i64 %20, %21, !dbg !981
  store i64 %22, ptr %_18, align 8, !dbg !981
  %23 = load i64, ptr %_18, align 8, !dbg !982
  %24 = icmp eq i64 %23, 0, !dbg !982
  br i1 %24, label %bb27, label %bb11, !dbg !982

bb15:                                             ; preds = %bb2, %bb1
  store ptr @alloc_e92e94d0ff530782b571cfd99ec66aef, ptr %_17, align 8, !dbg !983
  %25 = getelementptr inbounds i8, ptr %_17, i64 8, !dbg !983
  store i64 1, ptr %25, align 8, !dbg !983
  %26 = load ptr, ptr @anon.60f91fde1ce0e38296af11bc775d42ab.0, align 8, !dbg !983
  %27 = load i64, ptr getelementptr inbounds (i8, ptr @anon.60f91fde1ce0e38296af11bc775d42ab.0, i64 8), align 8, !dbg !983
  %28 = getelementptr inbounds i8, ptr %_17, i64 32, !dbg !983
  store ptr %26, ptr %28, align 8, !dbg !983
  %29 = getelementptr inbounds i8, ptr %28, i64 8, !dbg !983
  store i64 %27, ptr %29, align 8, !dbg !983
  %30 = getelementptr inbounds i8, ptr %_17, i64 16, !dbg !983
  store ptr inttoptr (i64 8 to ptr), ptr %30, align 8, !dbg !983
  %31 = getelementptr inbounds i8, ptr %30, i64 8, !dbg !983
  store i64 0, ptr %31, align 8, !dbg !983
; invoke core::panicking::panic_fmt
  invoke void @_ZN4core9panicking9panic_fmt17hc8737e8cca20a7c8E(ptr align 8 %_17, ptr align 8 @alloc_7dfa5b04edcaa6d5675eb0d888192370) #19
          to label %unreachable unwind label %terminate, !dbg !969

bb27:                                             ; preds = %bb26
  br label %bb12, !dbg !984

bb11:                                             ; preds = %bb14, %bb26
  br label %bb6, !dbg !875

bb12:                                             ; preds = %bb10, %bb27
  br label %bb3, !dbg !875

bb14:                                             ; preds = %bb2
  %32 = ptrtoint ptr %src to i64, !dbg !979
  store i64 %32, ptr %_19, align 8, !dbg !979
  %33 = sub i64 %align, 1, !dbg !980
  store i64 %33, ptr %_20, align 8, !dbg !980
  %34 = load i64, ptr %_19, align 8, !dbg !981
  %35 = load i64, ptr %_20, align 8, !dbg !981
  %36 = and i64 %34, %35, !dbg !981
  store i64 %36, ptr %_18, align 8, !dbg !981
  %37 = load i64, ptr %_18, align 8, !dbg !982
  %38 = icmp eq i64 %37, 0, !dbg !982
  br i1 %38, label %bb10, label %bb11, !dbg !982

bb10:                                             ; preds = %bb14
  %39 = load i8, ptr %is_zst, align 1, !dbg !984
  %40 = trunc nuw i8 %39 to i1, !dbg !984
  br i1 %40, label %bb12, label %bb13, !dbg !984

bb13:                                             ; preds = %bb10
  %41 = load i64, ptr %_19, align 8, !dbg !985
  %_15 = icmp eq i64 %41, 0, !dbg !985
  %_8 = xor i1 %_15, true, !dbg !994
  br i1 %_8, label %bb3, label %bb6, !dbg !875

bb6:                                              ; preds = %bb11, %bb13
  br label %bb7, !dbg !995

bb3:                                              ; preds = %bb12, %bb13
  store ptr %dst, ptr %ptr.dbg.spill, align 8, !dbg !998
    #dbg_declare(ptr %ptr.dbg.spill, !866, !DIExpression(), !999)
    #dbg_declare(ptr %ptr.dbg.spill, !876, !DIExpression(), !933)
    #dbg_declare(ptr %ptr.dbg.spill, !885, !DIExpression(), !1000)
    #dbg_declare(ptr %ptr.dbg.spill, !897, !DIExpression(), !1001)
    #dbg_declare(ptr %ptr.dbg.spill, !904, !DIExpression(), !1003)
    #dbg_declare(ptr %ptr.dbg.spill, !913, !DIExpression(), !1006)
    #dbg_declare(ptr %ptr.dbg.spill, !925, !DIExpression(), !1008)
  %42 = load i8, ptr %zero_size, align 1, !dbg !1009
  %is_zst3 = trunc nuw i8 %42 to i1, !dbg !1009
  %43 = zext i1 %is_zst3 to i8, !dbg !1009
  store i8 %43, ptr %is_zst.dbg.spill, align 1, !dbg !1009
    #dbg_declare(ptr %is_zst.dbg.spill, !873, !DIExpression(), !1010)
    #dbg_declare(ptr %is_zst.dbg.spill, !881, !DIExpression(), !933)
  %44 = call i64 @llvm.ctpop.i64(i64 %align), !dbg !1011
  %45 = trunc i64 %44 to i32, !dbg !1011
  store i32 %45, ptr %0, align 4, !dbg !1011
  %_29 = load i32, ptr %0, align 4, !dbg !1011
  %46 = icmp eq i32 %_29, 1, !dbg !1012
  br i1 %46, label %bb21, label %bb22, !dbg !1012

bb21:                                             ; preds = %bb3
  %_28 = ptrtoint ptr %dst to i64, !dbg !1013
  %47 = load i64, ptr %_20, align 8, !dbg !1014
  %_27 = and i64 %_28, %47, !dbg !1014
  %48 = icmp eq i64 %_27, 0, !dbg !1015
  br i1 %48, label %bb17, label %bb18, !dbg !1015

bb22:                                             ; preds = %bb3
  store ptr @alloc_e92e94d0ff530782b571cfd99ec66aef, ptr %_26, align 8, !dbg !1016
  %49 = getelementptr inbounds i8, ptr %_26, i64 8, !dbg !1016
  store i64 1, ptr %49, align 8, !dbg !1016
  %50 = load ptr, ptr @anon.60f91fde1ce0e38296af11bc775d42ab.0, align 8, !dbg !1016
  %51 = load i64, ptr getelementptr inbounds (i8, ptr @anon.60f91fde1ce0e38296af11bc775d42ab.0, i64 8), align 8, !dbg !1016
  %52 = getelementptr inbounds i8, ptr %_26, i64 32, !dbg !1016
  store ptr %50, ptr %52, align 8, !dbg !1016
  %53 = getelementptr inbounds i8, ptr %52, i64 8, !dbg !1016
  store i64 %51, ptr %53, align 8, !dbg !1016
  %54 = getelementptr inbounds i8, ptr %_26, i64 16, !dbg !1016
  store ptr inttoptr (i64 8 to ptr), ptr %54, align 8, !dbg !1016
  %55 = getelementptr inbounds i8, ptr %54, i64 8, !dbg !1016
  store i64 0, ptr %55, align 8, !dbg !1016
; invoke core::panicking::panic_fmt
  invoke void @_ZN4core9panicking9panic_fmt17hc8737e8cca20a7c8E(ptr align 8 %_26, ptr align 8 @alloc_7dfa5b04edcaa6d5675eb0d888192370) #19
          to label %unreachable unwind label %terminate, !dbg !1017

bb17:                                             ; preds = %bb21
  br i1 %is_zst3, label %bb19, label %bb20, !dbg !1018

bb18:                                             ; preds = %bb21
  br label %bb5, !dbg !932

bb20:                                             ; preds = %bb17
  %_24 = icmp eq i64 %_28, 0, !dbg !1019
  %_11 = xor i1 %_24, true, !dbg !1022
  br i1 %_11, label %bb4, label %bb5, !dbg !932

bb19:                                             ; preds = %bb17
  br label %bb4, !dbg !932

bb5:                                              ; preds = %bb18, %bb20
  br label %bb7, !dbg !995

bb4:                                              ; preds = %bb19, %bb20
; invoke core::ub_checks::maybe_is_nonoverlapping::runtime
  %_6 = invoke zeroext i1 @_ZN4core9ub_checks23maybe_is_nonoverlapping7runtime17hebb4019edb443973E(ptr %src, ptr %dst, i64 %size, i64 %count)
          to label %bb24 unwind label %terminate, !dbg !1023

terminate:                                        ; preds = %bb15, %bb22, %bb4
  %56 = landingpad { ptr, i32 }
          filter [0 x ptr] zeroinitializer
  %57 = extractvalue { ptr, i32 } %56, 0
  %58 = extractvalue { ptr, i32 } %56, 1
; call core::panicking::panic_cannot_unwind
  call void @_ZN4core9panicking19panic_cannot_unwind17hb8732afd89555502E() #21, !dbg !1025
  unreachable, !dbg !1025

bb24:                                             ; preds = %bb4
  br i1 %_6, label %bb9, label %bb8, !dbg !1026

bb8:                                              ; preds = %bb7, %bb24
; call core::panicking::panic_nounwind
  call void @_ZN4core9panicking14panic_nounwind17h0c59dc9f7f043eadE(ptr align 1 @alloc_bd3468a7b96187f70c1ce98a3e7a63bf, i64 283) #18, !dbg !1027
  unreachable, !dbg !1027

bb9:                                              ; preds = %bb24
  ret void, !dbg !1028

bb7:                                              ; preds = %bb6, %bb5
  br label %bb8, !dbg !1026

unreachable:                                      ; preds = %bb15, %bb22
  unreachable
}

; core::intrinsics::is_val_statically_known
; Function Attrs: nounwind nonlazybind uwtable
define internal zeroext i1 @_ZN4core10intrinsics23is_val_statically_known17h88b8ff31f9676f6cE(i1 zeroext %_arg) unnamed_addr #4 !dbg !1029 {
start:
  %_arg.dbg.spill = alloca [1 x i8], align 1
  %0 = zext i1 %_arg to i8
  store i8 %0, ptr %_arg.dbg.spill, align 1
    #dbg_declare(ptr %_arg.dbg.spill, !1033, !DIExpression(), !1036)
  ret i1 false, !dbg !1037
}

; core::intrinsics::cold_path
; Function Attrs: cold nounwind nonlazybind uwtable
define internal void @_ZN4core10intrinsics9cold_path17h2bde8da288c2bb50E() unnamed_addr #5 !dbg !1038 {
start:
  ret void, !dbg !1039
}

; core::fmt::rt::<impl core::fmt::Arguments>::new_v1_formatted
; Function Attrs: inlinehint nonlazybind uwtable
define internal void @"_ZN4core3fmt2rt38_$LT$impl$u20$core..fmt..Arguments$GT$16new_v1_formatted17h36120e5c518583c7E"(ptr sret([48 x i8]) align 8 %_0, ptr align 8 %pieces.0, i64 %pieces.1, ptr align 8 %args.0, i64 %args.1, ptr align 8 %fmt.0, i64 %fmt.1) unnamed_addr #1 !dbg !1040 {
start:
  %_4.dbg.spill = alloca [0 x i8], align 1
  %fmt.dbg.spill = alloca [16 x i8], align 8
  %args.dbg.spill = alloca [16 x i8], align 8
  %pieces.dbg.spill = alloca [16 x i8], align 8
  %_5 = alloca [16 x i8], align 8
  store ptr %pieces.0, ptr %pieces.dbg.spill, align 8
  %0 = getelementptr inbounds i8, ptr %pieces.dbg.spill, i64 8
  store i64 %pieces.1, ptr %0, align 8
    #dbg_declare(ptr %pieces.dbg.spill, !1048, !DIExpression(), !1052)
  store ptr %args.0, ptr %args.dbg.spill, align 8
  %1 = getelementptr inbounds i8, ptr %args.dbg.spill, i64 8
  store i64 %args.1, ptr %1, align 8
    #dbg_declare(ptr %args.dbg.spill, !1049, !DIExpression(), !1053)
  store ptr %fmt.0, ptr %fmt.dbg.spill, align 8
  %2 = getelementptr inbounds i8, ptr %fmt.dbg.spill, i64 8
  store i64 %fmt.1, ptr %2, align 8
    #dbg_declare(ptr %fmt.dbg.spill, !1050, !DIExpression(), !1054)
    #dbg_declare(ptr %_4.dbg.spill, !1051, !DIExpression(), !1055)
  store ptr %fmt.0, ptr %_5, align 8, !dbg !1056
  %3 = getelementptr inbounds i8, ptr %_5, i64 8, !dbg !1056
  store i64 %fmt.1, ptr %3, align 8, !dbg !1056
  store ptr %pieces.0, ptr %_0, align 8, !dbg !1057
  %4 = getelementptr inbounds i8, ptr %_0, i64 8, !dbg !1057
  store i64 %pieces.1, ptr %4, align 8, !dbg !1057
  %5 = load ptr, ptr %_5, align 8, !dbg !1057
  %6 = getelementptr inbounds i8, ptr %_5, i64 8, !dbg !1057
  %7 = load i64, ptr %6, align 8, !dbg !1057
  %8 = getelementptr inbounds i8, ptr %_0, i64 32, !dbg !1057
  store ptr %5, ptr %8, align 8, !dbg !1057
  %9 = getelementptr inbounds i8, ptr %8, i64 8, !dbg !1057
  store i64 %7, ptr %9, align 8, !dbg !1057
  %10 = getelementptr inbounds i8, ptr %_0, i64 16, !dbg !1057
  store ptr %args.0, ptr %10, align 8, !dbg !1057
  %11 = getelementptr inbounds i8, ptr %10, i64 8, !dbg !1057
  store i64 %args.1, ptr %11, align 8, !dbg !1057
  ret void, !dbg !1058
}

; core::fmt::rt::<impl core::fmt::Arguments>::new_v1
; Function Attrs: inlinehint nonlazybind uwtable
define internal void @"_ZN4core3fmt2rt38_$LT$impl$u20$core..fmt..Arguments$GT$6new_v117h3310bc1763e8292bE"(ptr sret([48 x i8]) align 8 %_0, ptr align 8 %pieces, ptr align 8 %args) unnamed_addr #1 !dbg !1059 {
start:
  %args.dbg.spill = alloca [8 x i8], align 8
  %pieces.dbg.spill = alloca [8 x i8], align 8
  store ptr %pieces, ptr %pieces.dbg.spill, align 8
    #dbg_declare(ptr %pieces.dbg.spill, !1070, !DIExpression(), !1072)
  store ptr %args, ptr %args.dbg.spill, align 8
    #dbg_declare(ptr %args.dbg.spill, !1071, !DIExpression(), !1073)
  store ptr %pieces, ptr %_0, align 8, !dbg !1074
  %0 = getelementptr inbounds i8, ptr %_0, i64 8, !dbg !1074
  store i64 2, ptr %0, align 8, !dbg !1074
  %1 = load ptr, ptr @anon.60f91fde1ce0e38296af11bc775d42ab.0, align 8, !dbg !1074
  %2 = load i64, ptr getelementptr inbounds (i8, ptr @anon.60f91fde1ce0e38296af11bc775d42ab.0, i64 8), align 8, !dbg !1074
  %3 = getelementptr inbounds i8, ptr %_0, i64 32, !dbg !1074
  store ptr %1, ptr %3, align 8, !dbg !1074
  %4 = getelementptr inbounds i8, ptr %3, i64 8, !dbg !1074
  store i64 %2, ptr %4, align 8, !dbg !1074
  %5 = getelementptr inbounds i8, ptr %_0, i64 16, !dbg !1074
  store ptr %args, ptr %5, align 8, !dbg !1074
  %6 = getelementptr inbounds i8, ptr %5, i64 8, !dbg !1074
  store i64 1, ptr %6, align 8, !dbg !1074
  ret void, !dbg !1075
}

; core::fmt::rt::<impl core::fmt::Arguments>::new_const
; Function Attrs: inlinehint nonlazybind uwtable
define internal void @"_ZN4core3fmt2rt38_$LT$impl$u20$core..fmt..Arguments$GT$9new_const17hc573b28f3f795a88E"(ptr sret([48 x i8]) align 8 %_0, ptr align 8 %pieces) unnamed_addr #1 !dbg !1076 {
start:
  %pieces.dbg.spill = alloca [8 x i8], align 8
  store ptr %pieces, ptr %pieces.dbg.spill, align 8
    #dbg_declare(ptr %pieces.dbg.spill, !1078, !DIExpression(), !1079)
  store ptr %pieces, ptr %_0, align 8, !dbg !1080
  %0 = getelementptr inbounds i8, ptr %_0, i64 8, !dbg !1080
  store i64 1, ptr %0, align 8, !dbg !1080
  %1 = load ptr, ptr @anon.60f91fde1ce0e38296af11bc775d42ab.0, align 8, !dbg !1080
  %2 = load i64, ptr getelementptr inbounds (i8, ptr @anon.60f91fde1ce0e38296af11bc775d42ab.0, i64 8), align 8, !dbg !1080
  %3 = getelementptr inbounds i8, ptr %_0, i64 32, !dbg !1080
  store ptr %1, ptr %3, align 8, !dbg !1080
  %4 = getelementptr inbounds i8, ptr %3, i64 8, !dbg !1080
  store i64 %2, ptr %4, align 8, !dbg !1080
  %5 = getelementptr inbounds i8, ptr %_0, i64 16, !dbg !1080
  store ptr inttoptr (i64 8 to ptr), ptr %5, align 8, !dbg !1080
  %6 = getelementptr inbounds i8, ptr %5, i64 8, !dbg !1080
  store i64 0, ptr %6, align 8, !dbg !1080
  ret void, !dbg !1081
}

; core::fmt::rt::Argument::new_display
; Function Attrs: inlinehint nonlazybind uwtable
define internal void @_ZN4core3fmt2rt8Argument11new_display17h0b20c07f85fd69e9E(ptr sret([16 x i8]) align 8 %_0, ptr align 8 %x) unnamed_addr #1 !dbg !1082 {
start:
  %x.dbg.spill = alloca [8 x i8], align 8
  %_2 = alloca [16 x i8], align 8
  store ptr %x, ptr %x.dbg.spill, align 8
    #dbg_declare(ptr %x.dbg.spill, !1088, !DIExpression(), !1089)
    #dbg_declare(ptr %x.dbg.spill, !1090, !DIExpression(), !1100)
  store ptr %x, ptr %_2, align 8, !dbg !1102
  %0 = getelementptr inbounds i8, ptr %_2, i64 8, !dbg !1102
  store ptr @"_ZN60_$LT$alloc..string..String$u20$as$u20$core..fmt..Display$GT$3fmt17h7376670bf6bc4028E", ptr %0, align 8, !dbg !1102
  call void @llvm.memcpy.p0.p0.i64(ptr align 8 %_0, ptr align 8 %_2, i64 16, i1 false), !dbg !1103
  ret void, !dbg !1104
}

; core::fmt::rt::Argument::new_display
; Function Attrs: inlinehint nonlazybind uwtable
define internal void @_ZN4core3fmt2rt8Argument11new_display17ha0da6a3b3933be70E(ptr sret([16 x i8]) align 8 %_0, ptr align 4 %x) unnamed_addr #1 !dbg !1105 {
start:
  %x.dbg.spill = alloca [8 x i8], align 8
  %_2 = alloca [16 x i8], align 8
  store ptr %x, ptr %x.dbg.spill, align 8
    #dbg_declare(ptr %x.dbg.spill, !1114, !DIExpression(), !1115)
    #dbg_declare(ptr %x.dbg.spill, !1116, !DIExpression(), !1126)
  store ptr %x, ptr %_2, align 8, !dbg !1128
  %0 = getelementptr inbounds i8, ptr %_2, i64 8, !dbg !1128
  store ptr @"_ZN4core3fmt5float52_$LT$impl$u20$core..fmt..Display$u20$for$u20$f32$GT$3fmt17h689a0ad65fc37b66E", ptr %0, align 8, !dbg !1128
  call void @llvm.memcpy.p0.p0.i64(ptr align 8 %_0, ptr align 8 %_2, i64 16, i1 false), !dbg !1129
  ret void, !dbg !1130
}

; core::fmt::rt::Argument::new_debug
; Function Attrs: inlinehint nonlazybind uwtable
define internal void @_ZN4core3fmt2rt8Argument9new_debug17h8fe35030c9cd4ffeE(ptr sret([16 x i8]) align 8 %_0, ptr align 8 %x) unnamed_addr #1 !dbg !1131 {
start:
  %x.dbg.spill = alloca [8 x i8], align 8
  %_2 = alloca [16 x i8], align 8
  store ptr %x, ptr %x.dbg.spill, align 8
    #dbg_declare(ptr %x.dbg.spill, !1149, !DIExpression(), !1150)
    #dbg_declare(ptr %x.dbg.spill, !1151, !DIExpression(), !1161)
  store ptr %x, ptr %_2, align 8, !dbg !1163
  %0 = getelementptr inbounds i8, ptr %_2, i64 8, !dbg !1163
  store ptr @"_ZN65_$LT$alloc..vec..Vec$LT$T$C$A$GT$$u20$as$u20$core..fmt..Debug$GT$3fmt17h068488af790689e2E", ptr %0, align 8, !dbg !1163
  call void @llvm.memcpy.p0.p0.i64(ptr align 8 %_0, ptr align 8 %_2, i64 16, i1 false), !dbg !1164
  ret void, !dbg !1165
}

; core::fmt::rt::UnsafeArg::new
; Function Attrs: inlinehint nonlazybind uwtable
define internal void @_ZN4core3fmt2rt9UnsafeArg3new17hbd5e73f092995f77E() unnamed_addr #1 !dbg !1166 {
start:
  ret void, !dbg !1168
}

; core::fmt::num::<impl core::fmt::Debug for u32>::fmt
; Function Attrs: inlinehint nonlazybind uwtable
define internal zeroext i1 @"_ZN4core3fmt3num50_$LT$impl$u20$core..fmt..Debug$u20$for$u20$u32$GT$3fmt17h9a8837f6fe138309E"(ptr align 4 %self, ptr align 8 %f) unnamed_addr #1 !dbg !1169 {
start:
  %f.dbg.spill = alloca [8 x i8], align 8
  %self.dbg.spill = alloca [8 x i8], align 8
  %_0 = alloca [1 x i8], align 1
  store ptr %self, ptr %self.dbg.spill, align 8
    #dbg_declare(ptr %self.dbg.spill, !1176, !DIExpression(), !1178)
  store ptr %f, ptr %f.dbg.spill, align 8
    #dbg_declare(ptr %f.dbg.spill, !1177, !DIExpression(), !1179)
    #dbg_declare(ptr %f.dbg.spill, !1180, !DIExpression(), !1187)
    #dbg_declare(ptr %f.dbg.spill, !1189, !DIExpression(), !1193)
  %0 = getelementptr inbounds i8, ptr %f, i64 16, !dbg !1195
  %_4 = load i32, ptr %0, align 8, !dbg !1195
  %_3 = and i32 %_4, 33554432, !dbg !1195
  %1 = icmp eq i32 %_3, 0, !dbg !1196
  br i1 %1, label %bb2, label %bb1, !dbg !1196

bb2:                                              ; preds = %start
  %2 = getelementptr inbounds i8, ptr %f, i64 16, !dbg !1197
  %_6 = load i32, ptr %2, align 8, !dbg !1197
  %_5 = and i32 %_6, 67108864, !dbg !1197
  %3 = icmp eq i32 %_5, 0, !dbg !1198
  br i1 %3, label %bb4, label %bb3, !dbg !1198

bb1:                                              ; preds = %start
; call core::fmt::num::<impl core::fmt::LowerHex for u32>::fmt
  %4 = call zeroext i1 @"_ZN4core3fmt3num53_$LT$impl$u20$core..fmt..LowerHex$u20$for$u20$u32$GT$3fmt17haf9a59fdde49fc3aE"(ptr align 4 %self, ptr align 8 %f), !dbg !1199
  %5 = zext i1 %4 to i8, !dbg !1199
  store i8 %5, ptr %_0, align 1, !dbg !1199
  br label %bb6, !dbg !1199

bb4:                                              ; preds = %bb2
; call core::fmt::num::imp::<impl core::fmt::Display for u32>::fmt
  %6 = call zeroext i1 @"_ZN4core3fmt3num3imp52_$LT$impl$u20$core..fmt..Display$u20$for$u20$u32$GT$3fmt17heae17e31cadbc382E"(ptr align 4 %self, ptr align 8 %f), !dbg !1200
  %7 = zext i1 %6 to i8, !dbg !1200
  store i8 %7, ptr %_0, align 1, !dbg !1200
  br label %bb5, !dbg !1200

bb3:                                              ; preds = %bb2
; call core::fmt::num::<impl core::fmt::UpperHex for u32>::fmt
  %8 = call zeroext i1 @"_ZN4core3fmt3num53_$LT$impl$u20$core..fmt..UpperHex$u20$for$u20$u32$GT$3fmt17hfdb3aac080b97f7cE"(ptr align 4 %self, ptr align 8 %f), !dbg !1201
  %9 = zext i1 %8 to i8, !dbg !1201
  store i8 %9, ptr %_0, align 1, !dbg !1201
  br label %bb5, !dbg !1201

bb5:                                              ; preds = %bb3, %bb4
  br label %bb6, !dbg !1202

bb6:                                              ; preds = %bb1, %bb5
  %10 = load i8, ptr %_0, align 1, !dbg !1203
  %11 = trunc nuw i8 %10 to i1, !dbg !1203
  ret i1 %11, !dbg !1203
}

; core::fmt::Write::write_fmt
; Function Attrs: nonlazybind uwtable
define internal zeroext i1 @_ZN4core3fmt5Write9write_fmt17h4aaf63cab02d5a3dE(ptr align 8 %self, ptr align 8 %args) unnamed_addr #0 !dbg !1204 {
start:
  %self.dbg.spill = alloca [8 x i8], align 8
  store ptr %self, ptr %self.dbg.spill, align 8
    #dbg_declare(ptr %self.dbg.spill, !1210, !DIExpression(), !1214)
    #dbg_declare(ptr %args, !1211, !DIExpression(), !1215)
; call <&mut W as core::fmt::Write::write_fmt::SpecWriteFmt>::spec_write_fmt
  %_0 = call zeroext i1 @"_ZN75_$LT$$RF$mut$u20$W$u20$as$u20$core..fmt..Write..write_fmt..SpecWriteFmt$GT$14spec_write_fmt17h2aacf4e8b8fddd94E"(ptr align 8 %self, ptr align 8 %args), !dbg !1216
  ret i1 %_0, !dbg !1217
}

; core::fmt::builders::DebugList::entries
; Function Attrs: nonlazybind uwtable
define internal align 8 ptr @_ZN4core3fmt8builders9DebugList7entries17hdaa253f17173d77aE(ptr align 8 %self, ptr %entries.0, ptr %entries.1) unnamed_addr #0 personality ptr @rust_eh_personality !dbg !1218 {
start:
  %0 = alloca [16 x i8], align 8
  %entries.dbg.spill = alloca [16 x i8], align 8
  %self.dbg.spill = alloca [8 x i8], align 8
  %entry = alloca [8 x i8], align 8
  %_5 = alloca [8 x i8], align 8
  %iter = alloca [16 x i8], align 8
  store ptr %self, ptr %self.dbg.spill, align 8
    #dbg_declare(ptr %self.dbg.spill, !1236, !DIExpression(), !1242)
  store ptr %entries.0, ptr %entries.dbg.spill, align 8
  %1 = getelementptr inbounds i8, ptr %entries.dbg.spill, i64 8
  store ptr %entries.1, ptr %1, align 8
    #dbg_declare(ptr %entries.dbg.spill, !1237, !DIExpression(), !1243)
    #dbg_declare(ptr %iter, !1238, !DIExpression(), !1244)
    #dbg_declare(ptr %entry, !1240, !DIExpression(), !1245)
; call <I as core::iter::traits::collect::IntoIterator>::into_iter
  %2 = call { ptr, ptr } @"_ZN63_$LT$I$u20$as$u20$core..iter..traits..collect..IntoIterator$GT$9into_iter17h7369eaf5fd316751E"(ptr %entries.0, ptr %entries.1), !dbg !1246
  %_3.0 = extractvalue { ptr, ptr } %2, 0, !dbg !1246
  %_3.1 = extractvalue { ptr, ptr } %2, 1, !dbg !1246
  store ptr %_3.0, ptr %iter, align 8, !dbg !1246
  %3 = getelementptr inbounds i8, ptr %iter, i64 8, !dbg !1246
  store ptr %_3.1, ptr %3, align 8, !dbg !1246
  br label %bb2, !dbg !1247

bb2:                                              ; preds = %bb8, %start
; invoke <core::slice::iter::Iter<T> as core::iter::traits::iterator::Iterator>::next
  %4 = invoke align 4 ptr @"_ZN91_$LT$core..slice..iter..Iter$LT$T$GT$$u20$as$u20$core..iter..traits..iterator..Iterator$GT$4next17he4a239501b01a516E"(ptr align 8 %iter)
          to label %bb3 unwind label %cleanup, !dbg !1244

bb11:                                             ; preds = %bb10, %cleanup
  %5 = load ptr, ptr %0, align 8, !dbg !1248
  %6 = getelementptr inbounds i8, ptr %0, i64 8, !dbg !1248
  %7 = load i32, ptr %6, align 8, !dbg !1248
  %8 = insertvalue { ptr, i32 } poison, ptr %5, 0, !dbg !1248
  %9 = insertvalue { ptr, i32 } %8, i32 %7, 1, !dbg !1248
  resume { ptr, i32 } %9, !dbg !1248

cleanup:                                          ; preds = %bb2
  %10 = landingpad { ptr, i32 }
          cleanup
  %11 = extractvalue { ptr, i32 } %10, 0
  %12 = extractvalue { ptr, i32 } %10, 1
  store ptr %11, ptr %0, align 8
  %13 = getelementptr inbounds i8, ptr %0, i64 8
  store i32 %12, ptr %13, align 8
  br label %bb11

bb3:                                              ; preds = %bb2
  store ptr %4, ptr %_5, align 8, !dbg !1244
  %14 = load ptr, ptr %_5, align 8, !dbg !1244
  %15 = ptrtoint ptr %14 to i64, !dbg !1244
  %16 = icmp eq i64 %15, 0, !dbg !1244
  %_7 = select i1 %16, i64 0, i64 1, !dbg !1244
  %17 = trunc nuw i64 %_7 to i1, !dbg !1244
  br i1 %17, label %bb5, label %bb6, !dbg !1244

bb5:                                              ; preds = %bb3
  %18 = load ptr, ptr %_5, align 8, !dbg !1249
  store ptr %18, ptr %entry, align 8, !dbg !1249
; invoke core::fmt::builders::DebugList::entry
  %_9 = invoke align 8 ptr @_ZN4core3fmt8builders9DebugList5entry17h0d06b4ba5482333fE(ptr align 8 %self, ptr align 1 %entry, ptr align 8 @vtable.2)
          to label %bb7 unwind label %cleanup1, !dbg !1250

bb6:                                              ; preds = %bb3
  ret ptr %self, !dbg !1251

bb10:                                             ; preds = %cleanup1
  br label %bb11, !dbg !1252

cleanup1:                                         ; preds = %bb5
  %19 = landingpad { ptr, i32 }
          cleanup
  %20 = extractvalue { ptr, i32 } %19, 0
  %21 = extractvalue { ptr, i32 } %19, 1
  store ptr %20, ptr %0, align 8
  %22 = getelementptr inbounds i8, ptr %0, i64 8
  store i32 %21, ptr %22, align 8
  br label %bb10

bb7:                                              ; preds = %bb5
  br label %bb8, !dbg !1252

bb8:                                              ; preds = %bb7
  br label %bb2, !dbg !1247

bb4:                                              ; No predecessors!
  unreachable, !dbg !1244
}

; core::num::<impl u32>::unchecked_add::precondition_check
; Function Attrs: inlinehint nounwind nonlazybind uwtable
define internal void @"_ZN4core3num21_$LT$impl$u20$u32$GT$13unchecked_add18precondition_check17h258d4fee987fb047E"(i32 %lhs, i32 %rhs) unnamed_addr #2 !dbg !1253 {
start:
  %rhs.dbg.spill = alloca [4 x i8], align 4
  %lhs.dbg.spill = alloca [4 x i8], align 4
  store i32 %lhs, ptr %lhs.dbg.spill, align 4
    #dbg_declare(ptr %lhs.dbg.spill, !1258, !DIExpression(), !1260)
    #dbg_declare(ptr %lhs.dbg.spill, !1261, !DIExpression(), !1271)
  store i32 %rhs, ptr %rhs.dbg.spill, align 4
    #dbg_declare(ptr %rhs.dbg.spill, !1259, !DIExpression(), !1260)
    #dbg_declare(ptr %rhs.dbg.spill, !1270, !DIExpression(), !1274)
  %0 = call { i32, i1 } @llvm.uadd.with.overflow.i32(i32 %lhs, i32 %rhs), !dbg !1275
  %_5.0 = extractvalue { i32, i1 } %0, 0, !dbg !1275
  %_5.1 = extractvalue { i32, i1 } %0, 1, !dbg !1275
  br i1 %_5.1, label %bb1, label %bb2, !dbg !1276

bb2:                                              ; preds = %start
  ret void, !dbg !1277

bb1:                                              ; preds = %start
; call core::panicking::panic_nounwind
  call void @_ZN4core9panicking14panic_nounwind17h0c59dc9f7f043eadE(ptr align 1 @alloc_a6a0cc8156fe455996de64a9d05b1dfe, i64 184) #18, !dbg !1278
  unreachable, !dbg !1278
}

; core::num::<impl usize>::checked_add
; Function Attrs: inlinehint nonlazybind uwtable
define internal { i64, i64 } @"_ZN4core3num23_$LT$impl$u20$usize$GT$11checked_add17h27745c6a219cd020E"(i64 %self, i64 %rhs) unnamed_addr #1 !dbg !1279 {
start:
  %b.dbg.spill = alloca [1 x i8], align 1
  %rhs.dbg.spill = alloca [8 x i8], align 8
  %self.dbg.spill = alloca [8 x i8], align 8
  %_0 = alloca [16 x i8], align 8
  store i64 %self, ptr %self.dbg.spill, align 8
    #dbg_declare(ptr %self.dbg.spill, !1283, !DIExpression(), !1285)
  store i64 %rhs, ptr %rhs.dbg.spill, align 8
    #dbg_declare(ptr %rhs.dbg.spill, !1284, !DIExpression(), !1286)
  %0 = call { i64, i1 } @llvm.uadd.with.overflow.i64(i64 %self, i64 %rhs), !dbg !1287
  %_4.0 = extractvalue { i64, i1 } %0, 0, !dbg !1287
  %_4.1 = extractvalue { i64, i1 } %0, 1, !dbg !1287
  %1 = zext i1 %_4.1 to i8, !dbg !1287
  store i8 %1, ptr %b.dbg.spill, align 1, !dbg !1287
    #dbg_declare(ptr %b.dbg.spill, !1288, !DIExpression(), !1291)
  br i1 %_4.1, label %bb2, label %bb4, !dbg !1293

bb4:                                              ; preds = %start
  %_5 = add nuw i64 %self, %rhs, !dbg !1294
  %2 = getelementptr inbounds i8, ptr %_0, i64 8, !dbg !1295
  store i64 %_5, ptr %2, align 8, !dbg !1295
  store i64 1, ptr %_0, align 8, !dbg !1295
  br label %bb1, !dbg !1296

bb2:                                              ; preds = %start
  %3 = load i64, ptr @anon.60f91fde1ce0e38296af11bc775d42ab.0, align 8, !dbg !1297
  %4 = load i64, ptr getelementptr inbounds (i8, ptr @anon.60f91fde1ce0e38296af11bc775d42ab.0, i64 8), align 8, !dbg !1297
  store i64 %3, ptr %_0, align 8, !dbg !1297
  %5 = getelementptr inbounds i8, ptr %_0, i64 8, !dbg !1297
  store i64 %4, ptr %5, align 8, !dbg !1297
  br label %bb1, !dbg !1296

bb1:                                              ; preds = %bb2, %bb4
  %6 = load i64, ptr %_0, align 8, !dbg !1298
  %7 = getelementptr inbounds i8, ptr %_0, i64 8, !dbg !1298
  %8 = load i64, ptr %7, align 8, !dbg !1298
  %9 = insertvalue { i64, i64 } poison, i64 %6, 0, !dbg !1298
  %10 = insertvalue { i64, i64 } %9, i64 %8, 1, !dbg !1298
  ret { i64, i64 } %10, !dbg !1298
}

; core::num::<impl usize>::unchecked_add::precondition_check
; Function Attrs: inlinehint nounwind nonlazybind uwtable
define internal void @"_ZN4core3num23_$LT$impl$u20$usize$GT$13unchecked_add18precondition_check17hbfde80d01f628a5bE"(i64 %lhs, i64 %rhs) unnamed_addr #2 !dbg !1299 {
start:
  %rhs.dbg.spill = alloca [8 x i8], align 8
  %lhs.dbg.spill = alloca [8 x i8], align 8
  store i64 %lhs, ptr %lhs.dbg.spill, align 8
    #dbg_declare(ptr %lhs.dbg.spill, !1304, !DIExpression(), !1306)
    #dbg_declare(ptr %lhs.dbg.spill, !1307, !DIExpression(), !1317)
  store i64 %rhs, ptr %rhs.dbg.spill, align 8
    #dbg_declare(ptr %rhs.dbg.spill, !1305, !DIExpression(), !1306)
    #dbg_declare(ptr %rhs.dbg.spill, !1316, !DIExpression(), !1320)
  %0 = call { i64, i1 } @llvm.uadd.with.overflow.i64(i64 %lhs, i64 %rhs), !dbg !1321
  %_5.0 = extractvalue { i64, i1 } %0, 0, !dbg !1321
  %_5.1 = extractvalue { i64, i1 } %0, 1, !dbg !1321
  br i1 %_5.1, label %bb1, label %bb2, !dbg !1322

bb2:                                              ; preds = %start
  ret void, !dbg !1323

bb1:                                              ; preds = %start
; call core::panicking::panic_nounwind
  call void @_ZN4core9panicking14panic_nounwind17h0c59dc9f7f043eadE(ptr align 1 @alloc_3e1ebac14318b612ab4efabc52799932, i64 186) #18, !dbg !1324
  unreachable, !dbg !1324
}

; core::ops::function::FnMut::call_mut
; Function Attrs: inlinehint nonlazybind uwtable
define internal { i64, i64 } @_ZN4core3ops8function5FnMut8call_mut17h65bb3e4f9c8cdaefE(ptr align 1 %_1, i64 %0, i64 %1) unnamed_addr #1 !dbg !1325 {
start:
  %_1.dbg.spill = alloca [8 x i8], align 8
  %_2 = alloca [16 x i8], align 8
  store i64 %0, ptr %_2, align 8
  %2 = getelementptr inbounds i8, ptr %_2, i64 8
  store i64 %1, ptr %2, align 8
  store ptr %_1, ptr %_1.dbg.spill, align 8
    #dbg_declare(ptr %_1.dbg.spill, !1335, !DIExpression(), !1344)
    #dbg_declare(ptr %_2, !1336, !DIExpression(), !1344)
  %3 = load i64, ptr %_2, align 8, !dbg !1344
  %4 = getelementptr inbounds i8, ptr %_2, i64 8, !dbg !1344
  %5 = load i64, ptr %4, align 8, !dbg !1344
; call core::num::<impl usize>::checked_add
  %6 = call { i64, i64 } @"_ZN4core3num23_$LT$impl$u20$usize$GT$11checked_add17h27745c6a219cd020E"(i64 %3, i64 %5), !dbg !1344
  %_0.0 = extractvalue { i64, i64 } %6, 0, !dbg !1344
  %_0.1 = extractvalue { i64, i64 } %6, 1, !dbg !1344
  %7 = insertvalue { i64, i64 } poison, i64 %_0.0, 0, !dbg !1344
  %8 = insertvalue { i64, i64 } %7, i64 %_0.1, 1, !dbg !1344
  ret { i64, i64 } %8, !dbg !1344
}

; core::ops::function::FnOnce::call_once{{vtable.shim}}
; Function Attrs: inlinehint nonlazybind uwtable
define internal i32 @"_ZN4core3ops8function6FnOnce40call_once$u7b$$u7b$vtable.shim$u7d$$u7d$17h2c4b924c667f85d6E"(ptr %_1) unnamed_addr #1 !dbg !1345 {
start:
  %_1.dbg.spill = alloca [8 x i8], align 8
  %_2 = alloca [0 x i8], align 1
  store ptr %_1, ptr %_1.dbg.spill, align 8
    #dbg_declare(ptr %_1.dbg.spill, !1351, !DIExpression(), !1356)
    #dbg_declare(ptr %_2, !1352, !DIExpression(), !1356)
  %0 = load ptr, ptr %_1, align 8, !dbg !1356
; call core::ops::function::FnOnce::call_once
  %_0 = call i32 @_ZN4core3ops8function6FnOnce9call_once17h88734129ad614a8eE(ptr %0), !dbg !1356
  ret i32 %_0, !dbg !1356
}

; core::ops::function::FnOnce::call_once
; Function Attrs: inlinehint nonlazybind uwtable
define internal void @_ZN4core3ops8function6FnOnce9call_once17h44661120698f704fE(ptr %_1) unnamed_addr #1 !dbg !1357 {
start:
  %_1.dbg.spill = alloca [8 x i8], align 8
  %_2 = alloca [0 x i8], align 1
  store ptr %_1, ptr %_1.dbg.spill, align 8
    #dbg_declare(ptr %_1.dbg.spill, !1359, !DIExpression(), !1363)
    #dbg_declare(ptr %_2, !1360, !DIExpression(), !1363)
  call void %_1(), !dbg !1363
  ret void, !dbg !1363
}

; core::ops::function::FnOnce::call_once
; Function Attrs: inlinehint nonlazybind uwtable
define internal i32 @_ZN4core3ops8function6FnOnce9call_once17h88734129ad614a8eE(ptr %0) unnamed_addr #1 personality ptr @rust_eh_personality !dbg !1364 {
start:
  %1 = alloca [16 x i8], align 8
  %_2 = alloca [0 x i8], align 1
  %_1 = alloca [8 x i8], align 8
  store ptr %0, ptr %_1, align 8
    #dbg_declare(ptr %_1, !1368, !DIExpression(), !1370)
    #dbg_declare(ptr %_2, !1369, !DIExpression(), !1370)
; invoke std::rt::lang_start::{{closure}}
  %_0 = invoke i32 @"_ZN3std2rt10lang_start28_$u7b$$u7b$closure$u7d$$u7d$17h7bca82e2071632c2E"(ptr align 8 %_1)
          to label %bb1 unwind label %cleanup, !dbg !1370

bb3:                                              ; preds = %cleanup
  %2 = load ptr, ptr %1, align 8, !dbg !1370
  %3 = getelementptr inbounds i8, ptr %1, i64 8, !dbg !1370
  %4 = load i32, ptr %3, align 8, !dbg !1370
  %5 = insertvalue { ptr, i32 } poison, ptr %2, 0, !dbg !1370
  %6 = insertvalue { ptr, i32 } %5, i32 %4, 1, !dbg !1370
  resume { ptr, i32 } %6, !dbg !1370

cleanup:                                          ; preds = %start
  %7 = landingpad { ptr, i32 }
          cleanup
  %8 = extractvalue { ptr, i32 } %7, 0
  %9 = extractvalue { ptr, i32 } %7, 1
  store ptr %8, ptr %1, align 8
  %10 = getelementptr inbounds i8, ptr %1, i64 8
  store i32 %9, ptr %10, align 8
  br label %bb3

bb1:                                              ; preds = %start
  ret i32 %_0, !dbg !1370
}

; core::ptr::read_volatile::precondition_check
; Function Attrs: inlinehint nounwind nonlazybind uwtable
define internal void @_ZN4core3ptr13read_volatile18precondition_check17h041f35cab5155cfaE(ptr %addr, i64 %align, i1 zeroext %is_zst) unnamed_addr #2 personality ptr @rust_eh_personality !dbg !1371 {
start:
  %0 = alloca [4 x i8], align 4
  %pieces.dbg.spill = alloca [8 x i8], align 8
  %is_zst.dbg.spill = alloca [1 x i8], align 1
  %align.dbg.spill = alloca [8 x i8], align 8
  %addr.dbg.spill = alloca [8 x i8], align 8
  %_8 = alloca [48 x i8], align 8
  store ptr %addr, ptr %addr.dbg.spill, align 8
    #dbg_declare(ptr %addr.dbg.spill, !1376, !DIExpression(), !1379)
    #dbg_declare(ptr %addr.dbg.spill, !1380, !DIExpression(), !1385)
    #dbg_declare(ptr %addr.dbg.spill, !1388, !DIExpression(), !1393)
    #dbg_declare(ptr %addr.dbg.spill, !1396, !DIExpression(), !1400)
    #dbg_declare(ptr %addr.dbg.spill, !1403, !DIExpression(), !1406)
    #dbg_declare(ptr %addr.dbg.spill, !1408, !DIExpression(), !1411)
    #dbg_declare(ptr %addr.dbg.spill, !1413, !DIExpression(), !1416)
  store i64 %align, ptr %align.dbg.spill, align 8
    #dbg_declare(ptr %align.dbg.spill, !1377, !DIExpression(), !1379)
    #dbg_declare(ptr %align.dbg.spill, !1383, !DIExpression(), !1418)
    #dbg_declare(ptr %align.dbg.spill, !1391, !DIExpression(), !1393)
    #dbg_declare(ptr %align.dbg.spill, !1399, !DIExpression(), !1419)
    #dbg_declare(ptr %align.dbg.spill, !1420, !DIExpression(), !1423)
    #dbg_declare(ptr %align.dbg.spill, !1425, !DIExpression(), !1428)
  %1 = zext i1 %is_zst to i8
  store i8 %1, ptr %is_zst.dbg.spill, align 1
    #dbg_declare(ptr %is_zst.dbg.spill, !1378, !DIExpression(), !1379)
    #dbg_declare(ptr %is_zst.dbg.spill, !1384, !DIExpression(), !1430)
    #dbg_declare(ptr %is_zst.dbg.spill, !1392, !DIExpression(), !1393)
  store ptr @alloc_e92e94d0ff530782b571cfd99ec66aef, ptr %pieces.dbg.spill, align 8, !dbg !1431
    #dbg_declare(ptr %pieces.dbg.spill, !1434, !DIExpression(), !1431)
  %2 = call i64 @llvm.ctpop.i64(i64 %align), !dbg !1436
  %3 = trunc i64 %2 to i32, !dbg !1436
  store i32 %3, ptr %0, align 4, !dbg !1436
  %_12 = load i32, ptr %0, align 4, !dbg !1436
  %4 = icmp eq i32 %_12, 1, !dbg !1437
  br i1 %4, label %bb7, label %bb8, !dbg !1437

bb7:                                              ; preds = %start
  %_10 = ptrtoint ptr %addr to i64, !dbg !1438
  %_11 = sub i64 %align, 1, !dbg !1439
  %_9 = and i64 %_10, %_11, !dbg !1440
  %5 = icmp eq i64 %_9, 0, !dbg !1441
  br i1 %5, label %bb3, label %bb4, !dbg !1441

bb8:                                              ; preds = %start
  store ptr @alloc_e92e94d0ff530782b571cfd99ec66aef, ptr %_8, align 8, !dbg !1442
  %6 = getelementptr inbounds i8, ptr %_8, i64 8, !dbg !1442
  store i64 1, ptr %6, align 8, !dbg !1442
  %7 = load ptr, ptr @anon.60f91fde1ce0e38296af11bc775d42ab.0, align 8, !dbg !1442
  %8 = load i64, ptr getelementptr inbounds (i8, ptr @anon.60f91fde1ce0e38296af11bc775d42ab.0, i64 8), align 8, !dbg !1442
  %9 = getelementptr inbounds i8, ptr %_8, i64 32, !dbg !1442
  store ptr %7, ptr %9, align 8, !dbg !1442
  %10 = getelementptr inbounds i8, ptr %9, i64 8, !dbg !1442
  store i64 %8, ptr %10, align 8, !dbg !1442
  %11 = getelementptr inbounds i8, ptr %_8, i64 16, !dbg !1442
  store ptr inttoptr (i64 8 to ptr), ptr %11, align 8, !dbg !1442
  %12 = getelementptr inbounds i8, ptr %11, i64 8, !dbg !1442
  store i64 0, ptr %12, align 8, !dbg !1442
; invoke core::panicking::panic_fmt
  invoke void @_ZN4core9panicking9panic_fmt17hc8737e8cca20a7c8E(ptr align 8 %_8, ptr align 8 @alloc_7dfa5b04edcaa6d5675eb0d888192370) #19
          to label %unreachable unwind label %terminate, !dbg !1435

bb3:                                              ; preds = %bb7
  br i1 %is_zst, label %bb5, label %bb6, !dbg !1443

bb4:                                              ; preds = %bb7
  br label %bb2, !dbg !1386

bb6:                                              ; preds = %bb3
  %_6 = icmp eq i64 %_10, 0, !dbg !1444
  %_4 = xor i1 %_6, true, !dbg !1450
  br i1 %_4, label %bb1, label %bb2, !dbg !1386

bb5:                                              ; preds = %bb3
  br label %bb1, !dbg !1386

bb2:                                              ; preds = %bb4, %bb6
; call core::panicking::panic_nounwind
  call void @_ZN4core9panicking14panic_nounwind17h0c59dc9f7f043eadE(ptr align 1 @alloc_2dff866d8f4414dd3e87cf8872473df8, i64 227) #18, !dbg !1451
  unreachable, !dbg !1451

bb1:                                              ; preds = %bb5, %bb6
  ret void, !dbg !1452

terminate:                                        ; preds = %bb8
  %13 = landingpad { ptr, i32 }
          filter [0 x ptr] zeroinitializer
  %14 = extractvalue { ptr, i32 } %13, 0
  %15 = extractvalue { ptr, i32 } %13, 1
; call core::panicking::panic_cannot_unwind
  call void @_ZN4core9panicking19panic_cannot_unwind17hb8732afd89555502E() #21, !dbg !1453
  unreachable, !dbg !1453

unreachable:                                      ; preds = %bb8
  unreachable
}

; core::ptr::drop_in_place<alloc::vec::Vec<alloc::string::String>::extend_trusted<core::iter::adapters::map::Map<core::slice::iter::Iter<u32>,variables::fibonacci_sequence::{{closure}}>>::{{closure}}>
; Function Attrs: nonlazybind uwtable
define internal void @"_ZN4core3ptr251drop_in_place$LT$alloc..vec..Vec$LT$alloc..string..String$GT$..extend_trusted$LT$core..iter..adapters..map..Map$LT$core..slice..iter..Iter$LT$u32$GT$$C$variables..fibonacci_sequence..$u7b$$u7b$closure$u7d$$u7d$$GT$$GT$..$u7b$$u7b$closure$u7d$$u7d$$GT$17h229eca1f57fd8dc3E"(ptr align 8 %_1) unnamed_addr #0 !dbg !1454 {
start:
  %_1.dbg.spill = alloca [8 x i8], align 8
  store ptr %_1, ptr %_1.dbg.spill, align 8
    #dbg_declare(ptr %_1.dbg.spill, !1459, !DIExpression(), !1462)
; call core::ptr::drop_in_place<alloc::vec::set_len_on_drop::SetLenOnDrop>
  call void @"_ZN4core3ptr62drop_in_place$LT$alloc..vec..set_len_on_drop..SetLenOnDrop$GT$17h046f9d5687ad5782E"(ptr align 8 %_1), !dbg !1462
  ret void, !dbg !1462
}

; core::ptr::drop_in_place<&u32>
; Function Attrs: inlinehint nonlazybind uwtable
define internal void @"_ZN4core3ptr28drop_in_place$LT$$RF$u32$GT$17he1b3e0252e1e12feE"(ptr align 8 %_1) unnamed_addr #1 !dbg !1463 {
start:
  %_1.dbg.spill = alloca [8 x i8], align 8
  store ptr %_1, ptr %_1.dbg.spill, align 8
    #dbg_declare(ptr %_1.dbg.spill, !1468, !DIExpression(), !1469)
  ret void, !dbg !1469
}

; core::ptr::drop_in_place<core::iter::traits::iterator::Iterator::for_each::call<alloc::string::String,alloc::vec::Vec<alloc::string::String>::extend_trusted<core::iter::adapters::map::Map<core::slice::iter::Iter<u32>,variables::fibonacci_sequence::{{closure}}>>::{{closure}}>::{{closure}}>
; Function Attrs: nonlazybind uwtable
define internal void @"_ZN4core3ptr366drop_in_place$LT$core..iter..traits..iterator..Iterator..for_each..call$LT$alloc..string..String$C$alloc..vec..Vec$LT$alloc..string..String$GT$..extend_trusted$LT$core..iter..adapters..map..Map$LT$core..slice..iter..Iter$LT$u32$GT$$C$variables..fibonacci_sequence..$u7b$$u7b$closure$u7d$$u7d$$GT$$GT$..$u7b$$u7b$closure$u7d$$u7d$$GT$..$u7b$$u7b$closure$u7d$$u7d$$GT$17hf04d06336efcbd46E"(ptr align 8 %_1) unnamed_addr #0 !dbg !1470 {
start:
  %_1.dbg.spill = alloca [8 x i8], align 8
  store ptr %_1, ptr %_1.dbg.spill, align 8
    #dbg_declare(ptr %_1.dbg.spill, !1475, !DIExpression(), !1478)
; call core::ptr::drop_in_place<alloc::vec::Vec<alloc::string::String>::extend_trusted<core::iter::adapters::map::Map<core::slice::iter::Iter<u32>,variables::fibonacci_sequence::{{closure}}>>::{{closure}}>
  call void @"_ZN4core3ptr251drop_in_place$LT$alloc..vec..Vec$LT$alloc..string..String$GT$..extend_trusted$LT$core..iter..adapters..map..Map$LT$core..slice..iter..Iter$LT$u32$GT$$C$variables..fibonacci_sequence..$u7b$$u7b$closure$u7d$$u7d$$GT$$GT$..$u7b$$u7b$closure$u7d$$u7d$$GT$17h229eca1f57fd8dc3E"(ptr align 8 %_1), !dbg !1478
  ret void, !dbg !1478
}

; core::ptr::drop_in_place<core::fmt::Error>
; Function Attrs: inlinehint nonlazybind uwtable
define internal void @"_ZN4core3ptr37drop_in_place$LT$core..fmt..Error$GT$17h759198456f41f369E"(ptr align 1 %_1) unnamed_addr #1 !dbg !1479 {
start:
  %_1.dbg.spill = alloca [8 x i8], align 8
  store ptr %_1, ptr %_1.dbg.spill, align 8
    #dbg_declare(ptr %_1.dbg.spill, !1484, !DIExpression(), !1487)
  ret void, !dbg !1487
}

; core::ptr::drop_in_place<alloc::string::String>
; Function Attrs: nonlazybind uwtable
define internal void @"_ZN4core3ptr42drop_in_place$LT$alloc..string..String$GT$17h5c57c16fee11b4e5E"(ptr align 8 %_1) unnamed_addr #0 !dbg !1488 {
start:
  %_1.dbg.spill = alloca [8 x i8], align 8
  store ptr %_1, ptr %_1.dbg.spill, align 8
    #dbg_declare(ptr %_1.dbg.spill, !1492, !DIExpression(), !1493)
; call core::ptr::drop_in_place<alloc::vec::Vec<u8>>
  call void @"_ZN4core3ptr46drop_in_place$LT$alloc..vec..Vec$LT$u8$GT$$GT$17hce2efa0d0f5cfee9E"(ptr align 8 %_1), !dbg !1493
  ret void, !dbg !1493
}

; core::ptr::drop_in_place<alloc::vec::Vec<u8>>
; Function Attrs: nonlazybind uwtable
define internal void @"_ZN4core3ptr46drop_in_place$LT$alloc..vec..Vec$LT$u8$GT$$GT$17hce2efa0d0f5cfee9E"(ptr align 8 %_1) unnamed_addr #0 personality ptr @rust_eh_personality !dbg !1494 {
start:
  %0 = alloca [16 x i8], align 8
  %_1.dbg.spill = alloca [8 x i8], align 8
  store ptr %_1, ptr %_1.dbg.spill, align 8
    #dbg_declare(ptr %_1.dbg.spill, !1499, !DIExpression(), !1502)
; invoke <alloc::vec::Vec<T,A> as core::ops::drop::Drop>::drop
  invoke void @"_ZN70_$LT$alloc..vec..Vec$LT$T$C$A$GT$$u20$as$u20$core..ops..drop..Drop$GT$4drop17h3cad85dcbc7cf70aE"(ptr align 8 %_1)
          to label %bb4 unwind label %cleanup, !dbg !1502

bb3:                                              ; preds = %cleanup
; invoke core::ptr::drop_in_place<alloc::raw_vec::RawVec<u8>>
  invoke void @"_ZN4core3ptr53drop_in_place$LT$alloc..raw_vec..RawVec$LT$u8$GT$$GT$17hb52e02f1ebd9a166E"(ptr align 8 %_1) #20
          to label %bb1 unwind label %terminate, !dbg !1502

cleanup:                                          ; preds = %start
  %1 = landingpad { ptr, i32 }
          cleanup
  %2 = extractvalue { ptr, i32 } %1, 0
  %3 = extractvalue { ptr, i32 } %1, 1
  store ptr %2, ptr %0, align 8
  %4 = getelementptr inbounds i8, ptr %0, i64 8
  store i32 %3, ptr %4, align 8
  br label %bb3

bb4:                                              ; preds = %start
; call core::ptr::drop_in_place<alloc::raw_vec::RawVec<u8>>
  call void @"_ZN4core3ptr53drop_in_place$LT$alloc..raw_vec..RawVec$LT$u8$GT$$GT$17hb52e02f1ebd9a166E"(ptr align 8 %_1), !dbg !1502
  ret void, !dbg !1502

terminate:                                        ; preds = %bb3
  %5 = landingpad { ptr, i32 }
          filter [0 x ptr] zeroinitializer
  %6 = extractvalue { ptr, i32 } %5, 0
  %7 = extractvalue { ptr, i32 } %5, 1
; call core::panicking::panic_in_cleanup
  call void @_ZN4core9panicking16panic_in_cleanup17h51d1753fd07771d1E() #21, !dbg !1502
  unreachable, !dbg !1502

bb1:                                              ; preds = %bb3
  %8 = load ptr, ptr %0, align 8, !dbg !1502
  %9 = getelementptr inbounds i8, ptr %0, i64 8, !dbg !1502
  %10 = load i32, ptr %9, align 8, !dbg !1502
  %11 = insertvalue { ptr, i32 } poison, ptr %8, 0, !dbg !1502
  %12 = insertvalue { ptr, i32 } %11, i32 %10, 1, !dbg !1502
  resume { ptr, i32 } %12, !dbg !1502
}

; core::ptr::drop_in_place<alloc::vec::Vec<u32>>
; Function Attrs: nonlazybind uwtable
define internal void @"_ZN4core3ptr47drop_in_place$LT$alloc..vec..Vec$LT$u32$GT$$GT$17hcd6c2d97fd3a131bE"(ptr align 8 %_1) unnamed_addr #0 personality ptr @rust_eh_personality !dbg !1503 {
start:
  %0 = alloca [16 x i8], align 8
  %_1.dbg.spill = alloca [8 x i8], align 8
  store ptr %_1, ptr %_1.dbg.spill, align 8
    #dbg_declare(ptr %_1.dbg.spill, !1508, !DIExpression(), !1509)
; invoke <alloc::vec::Vec<T,A> as core::ops::drop::Drop>::drop
  invoke void @"_ZN70_$LT$alloc..vec..Vec$LT$T$C$A$GT$$u20$as$u20$core..ops..drop..Drop$GT$4drop17h93faa721d57c1e8eE"(ptr align 8 %_1)
          to label %bb4 unwind label %cleanup, !dbg !1509

bb3:                                              ; preds = %cleanup
; invoke core::ptr::drop_in_place<alloc::raw_vec::RawVec<u32>>
  invoke void @"_ZN4core3ptr54drop_in_place$LT$alloc..raw_vec..RawVec$LT$u32$GT$$GT$17h6bb142e813f8bb53E"(ptr align 8 %_1) #20
          to label %bb1 unwind label %terminate, !dbg !1509

cleanup:                                          ; preds = %start
  %1 = landingpad { ptr, i32 }
          cleanup
  %2 = extractvalue { ptr, i32 } %1, 0
  %3 = extractvalue { ptr, i32 } %1, 1
  store ptr %2, ptr %0, align 8
  %4 = getelementptr inbounds i8, ptr %0, i64 8
  store i32 %3, ptr %4, align 8
  br label %bb3

bb4:                                              ; preds = %start
; call core::ptr::drop_in_place<alloc::raw_vec::RawVec<u32>>
  call void @"_ZN4core3ptr54drop_in_place$LT$alloc..raw_vec..RawVec$LT$u32$GT$$GT$17h6bb142e813f8bb53E"(ptr align 8 %_1), !dbg !1509
  ret void, !dbg !1509

terminate:                                        ; preds = %bb3
  %5 = landingpad { ptr, i32 }
          filter [0 x ptr] zeroinitializer
  %6 = extractvalue { ptr, i32 } %5, 0
  %7 = extractvalue { ptr, i32 } %5, 1
; call core::panicking::panic_in_cleanup
  call void @_ZN4core9panicking16panic_in_cleanup17h51d1753fd07771d1E() #21, !dbg !1509
  unreachable, !dbg !1509

bb1:                                              ; preds = %bb3
  %8 = load ptr, ptr %0, align 8, !dbg !1509
  %9 = getelementptr inbounds i8, ptr %0, i64 8, !dbg !1509
  %10 = load i32, ptr %9, align 8, !dbg !1509
  %11 = insertvalue { ptr, i32 } poison, ptr %8, 0, !dbg !1509
  %12 = insertvalue { ptr, i32 } %11, i32 %10, 1, !dbg !1509
  resume { ptr, i32 } %12, !dbg !1509
}

; core::ptr::drop_in_place<[alloc::string::String]>
; Function Attrs: nonlazybind uwtable
define internal void @"_ZN4core3ptr52drop_in_place$LT$$u5b$alloc..string..String$u5d$$GT$17h6d41e8b25e66c33bE"(ptr align 8 %_1.0, i64 %_1.1) unnamed_addr #0 personality ptr @rust_eh_personality !dbg !1510 {
start:
  %0 = alloca [16 x i8], align 8
  %_1.dbg.spill = alloca [16 x i8], align 8
  %_3 = alloca [8 x i8], align 8
  store ptr %_1.0, ptr %_1.dbg.spill, align 8
  %1 = getelementptr inbounds i8, ptr %_1.dbg.spill, i64 8
  store i64 %_1.1, ptr %1, align 8
    #dbg_declare(ptr %_1.dbg.spill, !1519, !DIExpression(), !1520)
  store i64 0, ptr %_3, align 8, !dbg !1520
  br label %bb6, !dbg !1520

bb6:                                              ; preds = %bb5, %start
  %2 = load i64, ptr %_3, align 8, !dbg !1520
  %_7 = icmp eq i64 %2, %_1.1, !dbg !1520
  br i1 %_7, label %bb1, label %bb5, !dbg !1520

bb5:                                              ; preds = %bb6
  %3 = load i64, ptr %_3, align 8, !dbg !1520
  %_6 = getelementptr inbounds nuw %"alloc::string::String", ptr %_1.0, i64 %3, !dbg !1520
  %4 = load i64, ptr %_3, align 8, !dbg !1520
  %5 = add i64 %4, 1, !dbg !1520
  store i64 %5, ptr %_3, align 8, !dbg !1520
; invoke core::ptr::drop_in_place<alloc::string::String>
  invoke void @"_ZN4core3ptr42drop_in_place$LT$alloc..string..String$GT$17h5c57c16fee11b4e5E"(ptr align 8 %_6)
          to label %bb6 unwind label %cleanup, !dbg !1520

bb1:                                              ; preds = %bb6
  ret void, !dbg !1520

bb4:                                              ; preds = %bb3, %cleanup
  %6 = load i64, ptr %_3, align 8, !dbg !1520
  %_5 = icmp eq i64 %6, %_1.1, !dbg !1520
  br i1 %_5, label %bb2, label %bb3, !dbg !1520

cleanup:                                          ; preds = %bb5
  %7 = landingpad { ptr, i32 }
          cleanup
  %8 = extractvalue { ptr, i32 } %7, 0
  %9 = extractvalue { ptr, i32 } %7, 1
  store ptr %8, ptr %0, align 8
  %10 = getelementptr inbounds i8, ptr %0, i64 8
  store i32 %9, ptr %10, align 8
  br label %bb4

bb3:                                              ; preds = %bb4
  %11 = load i64, ptr %_3, align 8, !dbg !1520
  %_4 = getelementptr inbounds nuw %"alloc::string::String", ptr %_1.0, i64 %11, !dbg !1520
  %12 = load i64, ptr %_3, align 8, !dbg !1520
  %13 = add i64 %12, 1, !dbg !1520
  store i64 %13, ptr %_3, align 8, !dbg !1520
; invoke core::ptr::drop_in_place<alloc::string::String>
  invoke void @"_ZN4core3ptr42drop_in_place$LT$alloc..string..String$GT$17h5c57c16fee11b4e5E"(ptr align 8 %_4) #20
          to label %bb4 unwind label %terminate, !dbg !1520

bb2:                                              ; preds = %bb4
  %14 = load ptr, ptr %0, align 8, !dbg !1520
  %15 = getelementptr inbounds i8, ptr %0, i64 8, !dbg !1520
  %16 = load i32, ptr %15, align 8, !dbg !1520
  %17 = insertvalue { ptr, i32 } poison, ptr %14, 0, !dbg !1520
  %18 = insertvalue { ptr, i32 } %17, i32 %16, 1, !dbg !1520
  resume { ptr, i32 } %18, !dbg !1520

terminate:                                        ; preds = %bb3
  %19 = landingpad { ptr, i32 }
          filter [0 x ptr] zeroinitializer
  %20 = extractvalue { ptr, i32 } %19, 0
  %21 = extractvalue { ptr, i32 } %19, 1
; call core::panicking::panic_in_cleanup
  call void @_ZN4core9panicking16panic_in_cleanup17h51d1753fd07771d1E() #21, !dbg !1520
  unreachable, !dbg !1520
}

; core::ptr::drop_in_place<alloc::raw_vec::RawVec<u8>>
; Function Attrs: nonlazybind uwtable
define internal void @"_ZN4core3ptr53drop_in_place$LT$alloc..raw_vec..RawVec$LT$u8$GT$$GT$17hb52e02f1ebd9a166E"(ptr align 8 %_1) unnamed_addr #0 !dbg !1521 {
start:
  %_1.dbg.spill = alloca [8 x i8], align 8
  store ptr %_1, ptr %_1.dbg.spill, align 8
    #dbg_declare(ptr %_1.dbg.spill, !1526, !DIExpression(), !1529)
; call <alloc::raw_vec::RawVec<T,A> as core::ops::drop::Drop>::drop
  call void @"_ZN77_$LT$alloc..raw_vec..RawVec$LT$T$C$A$GT$$u20$as$u20$core..ops..drop..Drop$GT$4drop17h207b169ff2d583b0E"(ptr align 8 %_1), !dbg !1529
  ret void, !dbg !1529
}

; core::ptr::drop_in_place<core::iter::adapters::map::map_fold<&u32,alloc::string::String,(),variables::fibonacci_sequence::{{closure}},core::iter::traits::iterator::Iterator::for_each::call<alloc::string::String,alloc::vec::Vec<alloc::string::String>::extend_trusted<core::iter::adapters::map::Map<core::slice::iter::Iter<u32>,variables::fibonacci_sequence::{{closure}}>>::{{closure}}>::{{closure}}>::{{closure}}>
; Function Attrs: nonlazybind uwtable
define internal void @"_ZN4core3ptr544drop_in_place$LT$core..iter..adapters..map..map_fold$LT$$RF$u32$C$alloc..string..String$C$$LP$$RP$$C$variables..fibonacci_sequence..$u7b$$u7b$closure$u7d$$u7d$$C$core..iter..traits..iterator..Iterator..for_each..call$LT$alloc..string..String$C$alloc..vec..Vec$LT$alloc..string..String$GT$..extend_trusted$LT$core..iter..adapters..map..Map$LT$core..slice..iter..Iter$LT$u32$GT$$C$variables..fibonacci_sequence..$u7b$$u7b$closure$u7d$$u7d$$GT$$GT$..$u7b$$u7b$closure$u7d$$u7d$$GT$..$u7b$$u7b$closure$u7d$$u7d$$GT$..$u7b$$u7b$closure$u7d$$u7d$$GT$17h2f25ab8441bc942fE"(ptr align 8 %_1) unnamed_addr #0 !dbg !1530 {
start:
  %_1.dbg.spill = alloca [8 x i8], align 8
  store ptr %_1, ptr %_1.dbg.spill, align 8
    #dbg_declare(ptr %_1.dbg.spill, !1535, !DIExpression(), !1538)
; call core::ptr::drop_in_place<core::iter::traits::iterator::Iterator::for_each::call<alloc::string::String,alloc::vec::Vec<alloc::string::String>::extend_trusted<core::iter::adapters::map::Map<core::slice::iter::Iter<u32>,variables::fibonacci_sequence::{{closure}}>>::{{closure}}>::{{closure}}>
  call void @"_ZN4core3ptr366drop_in_place$LT$core..iter..traits..iterator..Iterator..for_each..call$LT$alloc..string..String$C$alloc..vec..Vec$LT$alloc..string..String$GT$..extend_trusted$LT$core..iter..adapters..map..Map$LT$core..slice..iter..Iter$LT$u32$GT$$C$variables..fibonacci_sequence..$u7b$$u7b$closure$u7d$$u7d$$GT$$GT$..$u7b$$u7b$closure$u7d$$u7d$$GT$..$u7b$$u7b$closure$u7d$$u7d$$GT$17hf04d06336efcbd46E"(ptr align 8 %_1), !dbg !1538
  ret void, !dbg !1538
}

; core::ptr::drop_in_place<alloc::raw_vec::RawVec<u32>>
; Function Attrs: nonlazybind uwtable
define internal void @"_ZN4core3ptr54drop_in_place$LT$alloc..raw_vec..RawVec$LT$u32$GT$$GT$17h6bb142e813f8bb53E"(ptr align 8 %_1) unnamed_addr #0 !dbg !1539 {
start:
  %_1.dbg.spill = alloca [8 x i8], align 8
  store ptr %_1, ptr %_1.dbg.spill, align 8
    #dbg_declare(ptr %_1.dbg.spill, !1544, !DIExpression(), !1547)
; call <alloc::raw_vec::RawVec<T,A> as core::ops::drop::Drop>::drop
  call void @"_ZN77_$LT$alloc..raw_vec..RawVec$LT$T$C$A$GT$$u20$as$u20$core..ops..drop..Drop$GT$4drop17h8415d88874ca0c00E"(ptr align 8 %_1), !dbg !1547
  ret void, !dbg !1547
}

; core::ptr::drop_in_place<alloc::vec::set_len_on_drop::SetLenOnDrop>
; Function Attrs: nonlazybind uwtable
define internal void @"_ZN4core3ptr62drop_in_place$LT$alloc..vec..set_len_on_drop..SetLenOnDrop$GT$17h046f9d5687ad5782E"(ptr align 8 %_1) unnamed_addr #0 !dbg !1548 {
start:
  %_1.dbg.spill = alloca [8 x i8], align 8
  store ptr %_1, ptr %_1.dbg.spill, align 8
    #dbg_declare(ptr %_1.dbg.spill, !1553, !DIExpression(), !1556)
; call <alloc::vec::set_len_on_drop::SetLenOnDrop as core::ops::drop::Drop>::drop
  call void @"_ZN83_$LT$alloc..vec..set_len_on_drop..SetLenOnDrop$u20$as$u20$core..ops..drop..Drop$GT$4drop17hb7b367527df5e884E"(ptr align 8 %_1), !dbg !1556
  ret void, !dbg !1556
}

; core::ptr::drop_in_place<alloc::vec::Vec<alloc::string::String>>
; Function Attrs: nonlazybind uwtable
define internal void @"_ZN4core3ptr65drop_in_place$LT$alloc..vec..Vec$LT$alloc..string..String$GT$$GT$17he8f3654548fa77e1E"(ptr align 8 %_1) unnamed_addr #0 personality ptr @rust_eh_personality !dbg !1557 {
start:
  %0 = alloca [16 x i8], align 8
  %_1.dbg.spill = alloca [8 x i8], align 8
  store ptr %_1, ptr %_1.dbg.spill, align 8
    #dbg_declare(ptr %_1.dbg.spill, !1562, !DIExpression(), !1565)
; invoke <alloc::vec::Vec<T,A> as core::ops::drop::Drop>::drop
  invoke void @"_ZN70_$LT$alloc..vec..Vec$LT$T$C$A$GT$$u20$as$u20$core..ops..drop..Drop$GT$4drop17hc6f83f57ce550938E"(ptr align 8 %_1)
          to label %bb4 unwind label %cleanup, !dbg !1565

bb3:                                              ; preds = %cleanup
; invoke core::ptr::drop_in_place<alloc::raw_vec::RawVec<alloc::string::String>>
  invoke void @"_ZN4core3ptr72drop_in_place$LT$alloc..raw_vec..RawVec$LT$alloc..string..String$GT$$GT$17he682380bfef29f06E"(ptr align 8 %_1) #20
          to label %bb1 unwind label %terminate, !dbg !1565

cleanup:                                          ; preds = %start
  %1 = landingpad { ptr, i32 }
          cleanup
  %2 = extractvalue { ptr, i32 } %1, 0
  %3 = extractvalue { ptr, i32 } %1, 1
  store ptr %2, ptr %0, align 8
  %4 = getelementptr inbounds i8, ptr %0, i64 8
  store i32 %3, ptr %4, align 8
  br label %bb3

bb4:                                              ; preds = %start
; call core::ptr::drop_in_place<alloc::raw_vec::RawVec<alloc::string::String>>
  call void @"_ZN4core3ptr72drop_in_place$LT$alloc..raw_vec..RawVec$LT$alloc..string..String$GT$$GT$17he682380bfef29f06E"(ptr align 8 %_1), !dbg !1565
  ret void, !dbg !1565

terminate:                                        ; preds = %bb3
  %5 = landingpad { ptr, i32 }
          filter [0 x ptr] zeroinitializer
  %6 = extractvalue { ptr, i32 } %5, 0
  %7 = extractvalue { ptr, i32 } %5, 1
; call core::panicking::panic_in_cleanup
  call void @_ZN4core9panicking16panic_in_cleanup17h51d1753fd07771d1E() #21, !dbg !1565
  unreachable, !dbg !1565

bb1:                                              ; preds = %bb3
  %8 = load ptr, ptr %0, align 8, !dbg !1565
  %9 = getelementptr inbounds i8, ptr %0, i64 8, !dbg !1565
  %10 = load i32, ptr %9, align 8, !dbg !1565
  %11 = insertvalue { ptr, i32 } poison, ptr %8, 0, !dbg !1565
  %12 = insertvalue { ptr, i32 } %11, i32 %10, 1, !dbg !1565
  resume { ptr, i32 } %12, !dbg !1565
}

; core::ptr::drop_in_place<alloc::raw_vec::RawVec<alloc::string::String>>
; Function Attrs: nonlazybind uwtable
define internal void @"_ZN4core3ptr72drop_in_place$LT$alloc..raw_vec..RawVec$LT$alloc..string..String$GT$$GT$17he682380bfef29f06E"(ptr align 8 %_1) unnamed_addr #0 !dbg !1566 {
start:
  %_1.dbg.spill = alloca [8 x i8], align 8
  store ptr %_1, ptr %_1.dbg.spill, align 8
    #dbg_declare(ptr %_1.dbg.spill, !1571, !DIExpression(), !1574)
; call <alloc::raw_vec::RawVec<T,A> as core::ops::drop::Drop>::drop
  call void @"_ZN77_$LT$alloc..raw_vec..RawVec$LT$T$C$A$GT$$u20$as$u20$core..ops..drop..Drop$GT$4drop17hea47ee0483169086E"(ptr align 8 %_1), !dbg !1574
  ret void, !dbg !1574
}

; core::ptr::drop_in_place<std::rt::lang_start<()>::{{closure}}>
; Function Attrs: inlinehint nonlazybind uwtable
define internal void @"_ZN4core3ptr85drop_in_place$LT$std..rt..lang_start$LT$$LP$$RP$$GT$..$u7b$$u7b$closure$u7d$$u7d$$GT$17hc759818c838087d0E"(ptr align 8 %_1) unnamed_addr #1 !dbg !1575 {
start:
  %_1.dbg.spill = alloca [8 x i8], align 8
  store ptr %_1, ptr %_1.dbg.spill, align 8
    #dbg_declare(ptr %_1.dbg.spill, !1579, !DIExpression(), !1582)
  ret void, !dbg !1582
}

; core::ptr::non_null::NonNull<T>::new_unchecked::precondition_check
; Function Attrs: inlinehint nounwind nonlazybind uwtable
define internal void @"_ZN4core3ptr8non_null16NonNull$LT$T$GT$13new_unchecked18precondition_check17h8685598df8ae8022E"(ptr %ptr) unnamed_addr #2 !dbg !1583 {
start:
  %ptr.dbg.spill = alloca [8 x i8], align 8
  store ptr %ptr, ptr %ptr.dbg.spill, align 8
    #dbg_declare(ptr %ptr.dbg.spill, !1589, !DIExpression(), !1590)
    #dbg_declare(ptr %ptr.dbg.spill, !1591, !DIExpression(), !1596)
  %_3 = ptrtoint ptr %ptr to i64, !dbg !1599
  %0 = icmp eq i64 %_3, 0, !dbg !1610
  br i1 %0, label %bb1, label %bb2, !dbg !1610

bb1:                                              ; preds = %start
; call core::panicking::panic_nounwind
  call void @_ZN4core9panicking14panic_nounwind17h0c59dc9f7f043eadE(ptr align 1 @alloc_560a59ed819b9d9a5841f6e731c4c8e5, i64 210) #18, !dbg !1611
  unreachable, !dbg !1611

bb2:                                              ; preds = %start
  ret void, !dbg !1612
}

; core::ptr::non_null::NonNull<T>::offset_from_unsigned
; Function Attrs: inlinehint nonlazybind uwtable
define internal i64 @"_ZN4core3ptr8non_null16NonNull$LT$T$GT$20offset_from_unsigned17ha4458222bf4ce327E"(ptr %self, ptr %subtracted) unnamed_addr #1 !dbg !1613 {
start:
  %0 = alloca [8 x i8], align 8
  %pointee_size.dbg.spill = alloca [8 x i8], align 8
  %self.dbg.spill2 = alloca [8 x i8], align 8
  %origin.dbg.spill = alloca [8 x i8], align 8
  %self.dbg.spill1 = alloca [8 x i8], align 8
  %subtracted.dbg.spill = alloca [8 x i8], align 8
  %self.dbg.spill = alloca [8 x i8], align 8
  store ptr %self, ptr %self.dbg.spill, align 8
    #dbg_declare(ptr %self.dbg.spill, !1618, !DIExpression(), !1620)
    #dbg_declare(ptr %self.dbg.spill, !1621, !DIExpression(), !1624)
  store ptr %subtracted, ptr %subtracted.dbg.spill, align 8
    #dbg_declare(ptr %subtracted.dbg.spill, !1619, !DIExpression(), !1626)
    #dbg_declare(ptr %subtracted.dbg.spill, !1621, !DIExpression(), !1627)
  store ptr %self, ptr %self.dbg.spill1, align 8, !dbg !1629
    #dbg_declare(ptr %self.dbg.spill1, !1630, !DIExpression(), !1636)
  store ptr %subtracted, ptr %origin.dbg.spill, align 8, !dbg !1638
    #dbg_declare(ptr %origin.dbg.spill, !1635, !DIExpression(), !1639)
    #dbg_declare(ptr %origin.dbg.spill, !1640, !DIExpression(), !1648)
  store ptr %self, ptr %self.dbg.spill2, align 8, !dbg !1650
    #dbg_declare(ptr %self.dbg.spill2, !1645, !DIExpression(), !1651)
  br label %bb2, !dbg !1652

bb2:                                              ; preds = %start
; call core::ptr::const_ptr::<impl *const T>::offset_from_unsigned::precondition_check
  call void @"_ZN4core3ptr9const_ptr33_$LT$impl$u20$$BP$const$u20$T$GT$20offset_from_unsigned18precondition_check17h24112e5c0f36169dE"(ptr %self, ptr %subtracted) #22, !dbg !1654
  br label %bb4, !dbg !1655

bb4:                                              ; preds = %bb2
  store i64 4, ptr %pointee_size.dbg.spill, align 8, !dbg !1656
    #dbg_declare(ptr %pointee_size.dbg.spill, !1646, !DIExpression(), !1663)
  br label %bb5, !dbg !1664

bb5:                                              ; preds = %bb4
  br label %bb6, !dbg !1665

bb6:                                              ; preds = %bb5
  %1 = ptrtoint ptr %self to i64, !dbg !1666
  %2 = ptrtoint ptr %subtracted to i64, !dbg !1666
  %3 = sub nuw i64 %1, %2, !dbg !1666
  %4 = udiv exact i64 %3, 4, !dbg !1666
  store i64 %4, ptr %0, align 8, !dbg !1666
  %_0 = load i64, ptr %0, align 8, !dbg !1666
  ret i64 %_0, !dbg !1667

bb7:                                              ; No predecessors!
; call core::panicking::panic
  call void @_ZN4core9panicking5panic17h4a11c031239f36a8E(ptr align 1 @alloc_ec595fc0e82ef92fc59bd74f68296eae, i64 73, ptr align 8 @alloc_14573fd9627d2f7178cbebe3fe4a47e2) #19, !dbg !1668
  unreachable, !dbg !1668
}

; core::ptr::non_null::NonNull<T>::offset_from_unsigned
; Function Attrs: inlinehint nonlazybind uwtable
define internal i64 @"_ZN4core3ptr8non_null16NonNull$LT$T$GT$20offset_from_unsigned17hcbd3a084cf281516E"(ptr %self, ptr %subtracted) unnamed_addr #1 !dbg !1669 {
start:
  %0 = alloca [8 x i8], align 8
  %pointee_size.dbg.spill = alloca [8 x i8], align 8
  %self.dbg.spill2 = alloca [8 x i8], align 8
  %origin.dbg.spill = alloca [8 x i8], align 8
  %self.dbg.spill1 = alloca [8 x i8], align 8
  %subtracted.dbg.spill = alloca [8 x i8], align 8
  %self.dbg.spill = alloca [8 x i8], align 8
  store ptr %self, ptr %self.dbg.spill, align 8
    #dbg_declare(ptr %self.dbg.spill, !1674, !DIExpression(), !1676)
    #dbg_declare(ptr %self.dbg.spill, !1677, !DIExpression(), !1683)
  store ptr %subtracted, ptr %subtracted.dbg.spill, align 8
    #dbg_declare(ptr %subtracted.dbg.spill, !1675, !DIExpression(), !1685)
    #dbg_declare(ptr %subtracted.dbg.spill, !1677, !DIExpression(), !1686)
  store ptr %self, ptr %self.dbg.spill1, align 8, !dbg !1688
    #dbg_declare(ptr %self.dbg.spill1, !1689, !DIExpression(), !1695)
  store ptr %subtracted, ptr %origin.dbg.spill, align 8, !dbg !1697
    #dbg_declare(ptr %origin.dbg.spill, !1694, !DIExpression(), !1698)
    #dbg_declare(ptr %origin.dbg.spill, !1699, !DIExpression(), !1707)
  store ptr %self, ptr %self.dbg.spill2, align 8, !dbg !1709
    #dbg_declare(ptr %self.dbg.spill2, !1704, !DIExpression(), !1710)
  br label %bb2, !dbg !1711

bb2:                                              ; preds = %start
; call core::ptr::const_ptr::<impl *const T>::offset_from_unsigned::precondition_check
  call void @"_ZN4core3ptr9const_ptr33_$LT$impl$u20$$BP$const$u20$T$GT$20offset_from_unsigned18precondition_check17h24112e5c0f36169dE"(ptr %self, ptr %subtracted) #22, !dbg !1713
  br label %bb4, !dbg !1714

bb4:                                              ; preds = %bb2
  store i64 24, ptr %pointee_size.dbg.spill, align 8, !dbg !1715
    #dbg_declare(ptr %pointee_size.dbg.spill, !1705, !DIExpression(), !1718)
  br label %bb5, !dbg !1719

bb5:                                              ; preds = %bb4
  br label %bb6, !dbg !1720

bb6:                                              ; preds = %bb5
  %1 = ptrtoint ptr %self to i64, !dbg !1721
  %2 = ptrtoint ptr %subtracted to i64, !dbg !1721
  %3 = sub nuw i64 %1, %2, !dbg !1721
  %4 = udiv exact i64 %3, 24, !dbg !1721
  store i64 %4, ptr %0, align 8, !dbg !1721
  %_0 = load i64, ptr %0, align 8, !dbg !1721
  ret i64 %_0, !dbg !1722

bb7:                                              ; No predecessors!
; call core::panicking::panic
  call void @_ZN4core9panicking5panic17h4a11c031239f36a8E(ptr align 1 @alloc_ec595fc0e82ef92fc59bd74f68296eae, i64 73, ptr align 8 @alloc_14573fd9627d2f7178cbebe3fe4a47e2) #19, !dbg !1723
  unreachable, !dbg !1723
}

; core::ptr::const_ptr::<impl *const T>::offset_from_unsigned::precondition_check
; Function Attrs: inlinehint nounwind nonlazybind uwtable
define internal void @"_ZN4core3ptr9const_ptr33_$LT$impl$u20$$BP$const$u20$T$GT$20offset_from_unsigned18precondition_check17h24112e5c0f36169dE"(ptr %this, ptr %origin) unnamed_addr #2 !dbg !1724 {
start:
  %origin.dbg.spill = alloca [8 x i8], align 8
  %this.dbg.spill = alloca [8 x i8], align 8
  store ptr %this, ptr %this.dbg.spill, align 8
    #dbg_declare(ptr %this.dbg.spill, !1729, !DIExpression(), !1731)
    #dbg_declare(ptr %this.dbg.spill, !1732, !DIExpression(), !1738)
  store ptr %origin, ptr %origin.dbg.spill, align 8
    #dbg_declare(ptr %origin.dbg.spill, !1730, !DIExpression(), !1731)
    #dbg_declare(ptr %origin.dbg.spill, !1737, !DIExpression(), !1741)
  %_3 = icmp uge ptr %this, %origin, !dbg !1742
  br i1 %_3, label %bb1, label %bb2, !dbg !1739

bb2:                                              ; preds = %start
; call core::panicking::panic_nounwind
  call void @_ZN4core9panicking14panic_nounwind17h0c59dc9f7f043eadE(ptr align 1 @alloc_de4e626d456b04760e72bc785ed7e52a, i64 201) #18, !dbg !1748
  unreachable, !dbg !1748

bb1:                                              ; preds = %start
  ret void, !dbg !1749
}

; core::str::traits::<impl core::slice::index::SliceIndex<str> for core::ops::range::RangeFull>::index
; Function Attrs: inlinehint nonlazybind uwtable
define internal { ptr, i64 } @"_ZN4core3str6traits99_$LT$impl$u20$core..slice..index..SliceIndex$LT$str$GT$$u20$for$u20$core..ops..range..RangeFull$GT$5index17hbd29c3fdf741db5eE"(ptr align 1 %slice.0, i64 %slice.1, ptr align 8 %0) unnamed_addr #1 !dbg !1750 {
start:
  %slice.dbg.spill = alloca [16 x i8], align 8
  %_1.dbg.spill = alloca [0 x i8], align 1
    #dbg_declare(ptr %_1.dbg.spill, !1761, !DIExpression(), !1762)
  store ptr %slice.0, ptr %slice.dbg.spill, align 8
  %1 = getelementptr inbounds i8, ptr %slice.dbg.spill, i64 8
  store i64 %slice.1, ptr %1, align 8
    #dbg_declare(ptr %slice.dbg.spill, !1760, !DIExpression(), !1763)
  %2 = insertvalue { ptr, i64 } poison, ptr %slice.0, 0, !dbg !1764
  %3 = insertvalue { ptr, i64 } %2, i64 %slice.1, 1, !dbg !1764
  ret { ptr, i64 } %3, !dbg !1764
}

; core::str::<impl core::convert::AsRef<[u8]> for str>::as_ref
; Function Attrs: inlinehint nonlazybind uwtable
define internal { ptr, i64 } @"_ZN4core3str74_$LT$impl$u20$core..convert..AsRef$LT$$u5b$u8$u5d$$GT$$u20$for$u20$str$GT$6as_ref17h71122c9018f4e328E"(ptr align 1 %self.0, i64 %self.1) unnamed_addr #1 !dbg !1765 {
start:
  %self.dbg.spill = alloca [16 x i8], align 8
  store ptr %self.0, ptr %self.dbg.spill, align 8
  %0 = getelementptr inbounds i8, ptr %self.dbg.spill, i64 8
  store i64 %self.1, ptr %0, align 8
    #dbg_declare(ptr %self.dbg.spill, !1775, !DIExpression(), !1776)
    #dbg_declare(ptr %self.dbg.spill, !1777, !DIExpression(), !1781)
  %1 = insertvalue { ptr, i64 } poison, ptr %self.0, 0, !dbg !1783
  %2 = insertvalue { ptr, i64 } %1, i64 %self.1, 1, !dbg !1783
  ret { ptr, i64 } %2, !dbg !1783
}

; core::char::methods::encode_utf8_raw_unchecked
; Function Attrs: inlinehint nonlazybind uwtable
define internal void @_ZN4core4char7methods25encode_utf8_raw_unchecked17h04cf10591b4891f0E(i32 %code, ptr %dst) unnamed_addr #1 !dbg !1784 {
start:
  %count.dbg.spill5 = alloca [8 x i8], align 8
  %count.dbg.spill4 = alloca [8 x i8], align 8
  %count.dbg.spill3 = alloca [8 x i8], align 8
  %count.dbg.spill2 = alloca [8 x i8], align 8
  %count.dbg.spill1 = alloca [8 x i8], align 8
  %count.dbg.spill = alloca [8 x i8], align 8
  %dst.dbg.spill = alloca [8 x i8], align 8
  %code.dbg.spill = alloca [4 x i8], align 4
  %len = alloca [8 x i8], align 8
  store i32 %code, ptr %code.dbg.spill, align 4
    #dbg_declare(ptr %code.dbg.spill, !1792, !DIExpression(), !1796)
    #dbg_declare(ptr %code.dbg.spill, !1797, !DIExpression(), !1802)
  store ptr %dst, ptr %dst.dbg.spill, align 8
    #dbg_declare(ptr %dst.dbg.spill, !1793, !DIExpression(), !1804)
    #dbg_declare(ptr %dst.dbg.spill, !1805, !DIExpression(), !1811)
    #dbg_declare(ptr %dst.dbg.spill, !1805, !DIExpression(), !1813)
    #dbg_declare(ptr %dst.dbg.spill, !1805, !DIExpression(), !1815)
    #dbg_declare(ptr %dst.dbg.spill, !1805, !DIExpression(), !1817)
    #dbg_declare(ptr %dst.dbg.spill, !1805, !DIExpression(), !1819)
    #dbg_declare(ptr %dst.dbg.spill, !1805, !DIExpression(), !1821)
    #dbg_declare(ptr %len, !1794, !DIExpression(), !1823)
  store i64 1, ptr %count.dbg.spill, align 8, !dbg !1824
    #dbg_declare(ptr %count.dbg.spill, !1810, !DIExpression(), !1824)
  store i64 1, ptr %count.dbg.spill1, align 8, !dbg !1825
    #dbg_declare(ptr %count.dbg.spill1, !1810, !DIExpression(), !1825)
  store i64 1, ptr %count.dbg.spill2, align 8, !dbg !1826
    #dbg_declare(ptr %count.dbg.spill2, !1810, !DIExpression(), !1826)
  store i64 2, ptr %count.dbg.spill3, align 8, !dbg !1827
    #dbg_declare(ptr %count.dbg.spill3, !1810, !DIExpression(), !1827)
  store i64 2, ptr %count.dbg.spill4, align 8, !dbg !1828
    #dbg_declare(ptr %count.dbg.spill4, !1810, !DIExpression(), !1828)
  store i64 3, ptr %count.dbg.spill5, align 8, !dbg !1829
    #dbg_declare(ptr %count.dbg.spill5, !1810, !DIExpression(), !1829)
  %_34 = icmp ult i32 %code, 128, !dbg !1830
  br i1 %_34, label %bb7, label %bb2, !dbg !1830

bb2:                                              ; preds = %start
  %_35 = icmp ult i32 %code, 2048, !dbg !1831
  br i1 %_35, label %bb6, label %bb3, !dbg !1831

bb7:                                              ; preds = %start
  store i64 1, ptr %len, align 8, !dbg !1832
  %0 = trunc i32 %code to i8, !dbg !1833
  store i8 %0, ptr %dst, align 1, !dbg !1833
  br label %bb1, !dbg !1834

bb3:                                              ; preds = %bb2
  %_36 = icmp ult i32 %code, 65536, !dbg !1835
  br i1 %_36, label %bb5, label %bb4, !dbg !1835

bb6:                                              ; preds = %bb2
  store i64 2, ptr %len, align 8, !dbg !1836
  %_6 = lshr i32 %code, 6, !dbg !1837
  %_5 = and i32 %_6, 31, !dbg !1838
  %_4 = trunc i32 %_5 to i8, !dbg !1838
  %1 = or i8 %_4, -64, !dbg !1839
  store i8 %1, ptr %dst, align 1, !dbg !1839
  %_8 = and i32 %code, 63, !dbg !1840
  %_7 = trunc i32 %_8 to i8, !dbg !1840
  %_9 = getelementptr inbounds nuw i8, ptr %dst, i64 1, !dbg !1841
  %2 = or i8 %_7, -128, !dbg !1842
  store i8 %2, ptr %_9, align 1, !dbg !1842
  br label %bb1, !dbg !1843

bb4:                                              ; preds = %bb3
  store i64 4, ptr %len, align 8, !dbg !1844
  %_22 = lshr i32 %code, 18, !dbg !1845
  %_21 = and i32 %_22, 7, !dbg !1846
  %_20 = trunc i32 %_21 to i8, !dbg !1846
  %3 = or i8 %_20, -16, !dbg !1847
  store i8 %3, ptr %dst, align 1, !dbg !1847
  %_25 = lshr i32 %code, 12, !dbg !1848
  %_24 = and i32 %_25, 63, !dbg !1849
  %_23 = trunc i32 %_24 to i8, !dbg !1849
  %_26 = getelementptr inbounds nuw i8, ptr %dst, i64 1, !dbg !1850
  %4 = or i8 %_23, -128, !dbg !1851
  store i8 %4, ptr %_26, align 1, !dbg !1851
  %_29 = lshr i32 %code, 6, !dbg !1852
  %_28 = and i32 %_29, 63, !dbg !1853
  %_27 = trunc i32 %_28 to i8, !dbg !1853
  %_30 = getelementptr inbounds nuw i8, ptr %dst, i64 2, !dbg !1854
  %5 = or i8 %_27, -128, !dbg !1855
  store i8 %5, ptr %_30, align 1, !dbg !1855
  %_32 = and i32 %code, 63, !dbg !1856
  %_31 = trunc i32 %_32 to i8, !dbg !1856
  %_33 = getelementptr inbounds nuw i8, ptr %dst, i64 3, !dbg !1857
  %6 = or i8 %_31, -128, !dbg !1858
  store i8 %6, ptr %_33, align 1, !dbg !1858
  br label %bb1, !dbg !1859

bb5:                                              ; preds = %bb3
  store i64 3, ptr %len, align 8, !dbg !1860
  %_12 = lshr i32 %code, 12, !dbg !1861
  %_11 = and i32 %_12, 15, !dbg !1862
  %_10 = trunc i32 %_11 to i8, !dbg !1862
  %7 = or i8 %_10, -32, !dbg !1863
  store i8 %7, ptr %dst, align 1, !dbg !1863
  %_15 = lshr i32 %code, 6, !dbg !1864
  %_14 = and i32 %_15, 63, !dbg !1865
  %_13 = trunc i32 %_14 to i8, !dbg !1865
  %_16 = getelementptr inbounds nuw i8, ptr %dst, i64 1, !dbg !1866
  %8 = or i8 %_13, -128, !dbg !1867
  store i8 %8, ptr %_16, align 1, !dbg !1867
  %_18 = and i32 %code, 63, !dbg !1868
  %_17 = trunc i32 %_18 to i8, !dbg !1868
  %_19 = getelementptr inbounds nuw i8, ptr %dst, i64 2, !dbg !1869
  %9 = or i8 %_17, -128, !dbg !1870
  store i8 %9, ptr %_19, align 1, !dbg !1870
  br label %bb1, !dbg !1871

bb1:                                              ; preds = %bb7, %bb6, %bb5, %bb4
  ret void, !dbg !1872
}

; core::hint::assert_unchecked::precondition_check
; Function Attrs: inlinehint nounwind nonlazybind uwtable
define internal void @_ZN4core4hint16assert_unchecked18precondition_check17h6c4500abb4304a0aE(i1 zeroext %cond) unnamed_addr #2 !dbg !1873 {
start:
  %cond.dbg.spill = alloca [1 x i8], align 1
  %0 = zext i1 %cond to i8
  store i8 %0, ptr %cond.dbg.spill, align 1
    #dbg_declare(ptr %cond.dbg.spill, !1878, !DIExpression(), !1879)
  br i1 %cond, label %bb2, label %bb1, !dbg !1880

bb1:                                              ; preds = %start
; call core::panicking::panic_nounwind
  call void @_ZN4core9panicking14panic_nounwind17h0c59dc9f7f043eadE(ptr align 1 @alloc_64e308ef4babfeb8b6220184de794a17, i64 221) #18, !dbg !1882
  unreachable, !dbg !1882

bb2:                                              ; preds = %start
  ret void, !dbg !1883
}

; core::iter::range::<impl core::iter::traits::iterator::Iterator for core::ops::range::Range<A>>::next
; Function Attrs: inlinehint nonlazybind uwtable
define internal { i32, i32 } @"_ZN4core4iter5range101_$LT$impl$u20$core..iter..traits..iterator..Iterator$u20$for$u20$core..ops..range..Range$LT$A$GT$$GT$4next17he35c67ed537ac736E"(ptr align 4 %self) unnamed_addr #1 !dbg !1884 {
start:
  %self.dbg.spill = alloca [8 x i8], align 8
  store ptr %self, ptr %self.dbg.spill, align 8
    #dbg_declare(ptr %self.dbg.spill, !1907, !DIExpression(), !1910)
; call <core::ops::range::Range<T> as core::iter::range::RangeIteratorImpl>::spec_next
  %0 = call { i32, i32 } @"_ZN89_$LT$core..ops..range..Range$LT$T$GT$$u20$as$u20$core..iter..range..RangeIteratorImpl$GT$9spec_next17ha0223fad9d4aac6cE"(ptr align 4 %self), !dbg !1911
  %_0.0 = extractvalue { i32, i32 } %0, 0, !dbg !1911
  %_0.1 = extractvalue { i32, i32 } %0, 1, !dbg !1911
  %1 = insertvalue { i32, i32 } poison, i32 %_0.0, 0, !dbg !1912
  %2 = insertvalue { i32, i32 } %1, i32 %_0.1, 1, !dbg !1912
  ret { i32, i32 } %2, !dbg !1912
}

; core::iter::traits::iterator::Iterator::map
; Function Attrs: inlinehint nonlazybind uwtable
define internal { ptr, ptr } @_ZN4core4iter6traits8iterator8Iterator3map17h877e643b8f923229E(ptr %self.0, ptr %self.1) unnamed_addr #1 !dbg !1913 {
start:
  %f.dbg.spill = alloca [0 x i8], align 1
  %self.dbg.spill = alloca [16 x i8], align 8
  store ptr %self.0, ptr %self.dbg.spill, align 8
  %0 = getelementptr inbounds i8, ptr %self.dbg.spill, i64 8
  store ptr %self.1, ptr %0, align 8
    #dbg_declare(ptr %self.dbg.spill, !1918, !DIExpression(), !1922)
    #dbg_declare(ptr %f.dbg.spill, !1919, !DIExpression(), !1923)
  %1 = insertvalue { ptr, ptr } poison, ptr %self.0, 0, !dbg !1924
  %2 = insertvalue { ptr, ptr } %1, ptr %self.1, 1, !dbg !1924
  ret { ptr, ptr } %2, !dbg !1924
}

; core::iter::traits::iterator::Iterator::collect
; Function Attrs: inlinehint nonlazybind uwtable
define internal void @_ZN4core4iter6traits8iterator8Iterator7collect17h1d3191f08037c02cE(ptr sret([24 x i8]) align 8 %_0, ptr %self.0, ptr %self.1) unnamed_addr #1 personality ptr @rust_eh_personality !dbg !1925 {
start:
  %0 = alloca [16 x i8], align 8
  %pieces.dbg.spill = alloca [8 x i8], align 8
  %self.dbg.spill = alloca [16 x i8], align 8
  store ptr %self.0, ptr %self.dbg.spill, align 8
  %1 = getelementptr inbounds i8, ptr %self.dbg.spill, i64 8
  store ptr %self.1, ptr %1, align 8
    #dbg_declare(ptr %self.dbg.spill, !1929, !DIExpression(), !1935)
  store ptr @alloc_4f957698b52dbe11fa953a525a47908f, ptr %pieces.dbg.spill, align 8, !dbg !1936
    #dbg_declare(ptr %pieces.dbg.spill, !1942, !DIExpression(), !1936)
; invoke <alloc::vec::Vec<T> as core::iter::traits::collect::FromIterator<T>>::from_iter
  invoke void @"_ZN95_$LT$alloc..vec..Vec$LT$T$GT$$u20$as$u20$core..iter..traits..collect..FromIterator$LT$T$GT$$GT$9from_iter17h49f7dcdc528fee37E"(ptr sret([24 x i8]) align 8 %_0, ptr %self.0, ptr %self.1, ptr align 8 @alloc_1707e2e22e7847b4f425f7aee0106778)
          to label %bb1 unwind label %cleanup, !dbg !1946

bb4:                                              ; preds = %cleanup
  br label %bb2, !dbg !1947

cleanup:                                          ; preds = %start
  %2 = landingpad { ptr, i32 }
          cleanup
  %3 = extractvalue { ptr, i32 } %2, 0
  %4 = extractvalue { ptr, i32 } %2, 1
  store ptr %3, ptr %0, align 8
  %5 = getelementptr inbounds i8, ptr %0, i64 8
  store i32 %4, ptr %5, align 8
  br label %bb4

bb1:                                              ; preds = %start
  ret void, !dbg !1948

bb2:                                              ; preds = %bb3, %bb4
  %6 = load ptr, ptr %0, align 8, !dbg !1949
  %7 = getelementptr inbounds i8, ptr %0, i64 8, !dbg !1949
  %8 = load i32, ptr %7, align 8, !dbg !1949
  %9 = insertvalue { ptr, i32 } poison, ptr %6, 0, !dbg !1949
  %10 = insertvalue { ptr, i32 } %9, i32 %8, 1, !dbg !1949
  resume { ptr, i32 } %10, !dbg !1949

bb3:                                              ; No predecessors!
  br label %bb2, !dbg !1947
}

; core::iter::traits::iterator::Iterator::for_each
; Function Attrs: inlinehint nonlazybind uwtable
define internal void @_ZN4core4iter6traits8iterator8Iterator8for_each17hef99ee47313b5ea3E(ptr %self.0, ptr %self.1, ptr align 8 %f) unnamed_addr #1 !dbg !1950 {
start:
  %self.dbg.spill = alloca [16 x i8], align 8
  %_4 = alloca [24 x i8], align 8
  store ptr %self.0, ptr %self.dbg.spill, align 8
  %0 = getelementptr inbounds i8, ptr %self.dbg.spill, i64 8
  store ptr %self.1, ptr %0, align 8
    #dbg_declare(ptr %self.dbg.spill, !1954, !DIExpression(), !1958)
    #dbg_declare(ptr %f, !1955, !DIExpression(), !1959)
    #dbg_declare(ptr %f, !1960, !DIExpression(), !1967)
  call void @llvm.memcpy.p0.p0.i64(ptr align 8 %_4, ptr align 8 %f, i64 24, i1 false), !dbg !1969
; call <core::iter::adapters::map::Map<I,F> as core::iter::traits::iterator::Iterator>::fold
  call void @"_ZN102_$LT$core..iter..adapters..map..Map$LT$I$C$F$GT$$u20$as$u20$core..iter..traits..iterator..Iterator$GT$4fold17h7ddcd6cc84702cbbE"(ptr %self.0, ptr %self.1, ptr align 8 %_4), !dbg !1970
  ret void, !dbg !1971
}

; core::iter::traits::iterator::Iterator::for_each::call::{{closure}}
; Function Attrs: inlinehint nonlazybind uwtable
define internal void @"_ZN4core4iter6traits8iterator8Iterator8for_each4call28_$u7b$$u7b$closure$u7d$$u7d$17h269c78c52d4b5274E"(ptr align 8 %_1, ptr align 8 %item) unnamed_addr #1 !dbg !1972 {
start:
  %_2.dbg.spill = alloca [0 x i8], align 1
  %_1.dbg.spill = alloca [8 x i8], align 8
  %_5 = alloca [24 x i8], align 8
  store ptr %_1, ptr %_1.dbg.spill, align 8
    #dbg_declare(ptr %_1.dbg.spill, !1978, !DIExpression(DW_OP_deref), !1980)
    #dbg_declare(ptr %_2.dbg.spill, !1979, !DIExpression(), !1981)
    #dbg_declare(ptr %item, !1977, !DIExpression(), !1982)
  call void @llvm.memcpy.p0.p0.i64(ptr align 8 %_5, ptr align 8 %item, i64 24, i1 false), !dbg !1983
; call alloc::vec::Vec<T,A>::extend_trusted::{{closure}}
  call void @"_ZN5alloc3vec16Vec$LT$T$C$A$GT$14extend_trusted28_$u7b$$u7b$closure$u7d$$u7d$17h0e34822aec13d404E"(ptr align 8 %_1, ptr align 8 %_5), !dbg !1983
  ret void, !dbg !1984
}

; core::iter::traits::iterator::Iterator::try_fold
; Function Attrs: inlinehint nonlazybind uwtable
define internal { i64, i64 } @_ZN4core4iter6traits8iterator8Iterator8try_fold17hf7ef6b6ec9529151E(ptr align 8 %self, i64 %init, ptr align 1 %0) unnamed_addr #1 personality ptr @rust_eh_personality !dbg !1985 {
start:
  %val.dbg.spill = alloca [8 x i8], align 8
  %x.dbg.spill = alloca [8 x i8], align 8
  %1 = alloca [16 x i8], align 8
  %residual.dbg.spill = alloca [0 x i8], align 1
  %init.dbg.spill = alloca [8 x i8], align 8
  %self.dbg.spill = alloca [8 x i8], align 8
  %_17 = alloca [1 x i8], align 1
  %_8 = alloca [16 x i8], align 8
  %_5 = alloca [8 x i8], align 8
  %accum = alloca [8 x i8], align 8
  %_0 = alloca [16 x i8], align 8
  %f = alloca [8 x i8], align 8
  store ptr %0, ptr %f, align 8
  store ptr %self, ptr %self.dbg.spill, align 8
    #dbg_declare(ptr %self.dbg.spill, !2008, !DIExpression(), !2024)
  store i64 %init, ptr %init.dbg.spill, align 8
    #dbg_declare(ptr %init.dbg.spill, !2009, !DIExpression(), !2025)
    #dbg_declare(ptr %f, !2010, !DIExpression(), !2026)
    #dbg_declare(ptr %accum, !2011, !DIExpression(), !2027)
    #dbg_declare(ptr %residual.dbg.spill, !2015, !DIExpression(), !2028)
  store i8 1, ptr %_17, align 1, !dbg !2029
  store i64 %init, ptr %accum, align 8, !dbg !2029
  br label %bb1, !dbg !2030

bb1:                                              ; preds = %bb7, %start
; invoke <core::slice::iter::Iter<T> as core::iter::traits::iterator::Iterator>::next
  %2 = invoke align 8 ptr @"_ZN91_$LT$core..slice..iter..Iter$LT$T$GT$$u20$as$u20$core..iter..traits..iterator..Iterator$GT$4next17h7af0fbcb442ddb87E"(ptr align 8 %self)
          to label %bb2 unwind label %cleanup, !dbg !2031

bb17:                                             ; preds = %cleanup
  %3 = load i8, ptr %_17, align 1, !dbg !2032
  %4 = trunc nuw i8 %3 to i1, !dbg !2032
  br i1 %4, label %bb16, label %bb14, !dbg !2032

cleanup:                                          ; preds = %bb11, %bb8, %bb4, %bb3, %bb1
  %5 = landingpad { ptr, i32 }
          cleanup
  %6 = extractvalue { ptr, i32 } %5, 0
  %7 = extractvalue { ptr, i32 } %5, 1
  store ptr %6, ptr %1, align 8
  %8 = getelementptr inbounds i8, ptr %1, i64 8
  store i32 %7, ptr %8, align 8
  br label %bb17

bb2:                                              ; preds = %bb1
  store ptr %2, ptr %_5, align 8, !dbg !2031
  %9 = load ptr, ptr %_5, align 8, !dbg !2031
  %10 = ptrtoint ptr %9 to i64, !dbg !2031
  %11 = icmp eq i64 %10, 0, !dbg !2031
  %_6 = select i1 %11, i64 0, i64 1, !dbg !2031
  %12 = trunc nuw i64 %_6 to i1, !dbg !2033
  br i1 %12, label %bb3, label %bb10, !dbg !2033

bb3:                                              ; preds = %bb2
  %x = load ptr, ptr %_5, align 8, !dbg !2034
  store ptr %x, ptr %x.dbg.spill, align 8, !dbg !2034
    #dbg_declare(ptr %x.dbg.spill, !2013, !DIExpression(), !2034)
  store i8 0, ptr %_17, align 1, !dbg !2035
  %_12 = load i64, ptr %accum, align 8, !dbg !2035
; invoke core::iter::adapters::map::map_try_fold::{{closure}}
  %13 = invoke { i64, i64 } @"_ZN4core4iter8adapters3map12map_try_fold28_$u7b$$u7b$closure$u7d$$u7d$17h1864a877c4d80d77E"(ptr align 8 %f, i64 %_12, ptr align 8 %x)
          to label %bb4 unwind label %cleanup, !dbg !2036

bb10:                                             ; preds = %bb2
  br label %bb11, !dbg !2037

bb4:                                              ; preds = %bb3
  %_9.0 = extractvalue { i64, i64 } %13, 0, !dbg !2036
  %_9.1 = extractvalue { i64, i64 } %13, 1, !dbg !2036
; invoke <core::option::Option<T> as core::ops::try_trait::Try>::branch
  %14 = invoke { i64, i64 } @"_ZN75_$LT$core..option..Option$LT$T$GT$$u20$as$u20$core..ops..try_trait..Try$GT$6branch17h87679cd9f9961d81E"(i64 %_9.0, i64 %_9.1)
          to label %bb5 unwind label %cleanup, !dbg !2036

bb5:                                              ; preds = %bb4
  %15 = extractvalue { i64, i64 } %14, 0, !dbg !2036
  %16 = extractvalue { i64, i64 } %14, 1, !dbg !2036
  store i64 %15, ptr %_8, align 8, !dbg !2036
  %17 = getelementptr inbounds i8, ptr %_8, i64 8, !dbg !2036
  store i64 %16, ptr %17, align 8, !dbg !2036
  %_13 = load i64, ptr %_8, align 8, !dbg !2036
  %18 = getelementptr inbounds i8, ptr %_8, i64 8, !dbg !2036
  %19 = load i64, ptr %18, align 8, !dbg !2036
  %20 = trunc nuw i64 %_13 to i1, !dbg !2036
  br i1 %20, label %bb8, label %bb7, !dbg !2036

bb8:                                              ; preds = %bb5
; invoke <core::option::Option<T> as core::ops::try_trait::FromResidual<core::option::Option<core::convert::Infallible>>>::from_residual
  %21 = invoke { i64, i64 } @"_ZN145_$LT$core..option..Option$LT$T$GT$$u20$as$u20$core..ops..try_trait..FromResidual$LT$core..option..Option$LT$core..convert..Infallible$GT$$GT$$GT$13from_residual17h60ff51a2c2ccc921E"()
          to label %bb9 unwind label %cleanup, !dbg !2038

bb7:                                              ; preds = %bb5
  %22 = getelementptr inbounds i8, ptr %_8, i64 8, !dbg !2036
  %val = load i64, ptr %22, align 8, !dbg !2036
  store i64 %val, ptr %val.dbg.spill, align 8, !dbg !2036
    #dbg_declare(ptr %val.dbg.spill, !2017, !DIExpression(), !2039)
  store i8 1, ptr %_17, align 1, !dbg !2040
  store i64 %val, ptr %accum, align 8, !dbg !2040
  br label %bb1, !dbg !2030

bb9:                                              ; preds = %bb8
  %23 = extractvalue { i64, i64 } %21, 0, !dbg !2038
  %24 = extractvalue { i64, i64 } %21, 1, !dbg !2038
  store i64 %23, ptr %_0, align 8, !dbg !2038
  %25 = getelementptr inbounds i8, ptr %_0, i64 8, !dbg !2038
  store i64 %24, ptr %25, align 8, !dbg !2038
  br label %bb13, !dbg !2032

bb13:                                             ; preds = %bb12, %bb9
  %26 = load i64, ptr %_0, align 8, !dbg !2041
  %27 = getelementptr inbounds i8, ptr %_0, i64 8, !dbg !2041
  %28 = load i64, ptr %27, align 8, !dbg !2041
  %29 = insertvalue { i64, i64 } poison, i64 %26, 0, !dbg !2041
  %30 = insertvalue { i64, i64 } %29, i64 %28, 1, !dbg !2041
  ret { i64, i64 } %30, !dbg !2041

bb11:                                             ; preds = %bb10
  store i8 0, ptr %_17, align 1, !dbg !2042
  %_16 = load i64, ptr %accum, align 8, !dbg !2042
; invoke <core::option::Option<T> as core::ops::try_trait::Try>::from_output
  %31 = invoke { i64, i64 } @"_ZN75_$LT$core..option..Option$LT$T$GT$$u20$as$u20$core..ops..try_trait..Try$GT$11from_output17hd32445ccf91095ceE"(i64 %_16)
          to label %bb12 unwind label %cleanup, !dbg !2042

bb12:                                             ; preds = %bb11
  %32 = extractvalue { i64, i64 } %31, 0, !dbg !2042
  %33 = extractvalue { i64, i64 } %31, 1, !dbg !2042
  store i64 %32, ptr %_0, align 8, !dbg !2042
  %34 = getelementptr inbounds i8, ptr %_0, i64 8, !dbg !2042
  store i64 %33, ptr %34, align 8, !dbg !2042
  br label %bb13, !dbg !2032

bb6:                                              ; No predecessors!
  unreachable, !dbg !2036

bb14:                                             ; preds = %bb16, %bb17
  %35 = load ptr, ptr %1, align 8, !dbg !2043
  %36 = getelementptr inbounds i8, ptr %1, i64 8, !dbg !2043
  %37 = load i32, ptr %36, align 8, !dbg !2043
  %38 = insertvalue { ptr, i32 } poison, ptr %35, 0, !dbg !2043
  %39 = insertvalue { ptr, i32 } %38, i32 %37, 1, !dbg !2043
  resume { ptr, i32 } %39, !dbg !2043

bb16:                                             ; preds = %bb17
  br label %bb14, !dbg !2032
}

; core::iter::adapters::map::map_try_fold::{{closure}}
; Function Attrs: inlinehint nonlazybind uwtable
define internal { i64, i64 } @"_ZN4core4iter8adapters3map12map_try_fold28_$u7b$$u7b$closure$u7d$$u7d$17h1864a877c4d80d77E"(ptr align 8 %_1, i64 %acc, ptr align 8 %elt) unnamed_addr #1 personality ptr @rust_eh_personality !dbg !2044 {
start:
  %0 = alloca [16 x i8], align 8
  %elt.dbg.spill = alloca [8 x i8], align 8
  %acc.dbg.spill = alloca [8 x i8], align 8
  %_1.dbg.spill = alloca [8 x i8], align 8
  %_10 = alloca [1 x i8], align 1
  store ptr %_1, ptr %_1.dbg.spill, align 8
    #dbg_declare(ptr %_1.dbg.spill, !2051, !DIExpression(DW_OP_deref, DW_OP_plus_uconst, 8), !2057)
    #dbg_declare(ptr %_1.dbg.spill, !2052, !DIExpression(DW_OP_deref), !2058)
  store i64 %acc, ptr %acc.dbg.spill, align 8
    #dbg_declare(ptr %acc.dbg.spill, !2049, !DIExpression(), !2059)
  store ptr %elt, ptr %elt.dbg.spill, align 8
    #dbg_declare(ptr %elt.dbg.spill, !2050, !DIExpression(), !2060)
  %_4 = getelementptr inbounds i8, ptr %_1, i64 8, !dbg !2061
  store i8 1, ptr %_10, align 1, !dbg !2062
  %_9 = load ptr, ptr %_1, align 8, !dbg !2063
; invoke alloc::str::join_generic_copy::{{closure}}::{{closure}}
  %_7 = invoke i64 @"_ZN5alloc3str17join_generic_copy28_$u7b$$u7b$closure$u7d$$u7d$28_$u7b$$u7b$closure$u7d$$u7d$17h6e73de9decd2f227E"(ptr align 1 %_9, ptr align 8 %elt)
          to label %bb1 unwind label %cleanup, !dbg !2063

bb5:                                              ; preds = %cleanup
  %1 = load i8, ptr %_10, align 1, !dbg !2064
  %2 = trunc nuw i8 %1 to i1, !dbg !2064
  br i1 %2, label %bb4, label %bb3, !dbg !2064

cleanup:                                          ; preds = %bb1, %start
  %3 = landingpad { ptr, i32 }
          cleanup
  %4 = extractvalue { ptr, i32 } %3, 0
  %5 = extractvalue { ptr, i32 } %3, 1
  store ptr %4, ptr %0, align 8
  %6 = getelementptr inbounds i8, ptr %0, i64 8
  store i32 %5, ptr %6, align 8
  br label %bb5

bb1:                                              ; preds = %start
  store i8 0, ptr %_10, align 1, !dbg !2061
; invoke core::ops::function::FnMut::call_mut
  %7 = invoke { i64, i64 } @_ZN4core3ops8function5FnMut8call_mut17h65bb3e4f9c8cdaefE(ptr align 1 %_4, i64 %acc, i64 %_7)
          to label %bb2 unwind label %cleanup, !dbg !2061

bb2:                                              ; preds = %bb1
  %_0.0 = extractvalue { i64, i64 } %7, 0, !dbg !2061
  %_0.1 = extractvalue { i64, i64 } %7, 1, !dbg !2061
  %8 = insertvalue { i64, i64 } poison, i64 %_0.0, 0, !dbg !2065
  %9 = insertvalue { i64, i64 } %8, i64 %_0.1, 1, !dbg !2065
  ret { i64, i64 } %9, !dbg !2065

bb3:                                              ; preds = %bb4, %bb5
  %10 = load ptr, ptr %0, align 8, !dbg !2066
  %11 = getelementptr inbounds i8, ptr %0, i64 8, !dbg !2066
  %12 = load i32, ptr %11, align 8, !dbg !2066
  %13 = insertvalue { ptr, i32 } poison, ptr %10, 0, !dbg !2066
  %14 = insertvalue { ptr, i32 } %13, i32 %12, 1, !dbg !2066
  resume { ptr, i32 } %14, !dbg !2066

bb4:                                              ; preds = %bb5
  br label %bb3, !dbg !2064
}

; core::iter::adapters::map::map_fold::{{closure}}
; Function Attrs: inlinehint nonlazybind uwtable
define internal void @"_ZN4core4iter8adapters3map8map_fold28_$u7b$$u7b$closure$u7d$$u7d$17hb5599f03e89b5cb5E"(ptr align 8 %_1, ptr align 4 %elt) unnamed_addr #1 personality ptr @rust_eh_personality !dbg !2067 {
start:
  %0 = alloca [16 x i8], align 8
  %elt.dbg.spill = alloca [8 x i8], align 8
  %acc.dbg.spill = alloca [0 x i8], align 1
  %_1.dbg.spill = alloca [8 x i8], align 8
  %_10 = alloca [1 x i8], align 1
  %_7 = alloca [24 x i8], align 8
  %_5 = alloca [24 x i8], align 8
  store ptr %_1, ptr %_1.dbg.spill, align 8
    #dbg_declare(ptr %_1.dbg.spill, !2074, !DIExpression(DW_OP_deref), !2076)
    #dbg_declare(ptr %_1.dbg.spill, !2075, !DIExpression(DW_OP_deref, DW_OP_plus_uconst, 24), !2077)
    #dbg_declare(ptr %acc.dbg.spill, !2072, !DIExpression(), !2078)
  store ptr %elt, ptr %elt.dbg.spill, align 8
    #dbg_declare(ptr %elt.dbg.spill, !2073, !DIExpression(), !2079)
  store i8 1, ptr %_10, align 1, !dbg !2080
  %_8 = getelementptr inbounds i8, ptr %_1, i64 24, !dbg !2081
; invoke variables::fibonacci_sequence::{{closure}}
  invoke void @"_ZN9variables18fibonacci_sequence28_$u7b$$u7b$closure$u7d$$u7d$17he8b43739014e79d5E"(ptr sret([24 x i8]) align 8 %_7, ptr align 1 %_8, ptr align 4 %elt)
          to label %bb1 unwind label %cleanup, !dbg !2081

bb5:                                              ; preds = %cleanup
  %1 = load i8, ptr %_10, align 1, !dbg !2082
  %2 = trunc nuw i8 %1 to i1, !dbg !2082
  br i1 %2, label %bb4, label %bb3, !dbg !2082

cleanup:                                          ; preds = %bb1, %start
  %3 = landingpad { ptr, i32 }
          cleanup
  %4 = extractvalue { ptr, i32 } %3, 0
  %5 = extractvalue { ptr, i32 } %3, 1
  store ptr %4, ptr %0, align 8
  %6 = getelementptr inbounds i8, ptr %0, i64 8
  store i32 %5, ptr %6, align 8
  br label %bb5

bb1:                                              ; preds = %start
  store i8 0, ptr %_10, align 1, !dbg !2083
  call void @llvm.memcpy.p0.p0.i64(ptr align 8 %_5, ptr align 8 %_7, i64 24, i1 false), !dbg !2083
; invoke core::iter::traits::iterator::Iterator::for_each::call::{{closure}}
  invoke void @"_ZN4core4iter6traits8iterator8Iterator8for_each4call28_$u7b$$u7b$closure$u7d$$u7d$17h269c78c52d4b5274E"(ptr align 8 %_1, ptr align 8 %_5)
          to label %bb2 unwind label %cleanup, !dbg !2083

bb2:                                              ; preds = %bb1
  ret void, !dbg !2084

bb3:                                              ; preds = %bb4, %bb5
  %7 = load ptr, ptr %0, align 8, !dbg !2085
  %8 = getelementptr inbounds i8, ptr %0, i64 8, !dbg !2085
  %9 = load i32, ptr %8, align 8, !dbg !2085
  %10 = insertvalue { ptr, i32 } poison, ptr %7, 0, !dbg !2085
  %11 = insertvalue { ptr, i32 } %10, i32 %9, 1, !dbg !2085
  resume { ptr, i32 } %11, !dbg !2085

bb4:                                              ; preds = %bb5
  br label %bb3, !dbg !2082
}

; core::alloc::layout::Layout::from_size_align_unchecked::precondition_check
; Function Attrs: inlinehint nounwind nonlazybind uwtable
define internal void @_ZN4core5alloc6layout6Layout25from_size_align_unchecked18precondition_check17h53072e6af1582a53E(i64 %size, i64 %align) unnamed_addr #2 personality ptr @rust_eh_personality !dbg !2086 {
start:
  %align.dbg.spill = alloca [8 x i8], align 8
  %size.dbg.spill = alloca [8 x i8], align 8
  store i64 %size, ptr %size.dbg.spill, align 8
    #dbg_declare(ptr %size.dbg.spill, !2092, !DIExpression(), !2094)
  store i64 %align, ptr %align.dbg.spill, align 8
    #dbg_declare(ptr %align.dbg.spill, !2093, !DIExpression(), !2094)
; invoke core::alloc::layout::Layout::is_size_align_valid
  %_3 = invoke zeroext i1 @_ZN4core5alloc6layout6Layout19is_size_align_valid17h31bb701b0d172f18E(i64 %size, i64 %align)
          to label %bb1 unwind label %terminate, !dbg !2095

terminate:                                        ; preds = %start
  %0 = landingpad { ptr, i32 }
          filter [0 x ptr] zeroinitializer
  %1 = extractvalue { ptr, i32 } %0, 0
  %2 = extractvalue { ptr, i32 } %0, 1
; call core::panicking::panic_cannot_unwind
  call void @_ZN4core9panicking19panic_cannot_unwind17hb8732afd89555502E() #21, !dbg !2098
  unreachable, !dbg !2098

bb1:                                              ; preds = %start
  br i1 %_3, label %bb2, label %bb3, !dbg !2095

bb3:                                              ; preds = %bb1
; call core::panicking::panic_nounwind
  call void @_ZN4core9panicking14panic_nounwind17h0c59dc9f7f043eadE(ptr align 1 @alloc_1be5ea12ba708d9a11b6e93a7d387a75, i64 281) #18, !dbg !2099
  unreachable, !dbg !2099

bb2:                                              ; preds = %bb1
  ret void, !dbg !2100
}

; core::slice::<impl [T]>::copy_from_slice
; Function Attrs: inlinehint nonlazybind uwtable
define internal void @"_ZN4core5slice29_$LT$impl$u20$$u5b$T$u5d$$GT$15copy_from_slice17h506442b2f1ca0c87E"(ptr align 1 %self.0, i64 %self.1, ptr align 1 %src.0, i64 %src.1, ptr align 8 %0) unnamed_addr #1 !dbg !2101 {
start:
  %dst.dbg.spill = alloca [8 x i8], align 8
  %src.dbg.spill1 = alloca [8 x i8], align 8
  %count.dbg.spill = alloca [8 x i8], align 8
  %src.dbg.spill = alloca [16 x i8], align 8
  %self.dbg.spill = alloca [16 x i8], align 8
  store ptr %self.0, ptr %self.dbg.spill, align 8
  %1 = getelementptr inbounds i8, ptr %self.dbg.spill, i64 8
  store i64 %self.1, ptr %1, align 8
    #dbg_declare(ptr %self.dbg.spill, !2123, !DIExpression(), !2127)
    #dbg_declare(ptr %self.dbg.spill, !2128, !DIExpression(), !2134)
  store ptr %src.0, ptr %src.dbg.spill, align 8
  %2 = getelementptr inbounds i8, ptr %src.dbg.spill, i64 8
  store i64 %src.1, ptr %2, align 8
    #dbg_declare(ptr %src.dbg.spill, !2124, !DIExpression(), !2136)
    #dbg_declare(ptr %src.dbg.spill, !2137, !DIExpression(), !2143)
  store i64 %self.1, ptr %count.dbg.spill, align 8, !dbg !2145
    #dbg_declare(ptr %count.dbg.spill, !2146, !DIExpression(), !2153)
  %_3 = icmp ne i64 %self.1, %src.1, !dbg !2145
  br i1 %_3, label %bb1, label %bb2, !dbg !2145

bb2:                                              ; preds = %start
  store ptr %src.0, ptr %src.dbg.spill1, align 8, !dbg !2155
    #dbg_declare(ptr %src.dbg.spill1, !2151, !DIExpression(), !2156)
  store ptr %self.0, ptr %dst.dbg.spill, align 8, !dbg !2157
    #dbg_declare(ptr %dst.dbg.spill, !2152, !DIExpression(), !2158)
  br label %bb3, !dbg !2159

bb1:                                              ; preds = %start
; call core::slice::<impl [T]>::copy_from_slice::len_mismatch_fail
  call void @"_ZN4core5slice29_$LT$impl$u20$$u5b$T$u5d$$GT$15copy_from_slice17len_mismatch_fail17hcb07c599de0a38a3E"(i64 %self.1, i64 %src.1, ptr align 8 %0) #19, !dbg !2161
  unreachable, !dbg !2161

bb3:                                              ; preds = %bb2
; call core::intrinsics::copy_nonoverlapping::precondition_check
  call void @_ZN4core10intrinsics19copy_nonoverlapping18precondition_check17hc81675b7eb28c56aE(ptr %src.0, ptr %self.0, i64 1, i64 1, i64 %self.1) #22, !dbg !2162
  br label %bb5, !dbg !2163

bb5:                                              ; preds = %bb3
  %3 = mul i64 %self.1, 1, !dbg !2164
  call void @llvm.memcpy.p0.p0.i64(ptr align 1 %self.0, ptr align 1 %src.0, i64 %3, i1 false), !dbg !2164
  ret void, !dbg !2165
}

; core::slice::<impl [T]>::split_at_mut_unchecked
; Function Attrs: inlinehint nonlazybind uwtable
define internal void @"_ZN4core5slice29_$LT$impl$u20$$u5b$T$u5d$$GT$22split_at_mut_unchecked17hf356a30103ff69fbE"(ptr sret([32 x i8]) align 8 %_0, ptr align 1 %self.0, i64 %self.1, i64 %mid) unnamed_addr #1 !dbg !2166 {
start:
  %count.dbg.spill = alloca [8 x i8], align 8
  %self.dbg.spill2 = alloca [8 x i8], align 8
  %len.dbg.spill1 = alloca [8 x i8], align 8
  %data.dbg.spill = alloca [8 x i8], align 8
  %ptr.dbg.spill = alloca [8 x i8], align 8
  %len.dbg.spill = alloca [8 x i8], align 8
  %mid.dbg.spill = alloca [8 x i8], align 8
  %self.dbg.spill = alloca [16 x i8], align 8
  %len = alloca [8 x i8], align 8
  %data = alloca [8 x i8], align 8
  %_7 = alloca [16 x i8], align 8
  store ptr %self.0, ptr %self.dbg.spill, align 8
  %0 = getelementptr inbounds i8, ptr %self.dbg.spill, i64 8
  store i64 %self.1, ptr %0, align 8
    #dbg_declare(ptr %self.dbg.spill, !2174, !DIExpression(), !2180)
    #dbg_declare(ptr %self.dbg.spill, !2181, !DIExpression(), !2184)
  store i64 %mid, ptr %mid.dbg.spill, align 8
    #dbg_declare(ptr %mid.dbg.spill, !2175, !DIExpression(), !2186)
    #dbg_declare(ptr %data, !2187, !DIExpression(), !2195)
    #dbg_declare(ptr %data, !2197, !DIExpression(), !2207)
    #dbg_declare(ptr %len, !2194, !DIExpression(), !2210)
    #dbg_declare(ptr %len, !2206, !DIExpression(), !2211)
  store i64 %self.1, ptr %len.dbg.spill, align 8, !dbg !2212
    #dbg_declare(ptr %len.dbg.spill, !2176, !DIExpression(), !2213)
  store ptr %self.0, ptr %ptr.dbg.spill, align 8, !dbg !2214
    #dbg_declare(ptr %ptr.dbg.spill, !2178, !DIExpression(), !2215)
  br label %bb1, !dbg !2216

bb1:                                              ; preds = %start
; call core::slice::<impl [T]>::split_at_mut_unchecked::precondition_check
  call void @"_ZN4core5slice29_$LT$impl$u20$$u5b$T$u5d$$GT$22split_at_mut_unchecked18precondition_check17h166830a5a6189009E"(i64 %mid, i64 %self.1) #22, !dbg !2218
  store ptr %self.0, ptr %data.dbg.spill, align 8, !dbg !2219
    #dbg_declare(ptr %data.dbg.spill, !2187, !DIExpression(), !2220)
    #dbg_declare(ptr %data.dbg.spill, !2197, !DIExpression(), !2222)
  store i64 %mid, ptr %len.dbg.spill1, align 8, !dbg !2224
    #dbg_declare(ptr %len.dbg.spill1, !2194, !DIExpression(), !2225)
    #dbg_declare(ptr %len.dbg.spill1, !2206, !DIExpression(), !2226)
  br label %bb3, !dbg !2227

bb3:                                              ; preds = %bb1
; call core::slice::raw::from_raw_parts_mut::precondition_check
  call void @_ZN4core5slice3raw18from_raw_parts_mut18precondition_check17h2e7ee05c764771a0E(ptr %self.0, i64 1, i64 1, i64 %mid) #22, !dbg !2229
  store ptr %self.0, ptr %_7, align 8, !dbg !2230
  %1 = getelementptr inbounds i8, ptr %_7, i64 8, !dbg !2230
  store i64 %mid, ptr %1, align 8, !dbg !2230
  store ptr %self.0, ptr %self.dbg.spill2, align 8, !dbg !2231
    #dbg_declare(ptr %self.dbg.spill2, !2232, !DIExpression(), !2238)
  store i64 %mid, ptr %count.dbg.spill, align 8, !dbg !2240
    #dbg_declare(ptr %count.dbg.spill, !2237, !DIExpression(), !2241)
  %2 = getelementptr inbounds nuw i8, ptr %self.0, i64 %mid, !dbg !2242
  store ptr %2, ptr %data, align 8, !dbg !2242
  %3 = sub nuw i64 %self.1, %mid, !dbg !2243
  store i64 %3, ptr %len, align 8, !dbg !2243
  br label %bb6, !dbg !2244

bb6:                                              ; preds = %bb3
  %_22 = load ptr, ptr %data, align 8, !dbg !2245
  %4 = load i64, ptr %len, align 8, !dbg !2246
; call core::slice::raw::from_raw_parts_mut::precondition_check
  call void @_ZN4core5slice3raw18from_raw_parts_mut18precondition_check17h2e7ee05c764771a0E(ptr %_22, i64 1, i64 1, i64 %4) #22, !dbg !2246
  br label %bb8, !dbg !2247

bb8:                                              ; preds = %bb6
  %_25.0 = load ptr, ptr %data, align 8, !dbg !2248
  %_25.1 = load i64, ptr %len, align 8, !dbg !2248
  %5 = load ptr, ptr %_7, align 8, !dbg !2256
  %6 = getelementptr inbounds i8, ptr %_7, i64 8, !dbg !2256
  %7 = load i64, ptr %6, align 8, !dbg !2256
  store ptr %5, ptr %_0, align 8, !dbg !2256
  %8 = getelementptr inbounds i8, ptr %_0, i64 8, !dbg !2256
  store i64 %7, ptr %8, align 8, !dbg !2256
  %9 = getelementptr inbounds i8, ptr %_0, i64 16, !dbg !2256
  store ptr %_25.0, ptr %9, align 8, !dbg !2256
  %10 = getelementptr inbounds i8, ptr %9, i64 8, !dbg !2256
  store i64 %_25.1, ptr %10, align 8, !dbg !2256
  ret void, !dbg !2257

bb2:                                              ; No predecessors!
  unreachable

bb5:                                              ; No predecessors!
  unreachable
}

; core::slice::<impl [T]>::split_at_mut_unchecked::precondition_check
; Function Attrs: inlinehint nounwind nonlazybind uwtable
define internal void @"_ZN4core5slice29_$LT$impl$u20$$u5b$T$u5d$$GT$22split_at_mut_unchecked18precondition_check17h166830a5a6189009E"(i64 %mid, i64 %len) unnamed_addr #2 !dbg !2258 {
start:
  %len.dbg.spill = alloca [8 x i8], align 8
  %mid.dbg.spill = alloca [8 x i8], align 8
  store i64 %mid, ptr %mid.dbg.spill, align 8
    #dbg_declare(ptr %mid.dbg.spill, !2261, !DIExpression(), !2263)
  store i64 %len, ptr %len.dbg.spill, align 8
    #dbg_declare(ptr %len.dbg.spill, !2262, !DIExpression(), !2263)
  %_3 = icmp ule i64 %mid, %len, !dbg !2264
  br i1 %_3, label %bb1, label %bb2, !dbg !2264

bb2:                                              ; preds = %start
; call core::panicking::panic_nounwind
  call void @_ZN4core9panicking14panic_nounwind17h0c59dc9f7f043eadE(ptr align 1 @alloc_6b0b11c9e93314b588b613b55005cf18, i64 221) #18, !dbg !2266
  unreachable, !dbg !2266

bb1:                                              ; preds = %start
  ret void, !dbg !2267
}

; core::slice::<impl [T]>::iter
; Function Attrs: inlinehint nonlazybind uwtable
define internal { ptr, ptr } @"_ZN4core5slice29_$LT$impl$u20$$u5b$T$u5d$$GT$4iter17hb480f097a730ea76E"(ptr align 4 %self.0, i64 %self.1) unnamed_addr #1 !dbg !2268 {
start:
  %self.dbg.spill = alloca [16 x i8], align 8
  store ptr %self.0, ptr %self.dbg.spill, align 8
  %0 = getelementptr inbounds i8, ptr %self.dbg.spill, i64 8
  store i64 %self.1, ptr %0, align 8
    #dbg_declare(ptr %self.dbg.spill, !2270, !DIExpression(), !2271)
; call core::slice::iter::Iter<T>::new
  %1 = call { ptr, ptr } @"_ZN4core5slice4iter13Iter$LT$T$GT$3new17h119db15be3a66387E"(ptr align 4 %self.0, i64 %self.1), !dbg !2272
  %_0.0 = extractvalue { ptr, ptr } %1, 0, !dbg !2272
  %_0.1 = extractvalue { ptr, ptr } %1, 1, !dbg !2272
  %2 = insertvalue { ptr, ptr } poison, ptr %_0.0, 0, !dbg !2273
  %3 = insertvalue { ptr, ptr } %2, ptr %_0.1, 1, !dbg !2273
  ret { ptr, ptr } %3, !dbg !2273
}

; core::slice::raw::from_raw_parts::precondition_check
; Function Attrs: inlinehint nounwind nonlazybind uwtable
define internal void @_ZN4core5slice3raw14from_raw_parts18precondition_check17hfa653467a729f925E(ptr %data, i64 %size, i64 %align, i64 %len) unnamed_addr #2 personality ptr @rust_eh_personality !dbg !2274 {
start:
  %0 = alloca [4 x i8], align 4
  %ptr.dbg.spill = alloca [8 x i8], align 8
  %pieces.dbg.spill = alloca [8 x i8], align 8
  %is_zst.dbg.spill1 = alloca [1 x i8], align 1
  %is_zst.dbg.spill = alloca [1 x i8], align 1
  %len.dbg.spill = alloca [8 x i8], align 8
  %align.dbg.spill = alloca [8 x i8], align 8
  %size.dbg.spill = alloca [8 x i8], align 8
  %data.dbg.spill = alloca [8 x i8], align 8
  %max_len = alloca [8 x i8], align 8
  %_11 = alloca [48 x i8], align 8
  store ptr %data, ptr %data.dbg.spill, align 8
    #dbg_declare(ptr %data.dbg.spill, !2279, !DIExpression(), !2283)
  store i64 %size, ptr %size.dbg.spill, align 8
    #dbg_declare(ptr %size.dbg.spill, !2280, !DIExpression(), !2283)
    #dbg_declare(ptr %size.dbg.spill, !2284, !DIExpression(), !2292)
  store i64 %align, ptr %align.dbg.spill, align 8
    #dbg_declare(ptr %align.dbg.spill, !2281, !DIExpression(), !2283)
    #dbg_declare(ptr %align.dbg.spill, !2295, !DIExpression(), !2300)
    #dbg_declare(ptr %align.dbg.spill, !2302, !DIExpression(), !2307)
    #dbg_declare(ptr %align.dbg.spill, !2310, !DIExpression(), !2314)
    #dbg_declare(ptr %align.dbg.spill, !2317, !DIExpression(), !2320)
    #dbg_declare(ptr %align.dbg.spill, !2322, !DIExpression(), !2325)
  store i64 %len, ptr %len.dbg.spill, align 8
    #dbg_declare(ptr %len.dbg.spill, !2282, !DIExpression(), !2283)
    #dbg_declare(ptr %len.dbg.spill, !2289, !DIExpression(), !2327)
    #dbg_declare(ptr %max_len, !2290, !DIExpression(), !2328)
  store i8 0, ptr %is_zst.dbg.spill, align 1, !dbg !2329
    #dbg_declare(ptr %is_zst.dbg.spill, !2299, !DIExpression(), !2329)
  store i8 0, ptr %is_zst.dbg.spill1, align 1, !dbg !2307
    #dbg_declare(ptr %is_zst.dbg.spill1, !2306, !DIExpression(), !2307)
  store ptr @alloc_e92e94d0ff530782b571cfd99ec66aef, ptr %pieces.dbg.spill, align 8, !dbg !2330
    #dbg_declare(ptr %pieces.dbg.spill, !2333, !DIExpression(), !2330)
  store ptr %data, ptr %ptr.dbg.spill, align 8, !dbg !2335
    #dbg_declare(ptr %ptr.dbg.spill, !2298, !DIExpression(), !2336)
    #dbg_declare(ptr %ptr.dbg.spill, !2305, !DIExpression(), !2307)
    #dbg_declare(ptr %ptr.dbg.spill, !2313, !DIExpression(), !2337)
    #dbg_declare(ptr %ptr.dbg.spill, !2338, !DIExpression(), !2341)
    #dbg_declare(ptr %ptr.dbg.spill, !2343, !DIExpression(), !2346)
    #dbg_declare(ptr %ptr.dbg.spill, !2348, !DIExpression(), !2351)
  %1 = call i64 @llvm.ctpop.i64(i64 %align), !dbg !2353
  %2 = trunc i64 %1 to i32, !dbg !2353
  store i32 %2, ptr %0, align 4, !dbg !2353
  %_15 = load i32, ptr %0, align 4, !dbg !2353
  %3 = icmp eq i32 %_15, 1, !dbg !2354
  br i1 %3, label %bb8, label %bb9, !dbg !2354

bb8:                                              ; preds = %start
  %_13 = ptrtoint ptr %data to i64, !dbg !2355
  %_14 = sub i64 %align, 1, !dbg !2356
  %_12 = and i64 %_13, %_14, !dbg !2357
  %4 = icmp eq i64 %_12, 0, !dbg !2358
  br i1 %4, label %bb6, label %bb7, !dbg !2358

bb9:                                              ; preds = %start
  store ptr @alloc_e92e94d0ff530782b571cfd99ec66aef, ptr %_11, align 8, !dbg !2359
  %5 = getelementptr inbounds i8, ptr %_11, i64 8, !dbg !2359
  store i64 1, ptr %5, align 8, !dbg !2359
  %6 = load ptr, ptr @anon.60f91fde1ce0e38296af11bc775d42ab.0, align 8, !dbg !2359
  %7 = load i64, ptr getelementptr inbounds (i8, ptr @anon.60f91fde1ce0e38296af11bc775d42ab.0, i64 8), align 8, !dbg !2359
  %8 = getelementptr inbounds i8, ptr %_11, i64 32, !dbg !2359
  store ptr %6, ptr %8, align 8, !dbg !2359
  %9 = getelementptr inbounds i8, ptr %8, i64 8, !dbg !2359
  store i64 %7, ptr %9, align 8, !dbg !2359
  %10 = getelementptr inbounds i8, ptr %_11, i64 16, !dbg !2359
  store ptr inttoptr (i64 8 to ptr), ptr %10, align 8, !dbg !2359
  %11 = getelementptr inbounds i8, ptr %10, i64 8, !dbg !2359
  store i64 0, ptr %11, align 8, !dbg !2359
; invoke core::panicking::panic_fmt
  invoke void @_ZN4core9panicking9panic_fmt17hc8737e8cca20a7c8E(ptr align 8 %_11, ptr align 8 @alloc_7dfa5b04edcaa6d5675eb0d888192370) #19
          to label %unreachable unwind label %terminate, !dbg !2334

bb6:                                              ; preds = %bb8
  %_9 = icmp eq i64 %_13, 0, !dbg !2360
  %_5 = xor i1 %_9, true, !dbg !2366
  br i1 %_5, label %bb1, label %bb4, !dbg !2301

bb7:                                              ; preds = %bb8
  br label %bb4, !dbg !2301

bb4:                                              ; preds = %bb7, %bb6
  br label %bb5, !dbg !2367

bb1:                                              ; preds = %bb6
  %_19 = icmp eq i64 %size, 0, !dbg !2369
  %12 = icmp eq i64 %size, 0, !dbg !2369
  br i1 %12, label %bb11, label %bb12, !dbg !2369

bb11:                                             ; preds = %bb1
  store i64 -1, ptr %max_len, align 8, !dbg !2370
  br label %bb14, !dbg !2371

bb12:                                             ; preds = %bb1
  br i1 %_19, label %panic, label %bb13, !dbg !2372

bb14:                                             ; preds = %bb13, %bb11
  %_20 = load i64, ptr %max_len, align 8, !dbg !2373
  %_7 = icmp ule i64 %len, %_20, !dbg !2374
  br i1 %_7, label %bb2, label %bb3, !dbg !2293

bb13:                                             ; preds = %bb12
  %13 = udiv i64 9223372036854775807, %size, !dbg !2372
  store i64 %13, ptr %max_len, align 8, !dbg !2372
  br label %bb14, !dbg !2371

panic:                                            ; preds = %bb12
; invoke core::panicking::panic_const::panic_const_div_by_zero
  invoke void @_ZN4core9panicking11panic_const23panic_const_div_by_zero17h1a56129937414368E(ptr align 8 @alloc_b18b240f2935a488311f19da48231f62) #19
          to label %unreachable unwind label %terminate, !dbg !2372

terminate:                                        ; preds = %bb9, %panic
  %14 = landingpad { ptr, i32 }
          filter [0 x ptr] zeroinitializer
  %15 = extractvalue { ptr, i32 } %14, 0
  %16 = extractvalue { ptr, i32 } %14, 1
; call core::panicking::panic_cannot_unwind
  call void @_ZN4core9panicking19panic_cannot_unwind17hb8732afd89555502E() #21, !dbg !2375
  unreachable, !dbg !2375

unreachable:                                      ; preds = %bb9, %panic
  unreachable

bb3:                                              ; preds = %bb14
  br label %bb5, !dbg !2367

bb2:                                              ; preds = %bb14
  ret void, !dbg !2376

bb5:                                              ; preds = %bb4, %bb3
; call core::panicking::panic_nounwind
  call void @_ZN4core9panicking14panic_nounwind17h0c59dc9f7f043eadE(ptr align 1 @alloc_a28e8c8fd5088943a8b5d44af697ff83, i64 279) #18, !dbg !2377
  unreachable, !dbg !2377
}

; core::slice::raw::from_raw_parts_mut::precondition_check
; Function Attrs: inlinehint nounwind nonlazybind uwtable
define internal void @_ZN4core5slice3raw18from_raw_parts_mut18precondition_check17h2e7ee05c764771a0E(ptr %data, i64 %size, i64 %align, i64 %len) unnamed_addr #2 personality ptr @rust_eh_personality !dbg !2378 {
start:
  %0 = alloca [4 x i8], align 4
  %ptr.dbg.spill = alloca [8 x i8], align 8
  %pieces.dbg.spill = alloca [8 x i8], align 8
  %is_zst.dbg.spill1 = alloca [1 x i8], align 1
  %is_zst.dbg.spill = alloca [1 x i8], align 1
  %len.dbg.spill = alloca [8 x i8], align 8
  %align.dbg.spill = alloca [8 x i8], align 8
  %size.dbg.spill = alloca [8 x i8], align 8
  %data.dbg.spill = alloca [8 x i8], align 8
  %max_len = alloca [8 x i8], align 8
  %_11 = alloca [48 x i8], align 8
  store ptr %data, ptr %data.dbg.spill, align 8
    #dbg_declare(ptr %data.dbg.spill, !2381, !DIExpression(), !2385)
  store i64 %size, ptr %size.dbg.spill, align 8
    #dbg_declare(ptr %size.dbg.spill, !2382, !DIExpression(), !2385)
    #dbg_declare(ptr %size.dbg.spill, !2386, !DIExpression(), !2392)
  store i64 %align, ptr %align.dbg.spill, align 8
    #dbg_declare(ptr %align.dbg.spill, !2383, !DIExpression(), !2385)
    #dbg_declare(ptr %align.dbg.spill, !2395, !DIExpression(), !2400)
    #dbg_declare(ptr %align.dbg.spill, !2402, !DIExpression(), !2407)
    #dbg_declare(ptr %align.dbg.spill, !2410, !DIExpression(), !2414)
    #dbg_declare(ptr %align.dbg.spill, !2417, !DIExpression(), !2420)
    #dbg_declare(ptr %align.dbg.spill, !2422, !DIExpression(), !2425)
  store i64 %len, ptr %len.dbg.spill, align 8
    #dbg_declare(ptr %len.dbg.spill, !2384, !DIExpression(), !2385)
    #dbg_declare(ptr %len.dbg.spill, !2389, !DIExpression(), !2427)
    #dbg_declare(ptr %max_len, !2390, !DIExpression(), !2428)
  store i8 0, ptr %is_zst.dbg.spill, align 1, !dbg !2429
    #dbg_declare(ptr %is_zst.dbg.spill, !2399, !DIExpression(), !2429)
  store i8 0, ptr %is_zst.dbg.spill1, align 1, !dbg !2407
    #dbg_declare(ptr %is_zst.dbg.spill1, !2406, !DIExpression(), !2407)
  store ptr @alloc_e92e94d0ff530782b571cfd99ec66aef, ptr %pieces.dbg.spill, align 8, !dbg !2430
    #dbg_declare(ptr %pieces.dbg.spill, !2433, !DIExpression(), !2430)
  store ptr %data, ptr %ptr.dbg.spill, align 8, !dbg !2435
    #dbg_declare(ptr %ptr.dbg.spill, !2398, !DIExpression(), !2436)
    #dbg_declare(ptr %ptr.dbg.spill, !2405, !DIExpression(), !2407)
    #dbg_declare(ptr %ptr.dbg.spill, !2413, !DIExpression(), !2437)
    #dbg_declare(ptr %ptr.dbg.spill, !2438, !DIExpression(), !2441)
    #dbg_declare(ptr %ptr.dbg.spill, !2443, !DIExpression(), !2446)
    #dbg_declare(ptr %ptr.dbg.spill, !2448, !DIExpression(), !2451)
  %1 = call i64 @llvm.ctpop.i64(i64 %align), !dbg !2453
  %2 = trunc i64 %1 to i32, !dbg !2453
  store i32 %2, ptr %0, align 4, !dbg !2453
  %_15 = load i32, ptr %0, align 4, !dbg !2453
  %3 = icmp eq i32 %_15, 1, !dbg !2454
  br i1 %3, label %bb8, label %bb9, !dbg !2454

bb8:                                              ; preds = %start
  %_13 = ptrtoint ptr %data to i64, !dbg !2455
  %_14 = sub i64 %align, 1, !dbg !2456
  %_12 = and i64 %_13, %_14, !dbg !2457
  %4 = icmp eq i64 %_12, 0, !dbg !2458
  br i1 %4, label %bb6, label %bb7, !dbg !2458

bb9:                                              ; preds = %start
  store ptr @alloc_e92e94d0ff530782b571cfd99ec66aef, ptr %_11, align 8, !dbg !2459
  %5 = getelementptr inbounds i8, ptr %_11, i64 8, !dbg !2459
  store i64 1, ptr %5, align 8, !dbg !2459
  %6 = load ptr, ptr @anon.60f91fde1ce0e38296af11bc775d42ab.0, align 8, !dbg !2459
  %7 = load i64, ptr getelementptr inbounds (i8, ptr @anon.60f91fde1ce0e38296af11bc775d42ab.0, i64 8), align 8, !dbg !2459
  %8 = getelementptr inbounds i8, ptr %_11, i64 32, !dbg !2459
  store ptr %6, ptr %8, align 8, !dbg !2459
  %9 = getelementptr inbounds i8, ptr %8, i64 8, !dbg !2459
  store i64 %7, ptr %9, align 8, !dbg !2459
  %10 = getelementptr inbounds i8, ptr %_11, i64 16, !dbg !2459
  store ptr inttoptr (i64 8 to ptr), ptr %10, align 8, !dbg !2459
  %11 = getelementptr inbounds i8, ptr %10, i64 8, !dbg !2459
  store i64 0, ptr %11, align 8, !dbg !2459
; invoke core::panicking::panic_fmt
  invoke void @_ZN4core9panicking9panic_fmt17hc8737e8cca20a7c8E(ptr align 8 %_11, ptr align 8 @alloc_7dfa5b04edcaa6d5675eb0d888192370) #19
          to label %unreachable unwind label %terminate, !dbg !2434

bb6:                                              ; preds = %bb8
  %_9 = icmp eq i64 %_13, 0, !dbg !2460
  %_5 = xor i1 %_9, true, !dbg !2466
  br i1 %_5, label %bb1, label %bb4, !dbg !2401

bb7:                                              ; preds = %bb8
  br label %bb4, !dbg !2401

bb4:                                              ; preds = %bb7, %bb6
  br label %bb5, !dbg !2467

bb1:                                              ; preds = %bb6
  %_19 = icmp eq i64 %size, 0, !dbg !2469
  %12 = icmp eq i64 %size, 0, !dbg !2469
  br i1 %12, label %bb11, label %bb12, !dbg !2469

bb11:                                             ; preds = %bb1
  store i64 -1, ptr %max_len, align 8, !dbg !2470
  br label %bb14, !dbg !2471

bb12:                                             ; preds = %bb1
  br i1 %_19, label %panic, label %bb13, !dbg !2472

bb14:                                             ; preds = %bb13, %bb11
  %_20 = load i64, ptr %max_len, align 8, !dbg !2473
  %_7 = icmp ule i64 %len, %_20, !dbg !2474
  br i1 %_7, label %bb2, label %bb3, !dbg !2393

bb13:                                             ; preds = %bb12
  %13 = udiv i64 9223372036854775807, %size, !dbg !2472
  store i64 %13, ptr %max_len, align 8, !dbg !2472
  br label %bb14, !dbg !2471

panic:                                            ; preds = %bb12
; invoke core::panicking::panic_const::panic_const_div_by_zero
  invoke void @_ZN4core9panicking11panic_const23panic_const_div_by_zero17h1a56129937414368E(ptr align 8 @alloc_b18b240f2935a488311f19da48231f62) #19
          to label %unreachable unwind label %terminate, !dbg !2472

terminate:                                        ; preds = %bb9, %panic
  %14 = landingpad { ptr, i32 }
          filter [0 x ptr] zeroinitializer
  %15 = extractvalue { ptr, i32 } %14, 0
  %16 = extractvalue { ptr, i32 } %14, 1
; call core::panicking::panic_cannot_unwind
  call void @_ZN4core9panicking19panic_cannot_unwind17hb8732afd89555502E() #21, !dbg !2475
  unreachable, !dbg !2475

unreachable:                                      ; preds = %bb9, %panic
  unreachable

bb3:                                              ; preds = %bb14
  br label %bb5, !dbg !2467

bb2:                                              ; preds = %bb14
  ret void, !dbg !2476

bb5:                                              ; preds = %bb4, %bb3
; call core::panicking::panic_nounwind
  call void @_ZN4core9panicking14panic_nounwind17h0c59dc9f7f043eadE(ptr align 1 @alloc_5c1a2f972552229672fc942406cfc298, i64 283) #18, !dbg !2477
  unreachable, !dbg !2477
}

; core::slice::iter::Iter<T>::new
; Function Attrs: inlinehint nonlazybind uwtable
define internal { ptr, ptr } @"_ZN4core5slice4iter13Iter$LT$T$GT$3new17h119db15be3a66387E"(ptr align 4 %slice.0, i64 %slice.1) unnamed_addr #1 !dbg !2478 {
start:
  %self.dbg.spill1 = alloca [8 x i8], align 8
  %ptr.dbg.spill = alloca [8 x i8], align 8
  %self.dbg.spill = alloca [16 x i8], align 8
  %len.dbg.spill = alloca [8 x i8], align 8
  %slice.dbg.spill = alloca [16 x i8], align 8
  %end_or_len = alloca [8 x i8], align 8
  store ptr %slice.0, ptr %slice.dbg.spill, align 8
  %0 = getelementptr inbounds i8, ptr %slice.dbg.spill, i64 8
  store i64 %slice.1, ptr %0, align 8
    #dbg_declare(ptr %slice.dbg.spill, !2480, !DIExpression(), !2487)
    #dbg_declare(ptr %slice.dbg.spill, !2488, !DIExpression(), !2491)
    #dbg_declare(ptr %end_or_len, !2485, !DIExpression(), !2493)
  store i64 %slice.1, ptr %len.dbg.spill, align 8, !dbg !2494
    #dbg_declare(ptr %len.dbg.spill, !2481, !DIExpression(), !2495)
    #dbg_declare(ptr %len.dbg.spill, !2496, !DIExpression(), !2499)
    #dbg_declare(ptr %len.dbg.spill, !2501, !DIExpression(), !2505)
  store ptr %slice.0, ptr %self.dbg.spill, align 8, !dbg !2507
  %1 = getelementptr inbounds i8, ptr %self.dbg.spill, i64 8, !dbg !2507
  store i64 %slice.1, ptr %1, align 8, !dbg !2507
    #dbg_declare(ptr %self.dbg.spill, !2508, !DIExpression(), !2511)
  store ptr %slice.0, ptr %ptr.dbg.spill, align 8, !dbg !2513
    #dbg_declare(ptr %ptr.dbg.spill, !2483, !DIExpression(), !2514)
    #dbg_declare(ptr %ptr.dbg.spill, !2515, !DIExpression(), !2518)
  br label %bb2, !dbg !2520

bb2:                                              ; preds = %start
  store ptr %slice.0, ptr %self.dbg.spill1, align 8, !dbg !2521
    #dbg_declare(ptr %self.dbg.spill1, !2504, !DIExpression(), !2522)
  %_6 = getelementptr inbounds nuw i32, ptr %slice.0, i64 %slice.1, !dbg !2523
  store ptr %_6, ptr %end_or_len, align 8, !dbg !2524
  br label %bb3, !dbg !2525

bb3:                                              ; preds = %bb2
  %_8 = load ptr, ptr %end_or_len, align 8, !dbg !2526
  %2 = insertvalue { ptr, ptr } poison, ptr %slice.0, 0, !dbg !2527
  %3 = insertvalue { ptr, ptr } %2, ptr %_8, 1, !dbg !2527
  ret { ptr, ptr } %3, !dbg !2527

bb1:                                              ; No predecessors!
  unreachable
}

; core::result::Result<T,E>::expect
; Function Attrs: inlinehint nonlazybind uwtable
define internal void @"_ZN4core6result19Result$LT$T$C$E$GT$6expect17h5f6b71b3d785523fE"(i1 zeroext %self, ptr align 1 %msg.0, i64 %msg.1, ptr align 8 %0) unnamed_addr #1 personality ptr @rust_eh_personality !dbg !2528 {
start:
  %1 = alloca [16 x i8], align 8
  %msg.dbg.spill = alloca [16 x i8], align 8
  %self.dbg.spill = alloca [1 x i8], align 1
  %t.dbg.spill = alloca [0 x i8], align 1
  %e = alloca [0 x i8], align 1
    #dbg_declare(ptr %t.dbg.spill, !2536, !DIExpression(), !2540)
  %2 = zext i1 %self to i8
  store i8 %2, ptr %self.dbg.spill, align 1
    #dbg_declare(ptr %self.dbg.spill, !2534, !DIExpression(), !2541)
  store ptr %msg.0, ptr %msg.dbg.spill, align 8
  %3 = getelementptr inbounds i8, ptr %msg.dbg.spill, i64 8
  store i64 %msg.1, ptr %3, align 8
    #dbg_declare(ptr %msg.dbg.spill, !2535, !DIExpression(), !2542)
    #dbg_declare(ptr %e, !2538, !DIExpression(), !2543)
  %_3 = zext i1 %self to i64, !dbg !2544
  %4 = trunc nuw i64 %_3 to i1, !dbg !2545
  br i1 %4, label %bb2, label %bb3, !dbg !2545

bb2:                                              ; preds = %start
; invoke core::result::unwrap_failed
  invoke void @_ZN4core6result13unwrap_failed17h727108008d9f4c9bE(ptr align 1 %msg.0, i64 %msg.1, ptr align 1 %e, ptr align 8 @vtable.3, ptr align 8 %0) #19
          to label %unreachable unwind label %cleanup, !dbg !2546

bb3:                                              ; preds = %start
  ret void, !dbg !2547

bb4:                                              ; preds = %cleanup
  %5 = load ptr, ptr %1, align 8, !dbg !2548
  %6 = getelementptr inbounds i8, ptr %1, i64 8, !dbg !2548
  %7 = load i32, ptr %6, align 8, !dbg !2548
  %8 = insertvalue { ptr, i32 } poison, ptr %5, 0, !dbg !2548
  %9 = insertvalue { ptr, i32 } %8, i32 %7, 1, !dbg !2548
  resume { ptr, i32 } %9, !dbg !2548

cleanup:                                          ; preds = %bb2
  %10 = landingpad { ptr, i32 }
          cleanup
  %11 = extractvalue { ptr, i32 } %10, 0
  %12 = extractvalue { ptr, i32 } %10, 1
  store ptr %11, ptr %1, align 8
  %13 = getelementptr inbounds i8, ptr %1, i64 8
  store i32 %12, ptr %13, align 8
  br label %bb4

unreachable:                                      ; preds = %bb2
  unreachable

bb1:                                              ; No predecessors!
  unreachable, !dbg !2544
}

; core::ub_checks::maybe_is_nonoverlapping::runtime
; Function Attrs: inlinehint nonlazybind uwtable
define internal zeroext i1 @_ZN4core9ub_checks23maybe_is_nonoverlapping7runtime17hebb4019edb443973E(ptr %src, ptr %dst, i64 %size, i64 %count) unnamed_addr #1 !dbg !2549 {
start:
  %size.dbg.spill2 = alloca [8 x i8], align 8
  %a.dbg.spill = alloca [8 x i8], align 8
  %b.dbg.spill = alloca [1 x i8], align 1
  %dst_usize.dbg.spill = alloca [8 x i8], align 8
  %src_usize.dbg.spill = alloca [8 x i8], align 8
  %count.dbg.spill = alloca [8 x i8], align 8
  %size.dbg.spill = alloca [8 x i8], align 8
  %dst.dbg.spill = alloca [8 x i8], align 8
  %src.dbg.spill = alloca [8 x i8], align 8
  %diff = alloca [8 x i8], align 8
  %_9 = alloca [16 x i8], align 8
  store ptr %src, ptr %src.dbg.spill, align 8
    #dbg_declare(ptr %src.dbg.spill, !2552, !DIExpression(), !2564)
    #dbg_declare(ptr %src.dbg.spill, !2565, !DIExpression(), !2568)
    #dbg_declare(ptr %src.dbg.spill, !2571, !DIExpression(), !2574)
  store ptr %dst, ptr %dst.dbg.spill, align 8
    #dbg_declare(ptr %dst.dbg.spill, !2553, !DIExpression(), !2564)
    #dbg_declare(ptr %dst.dbg.spill, !2565, !DIExpression(), !2576)
    #dbg_declare(ptr %dst.dbg.spill, !2571, !DIExpression(), !2578)
  store i64 %size, ptr %size.dbg.spill, align 8
    #dbg_declare(ptr %size.dbg.spill, !2554, !DIExpression(), !2564)
    #dbg_declare(ptr %size.dbg.spill, !2581, !DIExpression(), !2588)
    #dbg_declare(ptr %size.dbg.spill, !2590, !DIExpression(), !2594)
  store i64 %count, ptr %count.dbg.spill, align 8
    #dbg_declare(ptr %count.dbg.spill, !2555, !DIExpression(), !2564)
    #dbg_declare(ptr %count.dbg.spill, !2584, !DIExpression(), !2596)
    #dbg_declare(ptr %count.dbg.spill, !2593, !DIExpression(), !2597)
    #dbg_declare(ptr %diff, !2562, !DIExpression(), !2598)
  %src_usize = ptrtoint ptr %src to i64, !dbg !2599
  store i64 %src_usize, ptr %src_usize.dbg.spill, align 8, !dbg !2599
    #dbg_declare(ptr %src_usize.dbg.spill, !2556, !DIExpression(), !2600)
    #dbg_declare(ptr %src_usize.dbg.spill, !2601, !DIExpression(), !2607)
  %dst_usize = ptrtoint ptr %dst to i64, !dbg !2609
  store i64 %dst_usize, ptr %dst_usize.dbg.spill, align 8, !dbg !2609
    #dbg_declare(ptr %dst_usize.dbg.spill, !2558, !DIExpression(), !2610)
    #dbg_declare(ptr %dst_usize.dbg.spill, !2606, !DIExpression(), !2611)
  %0 = call { i64, i1 } @llvm.umul.with.overflow.i64(i64 %size, i64 %count), !dbg !2612
  %_14.0 = extractvalue { i64, i1 } %0, 0, !dbg !2612
  %_14.1 = extractvalue { i64, i1 } %0, 1, !dbg !2612
  %1 = zext i1 %_14.1 to i8, !dbg !2613
  store i8 %1, ptr %b.dbg.spill, align 1, !dbg !2613
    #dbg_declare(ptr %b.dbg.spill, !2587, !DIExpression(), !2614)
    #dbg_declare(ptr %b.dbg.spill, !2615, !DIExpression(), !2618)
  store i64 %_14.0, ptr %a.dbg.spill, align 8, !dbg !2620
    #dbg_declare(ptr %a.dbg.spill, !2585, !DIExpression(), !2621)
  br i1 %_14.1, label %bb1, label %bb3, !dbg !2622

bb3:                                              ; preds = %start
  %2 = getelementptr inbounds i8, ptr %_9, i64 8, !dbg !2623
  store i64 %_14.0, ptr %2, align 8, !dbg !2623
  store i64 1, ptr %_9, align 8, !dbg !2623
  %3 = getelementptr inbounds i8, ptr %_9, i64 8, !dbg !2624
  %size1 = load i64, ptr %3, align 8, !dbg !2624
  store i64 %size1, ptr %size.dbg.spill2, align 8, !dbg !2624
    #dbg_declare(ptr %size.dbg.spill2, !2560, !DIExpression(), !2625)
  %_22 = icmp ult i64 %src_usize, %dst_usize, !dbg !2626
  br i1 %_22, label %bb4, label %bb5, !dbg !2626

bb1:                                              ; preds = %start
; call core::panicking::panic_nounwind
  call void @_ZN4core9panicking14panic_nounwind17h0c59dc9f7f043eadE(ptr align 1 @alloc_763310d78c99c2c1ad3f8a9821e942f3, i64 61) #18, !dbg !2627
  unreachable, !dbg !2627

bb5:                                              ; preds = %bb3
  %4 = sub i64 %src_usize, %dst_usize, !dbg !2628
  store i64 %4, ptr %diff, align 8, !dbg !2628
  br label %bb6, !dbg !2629

bb4:                                              ; preds = %bb3
  %5 = sub i64 %dst_usize, %src_usize, !dbg !2630
  store i64 %5, ptr %diff, align 8, !dbg !2630
  br label %bb6, !dbg !2629

bb6:                                              ; preds = %bb4, %bb5
  %_11 = load i64, ptr %diff, align 8, !dbg !2631
  %_0 = icmp uge i64 %_11, %size1, !dbg !2631
  ret i1 %_0, !dbg !2632
}

; <core::fmt::Error as core::fmt::Debug>::fmt
; Function Attrs: inlinehint nonlazybind uwtable
define internal zeroext i1 @"_ZN53_$LT$core..fmt..Error$u20$as$u20$core..fmt..Debug$GT$3fmt17hb54a22f9e2e24d6fE"(ptr align 1 %self, ptr align 8 %f) unnamed_addr #1 !dbg !2633 {
start:
  %f.dbg.spill = alloca [8 x i8], align 8
  %self.dbg.spill = alloca [8 x i8], align 8
  store ptr %self, ptr %self.dbg.spill, align 8
    #dbg_declare(ptr %self.dbg.spill, !2639, !DIExpression(), !2641)
  store ptr %f, ptr %f.dbg.spill, align 8
    #dbg_declare(ptr %f.dbg.spill, !2640, !DIExpression(), !2641)
; call core::fmt::Formatter::write_str
  %_0 = call zeroext i1 @_ZN4core3fmt9Formatter9write_str17hf87901323e3d7ac9E(ptr align 8 %f, ptr align 1 @alloc_99ac8a81a24cac863217ce4a5cbfabea, i64 5), !dbg !2641
  ret i1 %_0, !dbg !2642
}

; <() as std::process::Termination>::report
; Function Attrs: inlinehint nonlazybind uwtable
define internal i8 @"_ZN54_$LT$$LP$$RP$$u20$as$u20$std..process..Termination$GT$6report17hc0bfbf9625380bc6E"() unnamed_addr #1 !dbg !2643 {
start:
  %_1.dbg.spill = alloca [0 x i8], align 1
    #dbg_declare(ptr %_1.dbg.spill, !2648, !DIExpression(), !2649)
  ret i8 0, !dbg !2650
}

; <alloc::string::String as core::fmt::Write>::write_char
; Function Attrs: inlinehint nonlazybind uwtable
define internal zeroext i1 @"_ZN58_$LT$alloc..string..String$u20$as$u20$core..fmt..Write$GT$10write_char17h06b31811cc254cb9E"(ptr align 8 %self, i32 %c) unnamed_addr #1 !dbg !2651 {
start:
  %c.dbg.spill = alloca [4 x i8], align 4
  %self.dbg.spill = alloca [8 x i8], align 8
  store ptr %self, ptr %self.dbg.spill, align 8
    #dbg_declare(ptr %self.dbg.spill, !2657, !DIExpression(), !2659)
  store i32 %c, ptr %c.dbg.spill, align 4
    #dbg_declare(ptr %c.dbg.spill, !2658, !DIExpression(), !2660)
; call alloc::string::String::push
  call void @_ZN5alloc6string6String4push17h6ee01c0fd9cca3aeE(ptr align 8 %self, i32 %c), !dbg !2661
  ret i1 false, !dbg !2662
}

; <alloc::string::String as core::fmt::Write>::write_str
; Function Attrs: inlinehint nonlazybind uwtable
define internal zeroext i1 @"_ZN58_$LT$alloc..string..String$u20$as$u20$core..fmt..Write$GT$9write_str17hac7aa2f1a1a9c098E"(ptr align 8 %self, ptr align 1 %s.0, i64 %s.1) unnamed_addr #1 !dbg !2663 {
start:
  %s.dbg.spill = alloca [16 x i8], align 8
  %self.dbg.spill = alloca [8 x i8], align 8
  store ptr %self, ptr %self.dbg.spill, align 8
    #dbg_declare(ptr %self.dbg.spill, !2667, !DIExpression(), !2669)
  store ptr %s.0, ptr %s.dbg.spill, align 8
  %0 = getelementptr inbounds i8, ptr %s.dbg.spill, i64 8
  store i64 %s.1, ptr %0, align 8
    #dbg_declare(ptr %s.dbg.spill, !2668, !DIExpression(), !2670)
; call alloc::string::String::push_str
  call void @_ZN5alloc6string6String8push_str17h0793ebec31cbe42cE(ptr align 8 %self, ptr align 1 %s.0, i64 %s.1), !dbg !2671
  ret i1 false, !dbg !2672
}

; alloc::str::join_generic_copy
; Function Attrs: nonlazybind uwtable
define internal void @_ZN5alloc3str17join_generic_copy17h5a36b1ab8c7ab0a5E(ptr sret([24 x i8]) align 8 %_0, ptr align 8 %slice.0, i64 %slice.1, ptr align 1 %sep.0, i64 %sep.1) unnamed_addr #0 personality ptr @rust_eh_personality !dbg !2673 {
start:
  %tail.dbg.spill214 = alloca [16 x i8], align 8
  %head.dbg.spill211 = alloca [16 x i8], align 8
  %self.dbg.spill208 = alloca [16 x i8], align 8
  %len.dbg.spill205 = alloca [8 x i8], align 8
  %tail.dbg.spill204 = alloca [16 x i8], align 8
  %head.dbg.spill201 = alloca [16 x i8], align 8
  %self.dbg.spill198 = alloca [16 x i8], align 8
  %s.dbg.spill195 = alloca [16 x i8], align 8
  %self.dbg.spill192 = alloca [8 x i8], align 8
  %result_len.dbg.spill = alloca [8 x i8], align 8
  %remain.dbg.spill = alloca [16 x i8], align 8
  %args.dbg.spill191 = alloca [8 x i8], align 8
  %x.dbg.spill190 = alloca [8 x i8], align 8
  %f.dbg.spill188 = alloca [8 x i8], align 8
  %self.dbg.spill186 = alloca [8 x i8], align 8
  %tail.dbg.spill185 = alloca [16 x i8], align 8
  %head.dbg.spill182 = alloca [16 x i8], align 8
  %self.dbg.spill179 = alloca [16 x i8], align 8
  %len.dbg.spill176 = alloca [8 x i8], align 8
  %tail.dbg.spill175 = alloca [16 x i8], align 8
  %head.dbg.spill172 = alloca [16 x i8], align 8
  %self.dbg.spill169 = alloca [16 x i8], align 8
  %s.dbg.spill166 = alloca [16 x i8], align 8
  %args.dbg.spill163 = alloca [8 x i8], align 8
  %x.dbg.spill162 = alloca [8 x i8], align 8
  %f.dbg.spill160 = alloca [8 x i8], align 8
  %self.dbg.spill158 = alloca [8 x i8], align 8
  %tail.dbg.spill157 = alloca [16 x i8], align 8
  %head.dbg.spill154 = alloca [16 x i8], align 8
  %self.dbg.spill151 = alloca [16 x i8], align 8
  %len.dbg.spill148 = alloca [8 x i8], align 8
  %tail.dbg.spill147 = alloca [16 x i8], align 8
  %head.dbg.spill144 = alloca [16 x i8], align 8
  %self.dbg.spill141 = alloca [16 x i8], align 8
  %s.dbg.spill138 = alloca [16 x i8], align 8
  %args.dbg.spill135 = alloca [8 x i8], align 8
  %x.dbg.spill134 = alloca [8 x i8], align 8
  %f.dbg.spill132 = alloca [8 x i8], align 8
  %self.dbg.spill130 = alloca [8 x i8], align 8
  %tail.dbg.spill129 = alloca [16 x i8], align 8
  %head.dbg.spill126 = alloca [16 x i8], align 8
  %self.dbg.spill123 = alloca [16 x i8], align 8
  %len.dbg.spill120 = alloca [8 x i8], align 8
  %tail.dbg.spill119 = alloca [16 x i8], align 8
  %head.dbg.spill116 = alloca [16 x i8], align 8
  %self.dbg.spill113 = alloca [16 x i8], align 8
  %s.dbg.spill110 = alloca [16 x i8], align 8
  %args.dbg.spill107 = alloca [8 x i8], align 8
  %x.dbg.spill106 = alloca [8 x i8], align 8
  %f.dbg.spill104 = alloca [8 x i8], align 8
  %self.dbg.spill102 = alloca [8 x i8], align 8
  %tail.dbg.spill101 = alloca [16 x i8], align 8
  %head.dbg.spill98 = alloca [16 x i8], align 8
  %self.dbg.spill95 = alloca [16 x i8], align 8
  %len.dbg.spill92 = alloca [8 x i8], align 8
  %tail.dbg.spill91 = alloca [16 x i8], align 8
  %head.dbg.spill88 = alloca [16 x i8], align 8
  %self.dbg.spill85 = alloca [16 x i8], align 8
  %s.dbg.spill82 = alloca [16 x i8], align 8
  %args.dbg.spill79 = alloca [8 x i8], align 8
  %x.dbg.spill78 = alloca [8 x i8], align 8
  %f.dbg.spill76 = alloca [8 x i8], align 8
  %self.dbg.spill74 = alloca [8 x i8], align 8
  %tail.dbg.spill73 = alloca [16 x i8], align 8
  %head.dbg.spill70 = alloca [16 x i8], align 8
  %self.dbg.spill67 = alloca [16 x i8], align 8
  %len.dbg.spill64 = alloca [8 x i8], align 8
  %tail.dbg.spill = alloca [16 x i8], align 8
  %head.dbg.spill = alloca [16 x i8], align 8
  %self.dbg.spill63 = alloca [16 x i8], align 8
  %s.dbg.spill = alloca [16 x i8], align 8
  %args.dbg.spill = alloca [8 x i8], align 8
  %x.dbg.spill60 = alloca [8 x i8], align 8
  %f.dbg.spill58 = alloca [8 x i8], align 8
  %self.dbg.spill56 = alloca [8 x i8], align 8
  %iter_uninit.dbg.spill = alloca [16 x i8], align 8
  %self.dbg.spill55 = alloca [16 x i8], align 8
  %sep_uninit.dbg.spill = alloca [16 x i8], align 8
  %data.dbg.spill54 = alloca [8 x i8], align 8
  %self.dbg.spill53 = alloca [8 x i8], align 8
  %target.dbg.spill = alloca [16 x i8], align 8
  %index.dbg.spill = alloca [8 x i8], align 8
  %self.dbg.spill52 = alloca [16 x i8], align 8
  %len.dbg.spill51 = alloca [8 x i8], align 8
  %self.dbg.spill50 = alloca [8 x i8], align 8
  %elem_size.dbg.spill = alloca [8 x i8], align 8
  %self.dbg.spill48 = alloca [8 x i8], align 8
  %self.dbg.spill47 = alloca [8 x i8], align 8
  %data.dbg.spill = alloca [8 x i8], align 8
  %count.dbg.spill = alloca [8 x i8], align 8
  %self.dbg.spill46 = alloca [8 x i8], align 8
  %self.dbg.spill45 = alloca [8 x i8], align 8
  %pos.dbg.spill = alloca [8 x i8], align 8
  %self.dbg.spill44 = alloca [8 x i8], align 8
  %self.dbg.spill43 = alloca [8 x i8], align 8
  %ptr.dbg.spill42 = alloca [8 x i8], align 8
  %self.dbg.spill41 = alloca [16 x i8], align 8
  %len.dbg.spill40 = alloca [8 x i8], align 8
  %other.dbg.spill = alloca [16 x i8], align 8
  %0 = alloca [16 x i8], align 8
  %self.dbg.spill39 = alloca [8 x i8], align 8
  %reserved_len.dbg.spill = alloca [8 x i8], align 8
  %f.dbg.spill38 = alloca [8 x i8], align 8
  %self.dbg.spill37 = alloca [8 x i8], align 8
  %self.dbg.spill36 = alloca [16 x i8], align 8
  %self.dbg.spill35 = alloca [8 x i8], align 8
  %ptr.dbg.spill34 = alloca [8 x i8], align 8
  %self.dbg.spill33 = alloca [16 x i8], align 8
  %x.dbg.spill = alloca [8 x i8], align 8
  %a.dbg.spill = alloca [8 x i8], align 8
  %b.dbg.spill = alloca [1 x i8], align 1
  %end.dbg.spill = alloca [8 x i8], align 8
  %self.dbg.spill32 = alloca [8 x i8], align 8
  %first.dbg.spill = alloca [8 x i8], align 8
  %self.dbg.spill31 = alloca [8 x i8], align 8
  %ptr.dbg.spill = alloca [8 x i8], align 8
  %self.dbg.spill30 = alloca [16 x i8], align 8
  %len.dbg.spill = alloca [8 x i8], align 8
  %sep_len.dbg.spill = alloca [8 x i8], align 8
  %pieces.dbg.spill29 = alloca [8 x i8], align 8
  %pieces.dbg.spill28 = alloca [8 x i8], align 8
  %pieces.dbg.spill27 = alloca [8 x i8], align 8
  %pieces.dbg.spill26 = alloca [8 x i8], align 8
  %pieces.dbg.spill25 = alloca [8 x i8], align 8
  %pieces.dbg.spill24 = alloca [8 x i8], align 8
  %pieces.dbg.spill23 = alloca [8 x i8], align 8
  %pieces.dbg.spill22 = alloca [8 x i8], align 8
  %pieces.dbg.spill21 = alloca [8 x i8], align 8
  %pieces.dbg.spill20 = alloca [8 x i8], align 8
  %pieces.dbg.spill19 = alloca [8 x i8], align 8
  %pieces.dbg.spill = alloca [8 x i8], align 8
  %f.dbg.spill18 = alloca [0 x i8], align 1
  %offset.dbg.spill = alloca [8 x i8], align 8
  %self.dbg.spill = alloca [8 x i8], align 8
  %alloc.dbg.spill17 = alloca [0 x i8], align 1
  %alloc.dbg.spill = alloca [0 x i8], align 1
  %msg.dbg.spill = alloca [16 x i8], align 8
  %g.dbg.spill16 = alloca [0 x i8], align 1
  %g.dbg.spill = alloca [0 x i8], align 1
  %f.dbg.spill = alloca [0 x i8], align 1
  %sep.dbg.spill = alloca [16 x i8], align 8
  %slice.dbg.spill = alloca [16 x i8], align 8
  %_306 = alloca [32 x i8], align 8
  %_303 = alloca [48 x i8], align 8
  %_299 = alloca [32 x i8], align 8
  %_296 = alloca [48 x i8], align 8
  %self15 = alloca [8 x i8], align 8
  %_285 = alloca [32 x i8], align 8
  %_282 = alloca [48 x i8], align 8
  %_278 = alloca [32 x i8], align 8
  %_275 = alloca [48 x i8], align 8
  %self14 = alloca [8 x i8], align 8
  %_264 = alloca [32 x i8], align 8
  %_261 = alloca [48 x i8], align 8
  %_257 = alloca [32 x i8], align 8
  %_254 = alloca [48 x i8], align 8
  %self13 = alloca [8 x i8], align 8
  %_243 = alloca [32 x i8], align 8
  %_240 = alloca [48 x i8], align 8
  %_236 = alloca [32 x i8], align 8
  %_233 = alloca [48 x i8], align 8
  %self12 = alloca [8 x i8], align 8
  %_222 = alloca [32 x i8], align 8
  %_219 = alloca [48 x i8], align 8
  %_215 = alloca [32 x i8], align 8
  %_212 = alloca [48 x i8], align 8
  %self11 = alloca [8 x i8], align 8
  %_201 = alloca [32 x i8], align 8
  %_198 = alloca [48 x i8], align 8
  %_194 = alloca [32 x i8], align 8
  %_191 = alloca [48 x i8], align 8
  %self10 = alloca [8 x i8], align 8
  %_162 = alloca [8 x i8], align 8
  %end_or_len9 = alloca [8 x i8], align 8
  %end_or_len8 = alloca [8 x i8], align 8
  %_125 = alloca [16 x i8], align 8
  %end_or_len = alloca [8 x i8], align 8
  %_83 = alloca [16 x i8], align 8
  %iter7 = alloca [16 x i8], align 8
  %_73 = alloca [16 x i8], align 8
  %iter6 = alloca [16 x i8], align 8
  %_63 = alloca [16 x i8], align 8
  %iter5 = alloca [16 x i8], align 8
  %_53 = alloca [16 x i8], align 8
  %iter4 = alloca [16 x i8], align 8
  %_43 = alloca [16 x i8], align 8
  %iter3 = alloca [16 x i8], align 8
  %_33 = alloca [16 x i8], align 8
  %iter2 = alloca [16 x i8], align 8
  %target = alloca [16 x i8], align 8
  %result = alloca [24 x i8], align 8
  %rhs = alloca [8 x i8], align 8
  %self1 = alloca [16 x i8], align 8
  %self = alloca [16 x i8], align 8
  %_5 = alloca [8 x i8], align 8
  %iter = alloca [16 x i8], align 8
  store ptr %slice.0, ptr %slice.dbg.spill, align 8
  %1 = getelementptr inbounds i8, ptr %slice.dbg.spill, i64 8
  store i64 %slice.1, ptr %1, align 8
    #dbg_declare(ptr %slice.dbg.spill, !2682, !DIExpression(), !2825)
    #dbg_declare(ptr %slice.dbg.spill, !2826, !DIExpression(), !2831)
    #dbg_declare(ptr %slice.dbg.spill, !2833, !DIExpression(), !2849)
    #dbg_declare(ptr %slice.dbg.spill, !2851, !DIExpression(), !2864)
    #dbg_declare(ptr %slice.dbg.spill, !2866, !DIExpression(), !2881)
    #dbg_declare(ptr %slice.dbg.spill, !2883, !DIExpression(DW_OP_deref), !2889)
    #dbg_declare(ptr %slice.dbg.spill, !2826, !DIExpression(), !2891)
    #dbg_declare(ptr %slice.dbg.spill, !2833, !DIExpression(), !2893)
    #dbg_declare(ptr %slice.dbg.spill, !2851, !DIExpression(), !2896)
  store ptr %sep.0, ptr %sep.dbg.spill, align 8
  %2 = getelementptr inbounds i8, ptr %sep.dbg.spill, i64 8
  store i64 %sep.1, ptr %2, align 8
    #dbg_declare(ptr %sep.dbg.spill, !2683, !DIExpression(), !2899)
    #dbg_declare(ptr %sep.dbg.spill, !2900, !DIExpression(), !2905)
    #dbg_declare(ptr %iter, !2686, !DIExpression(), !2907)
    #dbg_declare(ptr %self, !2908, !DIExpression(), !2917)
    #dbg_declare(ptr %self1, !2878, !DIExpression(), !2919)
    #dbg_declare(ptr %rhs, !2920, !DIExpression(), !2927)
    #dbg_declare(ptr %rhs, !2929, !DIExpression(), !2933)
    #dbg_declare(ptr %result, !2694, !DIExpression(), !2935)
    #dbg_declare(ptr %target, !2718, !DIExpression(), !2936)
    #dbg_declare(ptr %iter2, !2724, !DIExpression(), !2937)
    #dbg_declare(ptr %iter3, !2740, !DIExpression(), !2938)
    #dbg_declare(ptr %iter4, !2756, !DIExpression(), !2939)
    #dbg_declare(ptr %iter5, !2772, !DIExpression(), !2940)
    #dbg_declare(ptr %iter6, !2788, !DIExpression(), !2941)
    #dbg_declare(ptr %iter7, !2804, !DIExpression(), !2942)
    #dbg_declare(ptr %end_or_len, !2841, !DIExpression(), !2943)
    #dbg_declare(ptr %end_or_len8, !2847, !DIExpression(), !2944)
    #dbg_declare(ptr %end_or_len9, !2945, !DIExpression(), !2966)
    #dbg_declare(ptr %self10, !2982, !DIExpression(), !3029)
    #dbg_declare(ptr %self11, !2982, !DIExpression(), !3041)
    #dbg_declare(ptr %self12, !2982, !DIExpression(), !3046)
    #dbg_declare(ptr %self13, !2982, !DIExpression(), !3051)
    #dbg_declare(ptr %self14, !2982, !DIExpression(), !3056)
    #dbg_declare(ptr %self15, !2982, !DIExpression(), !3061)
    #dbg_declare(ptr %f.dbg.spill, !3066, !DIExpression(), !3079)
    #dbg_declare(ptr %g.dbg.spill, !3081, !DIExpression(), !3091)
    #dbg_declare(ptr %g.dbg.spill16, !3093, !DIExpression(), !3099)
  store ptr @alloc_ca673fb95acb8e58af271999e89294ae, ptr %msg.dbg.spill, align 8, !dbg !3101
  %3 = getelementptr inbounds i8, ptr %msg.dbg.spill, i64 8, !dbg !3101
  store i64 53, ptr %3, align 8, !dbg !3101
    #dbg_declare(ptr %msg.dbg.spill, !2914, !DIExpression(), !3101)
    #dbg_declare(ptr %alloc.dbg.spill, !3102, !DIExpression(), !3109)
    #dbg_declare(ptr %alloc.dbg.spill17, !3118, !DIExpression(), !3125)
  store i64 0, ptr %self.dbg.spill, align 8, !dbg !3127
    #dbg_declare(ptr %self.dbg.spill, !3138, !DIExpression(DW_OP_LLVM_fragment, 0, 64), !3127)
  store i64 0, ptr %offset.dbg.spill, align 8, !dbg !3163
    #dbg_declare(ptr %offset.dbg.spill, !3169, !DIExpression(), !3163)
    #dbg_declare(ptr %f.dbg.spill18, !3172, !DIExpression(), !3179)
  store ptr @alloc_716ff0773fff869d3b6edfdef8f974a4, ptr %pieces.dbg.spill, align 8, !dbg !3181
    #dbg_declare(ptr %pieces.dbg.spill, !3184, !DIExpression(), !3181)
  store ptr @alloc_716ff0773fff869d3b6edfdef8f974a4, ptr %pieces.dbg.spill19, align 8, !dbg !3217
    #dbg_declare(ptr %pieces.dbg.spill19, !3184, !DIExpression(), !3217)
  store ptr @alloc_716ff0773fff869d3b6edfdef8f974a4, ptr %pieces.dbg.spill20, align 8, !dbg !3222
    #dbg_declare(ptr %pieces.dbg.spill20, !3184, !DIExpression(), !3222)
  store ptr @alloc_716ff0773fff869d3b6edfdef8f974a4, ptr %pieces.dbg.spill21, align 8, !dbg !3227
    #dbg_declare(ptr %pieces.dbg.spill21, !3184, !DIExpression(), !3227)
  store ptr @alloc_716ff0773fff869d3b6edfdef8f974a4, ptr %pieces.dbg.spill22, align 8, !dbg !3232
    #dbg_declare(ptr %pieces.dbg.spill22, !3184, !DIExpression(), !3232)
  store ptr @alloc_716ff0773fff869d3b6edfdef8f974a4, ptr %pieces.dbg.spill23, align 8, !dbg !3237
    #dbg_declare(ptr %pieces.dbg.spill23, !3184, !DIExpression(), !3237)
  store ptr @alloc_716ff0773fff869d3b6edfdef8f974a4, ptr %pieces.dbg.spill24, align 8, !dbg !3242
    #dbg_declare(ptr %pieces.dbg.spill24, !3184, !DIExpression(), !3242)
  store ptr @alloc_716ff0773fff869d3b6edfdef8f974a4, ptr %pieces.dbg.spill25, align 8, !dbg !3247
    #dbg_declare(ptr %pieces.dbg.spill25, !3184, !DIExpression(), !3247)
  store ptr @alloc_716ff0773fff869d3b6edfdef8f974a4, ptr %pieces.dbg.spill26, align 8, !dbg !3252
    #dbg_declare(ptr %pieces.dbg.spill26, !3184, !DIExpression(), !3252)
  store ptr @alloc_716ff0773fff869d3b6edfdef8f974a4, ptr %pieces.dbg.spill27, align 8, !dbg !3257
    #dbg_declare(ptr %pieces.dbg.spill27, !3184, !DIExpression(), !3257)
  store ptr @alloc_716ff0773fff869d3b6edfdef8f974a4, ptr %pieces.dbg.spill28, align 8, !dbg !3262
    #dbg_declare(ptr %pieces.dbg.spill28, !3184, !DIExpression(), !3262)
  store ptr @alloc_716ff0773fff869d3b6edfdef8f974a4, ptr %pieces.dbg.spill29, align 8, !dbg !3267
    #dbg_declare(ptr %pieces.dbg.spill29, !3184, !DIExpression(), !3267)
  store i64 %sep.1, ptr %sep_len.dbg.spill, align 8, !dbg !3272
    #dbg_declare(ptr %sep_len.dbg.spill, !2684, !DIExpression(), !3273)
    #dbg_declare(ptr %sep_len.dbg.spill, !2728, !DIExpression(), !3274)
    #dbg_declare(ptr %sep_len.dbg.spill, !2744, !DIExpression(), !3275)
    #dbg_declare(ptr %sep_len.dbg.spill, !2760, !DIExpression(), !3276)
    #dbg_declare(ptr %sep_len.dbg.spill, !2776, !DIExpression(), !3277)
    #dbg_declare(ptr %sep_len.dbg.spill, !2792, !DIExpression(), !3278)
    #dbg_declare(ptr %sep_len.dbg.spill, !2808, !DIExpression(), !3279)
    #dbg_declare(ptr %sep_len.dbg.spill, !2923, !DIExpression(), !3280)
    #dbg_declare(ptr %sep_len.dbg.spill, !2932, !DIExpression(), !3281)
    #dbg_declare(ptr %sep_len.dbg.spill, !3282, !DIExpression(), !3288)
    #dbg_declare(ptr %sep_len.dbg.spill, !3290, !DIExpression(), !3296)
    #dbg_declare(ptr %sep_len.dbg.spill, !3191, !DIExpression(), !3298)
    #dbg_declare(ptr %sep_len.dbg.spill, !3299, !DIExpression(), !3318)
    #dbg_declare(ptr %sep_len.dbg.spill, !3191, !DIExpression(), !3320)
    #dbg_declare(ptr %sep_len.dbg.spill, !3299, !DIExpression(), !3321)
    #dbg_declare(ptr %sep_len.dbg.spill, !3191, !DIExpression(), !3323)
    #dbg_declare(ptr %sep_len.dbg.spill, !3299, !DIExpression(), !3324)
    #dbg_declare(ptr %sep_len.dbg.spill, !3191, !DIExpression(), !3326)
    #dbg_declare(ptr %sep_len.dbg.spill, !3299, !DIExpression(), !3327)
    #dbg_declare(ptr %sep_len.dbg.spill, !3191, !DIExpression(), !3329)
    #dbg_declare(ptr %sep_len.dbg.spill, !3299, !DIExpression(), !3330)
    #dbg_declare(ptr %sep_len.dbg.spill, !3191, !DIExpression(), !3332)
    #dbg_declare(ptr %sep_len.dbg.spill, !3299, !DIExpression(), !3333)
  store i64 %slice.1, ptr %len.dbg.spill, align 8, !dbg !3335
    #dbg_declare(ptr %len.dbg.spill, !2837, !DIExpression(), !3336)
    #dbg_declare(ptr %len.dbg.spill, !3337, !DIExpression(), !3342)
    #dbg_declare(ptr %len.dbg.spill, !3344, !DIExpression(), !3350)
    #dbg_declare(ptr %len.dbg.spill, !2843, !DIExpression(), !3352)
    #dbg_declare(ptr %len.dbg.spill, !3337, !DIExpression(), !3353)
    #dbg_declare(ptr %len.dbg.spill, !3344, !DIExpression(), !3356)
  store ptr %slice.0, ptr %self.dbg.spill30, align 8, !dbg !3358
  %4 = getelementptr inbounds i8, ptr %self.dbg.spill30, i64 8, !dbg !3358
  store i64 %slice.1, ptr %4, align 8, !dbg !3358
    #dbg_declare(ptr %self.dbg.spill30, !3359, !DIExpression(), !3367)
  store ptr %slice.0, ptr %ptr.dbg.spill, align 8, !dbg !3369
    #dbg_declare(ptr %ptr.dbg.spill, !2839, !DIExpression(), !3370)
    #dbg_declare(ptr %ptr.dbg.spill, !3371, !DIExpression(), !3374)
  br label %bb47, !dbg !3376

bb47:                                             ; preds = %start
  store ptr %slice.0, ptr %self.dbg.spill31, align 8, !dbg !3377
    #dbg_declare(ptr %self.dbg.spill31, !3349, !DIExpression(), !3378)
  %_99 = getelementptr inbounds nuw %"alloc::string::String", ptr %slice.0, i64 %slice.1, !dbg !3379
  store ptr %_99, ptr %end_or_len, align 8, !dbg !3380
  br label %bb48, !dbg !3381

bb48:                                             ; preds = %bb47
  %_101 = load ptr, ptr %end_or_len, align 8, !dbg !3382
  store ptr %slice.0, ptr %iter, align 8, !dbg !3383
  %5 = getelementptr inbounds i8, ptr %iter, i64 8, !dbg !3383
  store ptr %_101, ptr %5, align 8, !dbg !3383
; call <core::slice::iter::Iter<T> as core::iter::traits::iterator::Iterator>::next
  %6 = call align 8 ptr @"_ZN91_$LT$core..slice..iter..Iter$LT$T$GT$$u20$as$u20$core..iter..traits..iterator..Iterator$GT$4next17h7af0fbcb442ddb87E"(ptr align 8 %iter), !dbg !3384
  store ptr %6, ptr %_5, align 8, !dbg !3384
  %7 = load ptr, ptr %_5, align 8, !dbg !3384
  %8 = ptrtoint ptr %7 to i64, !dbg !3384
  %9 = icmp eq i64 %8, 0, !dbg !3384
  %_7 = select i1 %9, i64 0, i64 1, !dbg !3384
  %10 = trunc nuw i64 %_7 to i1, !dbg !3385
  br i1 %10, label %bb3, label %bb49, !dbg !3385

bb3:                                              ; preds = %bb48
  %first = load ptr, ptr %_5, align 8, !dbg !3386
  store ptr %first, ptr %first.dbg.spill, align 8, !dbg !3386
    #dbg_declare(ptr %first.dbg.spill, !2688, !DIExpression(), !3387)
    #dbg_declare(ptr %first.dbg.spill, !2690, !DIExpression(), !3388)
  store ptr %iter, ptr %self.dbg.spill32, align 8, !dbg !3389
    #dbg_declare(ptr %self.dbg.spill32, !3390, !DIExpression(), !3402)
  br label %bb52, !dbg !3404

bb49:                                             ; preds = %bb48
  store i64 0, ptr %_0, align 8, !dbg !3405
  %11 = getelementptr inbounds i8, ptr %_0, i64 8, !dbg !3405
  store ptr getelementptr (i8, ptr null, i64 1), ptr %11, align 8, !dbg !3405
  %12 = getelementptr inbounds i8, ptr %_0, i64 16, !dbg !3405
  store i64 0, ptr %12, align 8, !dbg !3405
  br label %bb43, !dbg !3410

bb43:                                             ; preds = %bb42, %bb49
  ret void, !dbg !3410

bb52:                                             ; preds = %bb3
  %13 = getelementptr inbounds i8, ptr %iter, i64 8, !dbg !3411
  %_113 = load ptr, ptr %13, align 8, !dbg !3411
  store ptr %_113, ptr %end.dbg.spill, align 8, !dbg !3412
    #dbg_declare(ptr %end.dbg.spill, !3400, !DIExpression(), !3413)
  %_114 = load ptr, ptr %iter, align 8, !dbg !3414
; call core::ptr::non_null::NonNull<T>::offset_from_unsigned
  %14 = call i64 @"_ZN4core3ptr8non_null16NonNull$LT$T$GT$20offset_from_unsigned17hcbd3a084cf281516E"(ptr %_113, ptr %_114), !dbg !3415
  store i64 %14, ptr %rhs, align 8, !dbg !3415
  br label %bb50, !dbg !3416

bb50:                                             ; preds = %bb52
  %_119 = load i64, ptr %rhs, align 8, !dbg !3417
  %15 = call { i64, i1 } @llvm.umul.with.overflow.i64(i64 %sep.1, i64 %_119), !dbg !3418
  %_117.0 = extractvalue { i64, i1 } %15, 0, !dbg !3418
  %_117.1 = extractvalue { i64, i1 } %15, 1, !dbg !3418
  %16 = zext i1 %_117.1 to i8, !dbg !3419
  store i8 %16, ptr %b.dbg.spill, align 1, !dbg !3419
    #dbg_declare(ptr %b.dbg.spill, !2926, !DIExpression(), !3420)
    #dbg_declare(ptr %b.dbg.spill, !3421, !DIExpression(), !3424)
  store i64 %_117.0, ptr %a.dbg.spill, align 8, !dbg !3426
    #dbg_declare(ptr %a.dbg.spill, !2924, !DIExpression(), !3427)
  br i1 %_117.1, label %bb55, label %bb57, !dbg !3428

bb57:                                             ; preds = %bb50
  %17 = getelementptr inbounds i8, ptr %self1, i64 8, !dbg !3429
  store i64 %_117.0, ptr %17, align 8, !dbg !3429
  store i64 1, ptr %self1, align 8, !dbg !3429
  br label %bb54, !dbg !3430

bb55:                                             ; preds = %bb50
  %18 = load i64, ptr @anon.60f91fde1ce0e38296af11bc775d42ab.0, align 8, !dbg !3431
  %19 = load i64, ptr getelementptr inbounds (i8, ptr @anon.60f91fde1ce0e38296af11bc775d42ab.0, i64 8), align 8, !dbg !3431
  store i64 %18, ptr %self1, align 8, !dbg !3431
  %20 = getelementptr inbounds i8, ptr %self1, i64 8, !dbg !3431
  store i64 %19, ptr %20, align 8, !dbg !3431
  br label %bb54, !dbg !3430

bb54:                                             ; preds = %bb55, %bb57
  %_122 = load i64, ptr %self1, align 8, !dbg !3432
  %21 = getelementptr inbounds i8, ptr %self1, i64 8, !dbg !3432
  %22 = load i64, ptr %21, align 8, !dbg !3432
  %23 = trunc nuw i64 %_122 to i1, !dbg !3433
  br i1 %23, label %bb60, label %bb59, !dbg !3433

bb60:                                             ; preds = %bb54
  %24 = getelementptr inbounds i8, ptr %self1, i64 8, !dbg !3434
  %x = load i64, ptr %24, align 8, !dbg !3434
  store i64 %x, ptr %x.dbg.spill, align 8, !dbg !3434
    #dbg_declare(ptr %x.dbg.spill, !2879, !DIExpression(), !3435)
    #dbg_declare(ptr %x.dbg.spill, !2888, !DIExpression(), !3436)
    #dbg_declare(ptr %x.dbg.spill, !3088, !DIExpression(), !3437)
  store ptr %slice.0, ptr %self.dbg.spill33, align 8, !dbg !3438
  %25 = getelementptr inbounds i8, ptr %self.dbg.spill33, i64 8, !dbg !3438
  store i64 %slice.1, ptr %25, align 8, !dbg !3438
    #dbg_declare(ptr %self.dbg.spill33, !3359, !DIExpression(), !3439)
  store ptr %slice.0, ptr %ptr.dbg.spill34, align 8, !dbg !3441
    #dbg_declare(ptr %ptr.dbg.spill34, !2845, !DIExpression(), !3442)
    #dbg_declare(ptr %ptr.dbg.spill34, !3371, !DIExpression(), !3443)
  br label %bb62, !dbg !3445

bb59:                                             ; preds = %bb54
  %26 = load i64, ptr @anon.60f91fde1ce0e38296af11bc775d42ab.0, align 8, !dbg !3446
  %27 = load i64, ptr getelementptr inbounds (i8, ptr @anon.60f91fde1ce0e38296af11bc775d42ab.0, i64 8), align 8, !dbg !3446
  store i64 %26, ptr %self, align 8, !dbg !3446
  %28 = getelementptr inbounds i8, ptr %self, i64 8, !dbg !3446
  store i64 %27, ptr %28, align 8, !dbg !3446
  br label %bb58, !dbg !3447

bb58:                                             ; preds = %bb63, %bb59
  %_138 = load i64, ptr %self, align 8, !dbg !3448
  %29 = getelementptr inbounds i8, ptr %self, i64 8, !dbg !3448
  %30 = load i64, ptr %29, align 8, !dbg !3448
  %31 = trunc nuw i64 %_138 to i1, !dbg !3449
  br i1 %31, label %bb66, label %bb65, !dbg !3449

bb62:                                             ; preds = %bb60
  store ptr %slice.0, ptr %self.dbg.spill35, align 8, !dbg !3450
    #dbg_declare(ptr %self.dbg.spill35, !3349, !DIExpression(), !3451)
  %_130 = getelementptr inbounds nuw %"alloc::string::String", ptr %slice.0, i64 %slice.1, !dbg !3452
  store ptr %_130, ptr %end_or_len8, align 8, !dbg !3453
  br label %bb63, !dbg !3454

bb63:                                             ; preds = %bb62
  %_132 = load ptr, ptr %end_or_len8, align 8, !dbg !3455
  store ptr %slice.0, ptr %self.dbg.spill36, align 8, !dbg !3456
  %32 = getelementptr inbounds i8, ptr %self.dbg.spill36, i64 8, !dbg !3456
  store ptr %_132, ptr %32, align 8, !dbg !3456
    #dbg_declare(ptr %self.dbg.spill36, !3077, !DIExpression(), !3457)
  store ptr %slice.0, ptr %_125, align 8, !dbg !3458
  %33 = getelementptr inbounds i8, ptr %_125, i64 8, !dbg !3458
  store ptr %_132, ptr %33, align 8, !dbg !3458
  store ptr %_125, ptr %self.dbg.spill37, align 8, !dbg !3462
    #dbg_declare(ptr %self.dbg.spill37, !3087, !DIExpression(), !3463)
  %f = getelementptr inbounds i8, ptr %_125, i64 16, !dbg !3464
  store ptr %f, ptr %f.dbg.spill38, align 8, !dbg !3464
    #dbg_declare(ptr %f.dbg.spill38, !3098, !DIExpression(), !3465)
; call core::iter::traits::iterator::Iterator::try_fold
  %34 = call { i64, i64 } @_ZN4core4iter6traits8iterator8Iterator8try_fold17hf7ef6b6ec9529151E(ptr align 8 %_125, i64 %x, ptr align 1 %f), !dbg !3466
  %35 = extractvalue { i64, i64 } %34, 0, !dbg !3466
  %36 = extractvalue { i64, i64 } %34, 1, !dbg !3466
  store i64 %35, ptr %self, align 8, !dbg !3466
  %37 = getelementptr inbounds i8, ptr %self, i64 8, !dbg !3466
  store i64 %36, ptr %37, align 8, !dbg !3466
  br label %bb58, !dbg !3467

bb66:                                             ; preds = %bb58
  %38 = getelementptr inbounds i8, ptr %self, i64 8, !dbg !3468
  %reserved_len = load i64, ptr %38, align 8, !dbg !3468
  store i64 %reserved_len, ptr %reserved_len.dbg.spill, align 8, !dbg !3468
    #dbg_declare(ptr %reserved_len.dbg.spill, !2692, !DIExpression(), !3469)
    #dbg_declare(ptr %reserved_len.dbg.spill, !2915, !DIExpression(), !3470)
    #dbg_declare(ptr %reserved_len.dbg.spill, !3116, !DIExpression(), !3471)
    #dbg_declare(ptr %reserved_len.dbg.spill, !3108, !DIExpression(), !3472)
    #dbg_declare(ptr %reserved_len.dbg.spill, !3124, !DIExpression(), !3473)
; call alloc::raw_vec::RawVecInner<A>::with_capacity_in
  %39 = call { i64, ptr } @"_ZN5alloc7raw_vec20RawVecInner$LT$A$GT$16with_capacity_in17h05a0957b7809f1a2E"(i64 %reserved_len, i64 1, i64 1, ptr align 8 @alloc_6d98aea90a0ccc58e9d5cbf1cb8b9641), !dbg !3474
  %_141.0 = extractvalue { i64, ptr } %39, 0, !dbg !3474
  %_141.1 = extractvalue { i64, ptr } %39, 1, !dbg !3474
  store i64 %_141.0, ptr %result, align 8, !dbg !3475
  %40 = getelementptr inbounds i8, ptr %result, i64 8, !dbg !3475
  store ptr %_141.1, ptr %40, align 8, !dbg !3475
  %41 = getelementptr inbounds i8, ptr %result, i64 16, !dbg !3475
  store i64 0, ptr %41, align 8, !dbg !3475
  store ptr %result, ptr %self.dbg.spill39, align 8, !dbg !3476
    #dbg_declare(ptr %self.dbg.spill39, !2979, !DIExpression(), !3477)
; invoke alloc::str::<impl core::borrow::Borrow<str> for alloc::string::String>::borrow
  %42 = invoke { ptr, i64 } @"_ZN5alloc3str83_$LT$impl$u20$core..borrow..Borrow$LT$str$GT$$u20$for$u20$alloc..string..String$GT$6borrow17h63f4a7a909b9a8f6E"(ptr align 8 %first)
          to label %bb4 unwind label %cleanup, !dbg !3478

bb65:                                             ; preds = %bb58
; call core::option::expect_failed
  call void @_ZN4core6option13expect_failed17h1fcc4e32848a6083E(ptr align 1 @alloc_ca673fb95acb8e58af271999e89294ae, i64 53, ptr align 8 @alloc_82cb368424cd3b29662cae70b90c8035) #19, !dbg !3479
  unreachable, !dbg !3479

bb44:                                             ; preds = %cleanup
; invoke core::ptr::drop_in_place<alloc::vec::Vec<u8>>
  invoke void @"_ZN4core3ptr46drop_in_place$LT$alloc..vec..Vec$LT$u8$GT$$GT$17hce2efa0d0f5cfee9E"(ptr align 8 %result) #20
          to label %bb45 unwind label %terminate, !dbg !3480

cleanup:                                          ; preds = %bb147, %bb146, %bb148, %bb144, %bb143, %bb145, %bb141, %bb37, %bb136, %bb135, %bb137, %bb133, %bb132, %bb134, %bb130, %bb32, %bb125, %bb124, %bb126, %bb122, %bb121, %bb123, %bb119, %bb27, %bb114, %bb113, %bb115, %bb111, %bb110, %bb112, %bb108, %bb22, %bb103, %bb102, %bb104, %bb100, %bb99, %bb101, %bb97, %bb17, %bb92, %bb91, %bb93, %bb89, %bb88, %bb90, %bb86, %bb12, %bb71, %bb4, %bb66
  %43 = landingpad { ptr, i32 }
          cleanup
  %44 = extractvalue { ptr, i32 } %43, 0
  %45 = extractvalue { ptr, i32 } %43, 1
  store ptr %44, ptr %0, align 8
  %46 = getelementptr inbounds i8, ptr %0, i64 8
  store i32 %45, ptr %46, align 8
  br label %bb44

bb4:                                              ; preds = %bb66
  %_19.0 = extractvalue { ptr, i64 } %42, 0, !dbg !3478
  %_19.1 = extractvalue { ptr, i64 } %42, 1, !dbg !3478
; invoke core::str::<impl core::convert::AsRef<[u8]> for str>::as_ref
  %47 = invoke { ptr, i64 } @"_ZN4core3str74_$LT$impl$u20$core..convert..AsRef$LT$$u5b$u8$u5d$$GT$$u20$for$u20$str$GT$6as_ref17h71122c9018f4e328E"(ptr align 1 %_19.0, i64 %_19.1)
          to label %bb5 unwind label %cleanup, !dbg !3478

bb5:                                              ; preds = %bb4
  %other.0 = extractvalue { ptr, i64 } %47, 0, !dbg !3478
  %other.1 = extractvalue { ptr, i64 } %47, 1, !dbg !3478
  store ptr %other.0, ptr %other.dbg.spill, align 8, !dbg !3478
  %48 = getelementptr inbounds i8, ptr %other.dbg.spill, i64 8, !dbg !3478
  store i64 %other.1, ptr %48, align 8, !dbg !3478
    #dbg_declare(ptr %other.dbg.spill, !2980, !DIExpression(), !3481)
    #dbg_declare(ptr %other.dbg.spill, !2971, !DIExpression(), !3482)
    #dbg_declare(ptr %other.dbg.spill, !2963, !DIExpression(), !3483)
    #dbg_declare(ptr %other.dbg.spill, !3484, !DIExpression(), !3497)
  store i64 %other.1, ptr %len.dbg.spill40, align 8, !dbg !3500
    #dbg_declare(ptr %len.dbg.spill40, !2964, !DIExpression(), !3501)
    #dbg_declare(ptr %len.dbg.spill40, !3502, !DIExpression(), !3507)
    #dbg_declare(ptr %len.dbg.spill40, !3510, !DIExpression(), !3514)
  store ptr %other.0, ptr %self.dbg.spill41, align 8, !dbg !3516
  %49 = getelementptr inbounds i8, ptr %self.dbg.spill41, i64 8, !dbg !3516
  store i64 %other.1, ptr %49, align 8, !dbg !3516
    #dbg_declare(ptr %self.dbg.spill41, !3517, !DIExpression(), !3525)
  store ptr %other.0, ptr %ptr.dbg.spill42, align 8, !dbg !3527
    #dbg_declare(ptr %ptr.dbg.spill42, !2965, !DIExpression(), !3528)
    #dbg_declare(ptr %ptr.dbg.spill42, !3529, !DIExpression(), !3535)
  br label %bb70, !dbg !3537

bb70:                                             ; preds = %bb5
  store ptr %other.0, ptr %self.dbg.spill43, align 8, !dbg !3538
    #dbg_declare(ptr %self.dbg.spill43, !3513, !DIExpression(), !3539)
  %_151 = getelementptr inbounds nuw i8, ptr %other.0, i64 %other.1, !dbg !3540
  store ptr %_151, ptr %end_or_len9, align 8, !dbg !3541
  br label %bb71, !dbg !3542

bb71:                                             ; preds = %bb70
  %_153 = load ptr, ptr %end_or_len9, align 8, !dbg !3543
; invoke <alloc::vec::Vec<T,A> as alloc::vec::spec_extend::SpecExtend<&T,core::slice::iter::Iter<T>>>::spec_extend
  invoke void @"_ZN132_$LT$alloc..vec..Vec$LT$T$C$A$GT$$u20$as$u20$alloc..vec..spec_extend..SpecExtend$LT$$RF$T$C$core..slice..iter..Iter$LT$T$GT$$GT$$GT$11spec_extend17hcf5ccbed4852be19E"(ptr align 8 %result, ptr %other.0, ptr %_153, ptr align 8 @alloc_f7ea5887c2bc7816e6abbac26f3ad579)
          to label %bb68 unwind label %cleanup, !dbg !3544

bb68:                                             ; preds = %bb71
  store ptr %result, ptr %self.dbg.spill44, align 8, !dbg !3545
    #dbg_declare(ptr %self.dbg.spill44, !3546, !DIExpression(), !3553)
  %50 = getelementptr inbounds i8, ptr %result, i64 16, !dbg !3555
  %pos = load i64, ptr %50, align 8, !dbg !3555
  store i64 %pos, ptr %pos.dbg.spill, align 8, !dbg !3555
    #dbg_declare(ptr %pos.dbg.spill, !2696, !DIExpression(), !3556)
  %_156 = icmp ule i64 %pos, 9223372036854775807, !dbg !3557
  store ptr %result, ptr %self.dbg.spill45, align 8, !dbg !3558
    #dbg_declare(ptr %self.dbg.spill45, !3559, !DIExpression(), !3565)
    #dbg_declare(ptr %self.dbg.spill45, !3567, !DIExpression(), !3573)
  %51 = getelementptr inbounds i8, ptr %result, i64 8, !dbg !3575
  %_165 = load ptr, ptr %51, align 8, !dbg !3575
  store ptr %_165, ptr %self.dbg.spill46, align 8, !dbg !3594
    #dbg_declare(ptr %self.dbg.spill46, !3513, !DIExpression(), !3596)
  %52 = getelementptr inbounds i8, ptr %result, i64 16, !dbg !3598
  %count = load i64, ptr %52, align 8, !dbg !3598
  store i64 %count, ptr %count.dbg.spill, align 8, !dbg !3598
    #dbg_declare(ptr %count.dbg.spill, !3510, !DIExpression(), !3599)
  %_158 = getelementptr inbounds nuw i8, ptr %_165, i64 %count, !dbg !3600
  store ptr %_158, ptr %data.dbg.spill, align 8, !dbg !3601
    #dbg_declare(ptr %data.dbg.spill, !3602, !DIExpression(), !3606)
    #dbg_declare(ptr %data.dbg.spill, !3608, !DIExpression(), !3612)
  store ptr %result, ptr %self.dbg.spill47, align 8, !dbg !3614
    #dbg_declare(ptr %self.dbg.spill47, !3615, !DIExpression(), !3621)
  store ptr %result, ptr %self.dbg.spill48, align 8, !dbg !3623
    #dbg_declare(ptr %self.dbg.spill48, !3624, !DIExpression(), !3631)
  store i64 1, ptr %elem_size.dbg.spill, align 8, !dbg !3634
    #dbg_declare(ptr %elem_size.dbg.spill, !3630, !DIExpression(), !3637)
  br label %bb74, !dbg !3638

bb74:                                             ; preds = %bb68
  %self49 = load i64, ptr %result, align 8, !dbg !3639
  store i64 %self49, ptr %self.dbg.spill50, align 8, !dbg !3639
    #dbg_declare(ptr %self.dbg.spill50, !3640, !DIExpression(), !3647)
  store i64 %self49, ptr %_162, align 8, !dbg !3650
  br label %bb72, !dbg !3651

bb73:                                             ; No predecessors!
  store i64 -1, ptr %_162, align 8, !dbg !3652
  br label %bb72, !dbg !3651

bb72:                                             ; preds = %bb74, %bb73
  %53 = getelementptr inbounds i8, ptr %result, i64 16, !dbg !3653
  %_164 = load i64, ptr %53, align 8, !dbg !3653
  %54 = load i64, ptr %_162, align 8, !dbg !3614
  %len = sub i64 %54, %_164, !dbg !3614
  store i64 %len, ptr %len.dbg.spill51, align 8, !dbg !3614
    #dbg_declare(ptr %len.dbg.spill51, !3605, !DIExpression(), !3654)
    #dbg_declare(ptr %len.dbg.spill51, !3611, !DIExpression(), !3655)
  br label %bb75, !dbg !3656

bb75:                                             ; preds = %bb72
; call core::slice::raw::from_raw_parts_mut::precondition_check
  call void @_ZN4core5slice3raw18from_raw_parts_mut18precondition_check17h2e7ee05c764771a0E(ptr %_158, i64 1, i64 1, i64 %len) #22, !dbg !3658
  br label %bb77, !dbg !3659

bb77:                                             ; preds = %bb75
  store ptr %_158, ptr %self.dbg.spill52, align 8, !dbg !3660
  %55 = getelementptr inbounds i8, ptr %self.dbg.spill52, i64 8, !dbg !3660
  store i64 %len, ptr %55, align 8, !dbg !3660
    #dbg_declare(ptr %self.dbg.spill52, !3158, !DIExpression(), !3663)
    #dbg_declare(ptr %self.dbg.spill52, !3152, !DIExpression(), !3664)
    #dbg_declare(ptr %self.dbg.spill52, !3139, !DIExpression(), !3665)
    #dbg_declare(ptr %self.dbg.spill52, !3666, !DIExpression(), !3672)
    #dbg_declare(ptr %self.dbg.spill52, !3168, !DIExpression(), !3674)
  %index = sub i64 %reserved_len, %pos, !dbg !3675
  store i64 %index, ptr %index.dbg.spill, align 8, !dbg !3675
    #dbg_declare(ptr %index.dbg.spill, !3159, !DIExpression(), !3676)
    #dbg_declare(ptr %index.dbg.spill, !3151, !DIExpression(), !3677)
    #dbg_declare(ptr %index.dbg.spill, !3138, !DIExpression(DW_OP_LLVM_fragment, 64, 64), !3127)
    #dbg_declare(ptr %index.dbg.spill, !3140, !DIExpression(), !3678)
    #dbg_declare(ptr %index.dbg.spill, !3170, !DIExpression(), !3679)
  br label %bb78, !dbg !3680

bb78:                                             ; preds = %bb77
; call <core::ops::range::Range<usize> as core::slice::index::SliceIndex<[T]>>::get_unchecked_mut::precondition_check
  call void @"_ZN106_$LT$core..ops..range..Range$LT$usize$GT$$u20$as$u20$core..slice..index..SliceIndex$LT$$u5b$T$u5d$$GT$$GT$17get_unchecked_mut18precondition_check17h9361b567bc89acc4E"(i64 0, i64 %index, i64 %len) #22, !dbg !3682
  br label %bb79, !dbg !3682

bb79:                                             ; preds = %bb78
  store ptr %_158, ptr %target.dbg.spill, align 8, !dbg !3683
  %56 = getelementptr inbounds i8, ptr %target.dbg.spill, i64 8, !dbg !3683
  store i64 %index, ptr %56, align 8, !dbg !3683
    #dbg_declare(ptr %target.dbg.spill, !2698, !DIExpression(), !3684)
  store ptr %sep.0, ptr %self.dbg.spill53, align 8, !dbg !3685
    #dbg_declare(ptr %self.dbg.spill53, !3686, !DIExpression(), !3693)
  store ptr %sep.0, ptr %data.dbg.spill54, align 8, !dbg !3695
    #dbg_declare(ptr %data.dbg.spill54, !3287, !DIExpression(), !3696)
    #dbg_declare(ptr %data.dbg.spill54, !3295, !DIExpression(), !3697)
    #dbg_declare(ptr %data.dbg.spill54, !3698, !DIExpression(), !3701)
  br label %bb80, !dbg !3703

bb80:                                             ; preds = %bb79
; call core::slice::raw::from_raw_parts::precondition_check
  call void @_ZN4core5slice3raw14from_raw_parts18precondition_check17hfa653467a729f925E(ptr %sep.0, i64 1, i64 1, i64 %sep.1) #22, !dbg !3705
  br label %bb82, !dbg !3706

bb82:                                             ; preds = %bb80
  store ptr %sep.0, ptr %sep_uninit.dbg.spill, align 8, !dbg !3707
  %57 = getelementptr inbounds i8, ptr %sep_uninit.dbg.spill, i64 8, !dbg !3707
  store i64 %sep.1, ptr %57, align 8, !dbg !3707
    #dbg_declare(ptr %sep_uninit.dbg.spill, !2700, !DIExpression(), !3708)
    #dbg_declare(ptr %sep_uninit.dbg.spill, !2722, !DIExpression(), !3709)
  %self.0 = load ptr, ptr %iter, align 8, !dbg !3710
  %58 = getelementptr inbounds i8, ptr %iter, i64 8, !dbg !3710
  %self.1 = load ptr, ptr %58, align 8, !dbg !3710
  store ptr %self.0, ptr %self.dbg.spill55, align 8, !dbg !3710
  %59 = getelementptr inbounds i8, ptr %self.dbg.spill55, i64 8, !dbg !3710
  store ptr %self.1, ptr %59, align 8, !dbg !3710
    #dbg_declare(ptr %self.dbg.spill55, !3177, !DIExpression(), !3711)
  store ptr %self.0, ptr %iter_uninit.dbg.spill, align 8, !dbg !3712
  %60 = getelementptr inbounds i8, ptr %iter_uninit.dbg.spill, i64 8, !dbg !3712
  store ptr %self.1, ptr %60, align 8, !dbg !3712
    #dbg_declare(ptr %iter_uninit.dbg.spill, !2706, !DIExpression(), !3717)
    #dbg_declare(ptr %iter_uninit.dbg.spill, !2720, !DIExpression(), !3718)
    #dbg_declare(ptr %iter_uninit.dbg.spill, !3719, !DIExpression(), !3729)
    #dbg_declare(ptr %iter_uninit.dbg.spill, !3719, !DIExpression(), !3731)
    #dbg_declare(ptr %iter_uninit.dbg.spill, !3719, !DIExpression(), !3733)
    #dbg_declare(ptr %iter_uninit.dbg.spill, !3719, !DIExpression(), !3736)
    #dbg_declare(ptr %iter_uninit.dbg.spill, !3719, !DIExpression(), !3739)
    #dbg_declare(ptr %iter_uninit.dbg.spill, !3719, !DIExpression(), !3742)
  store ptr %_158, ptr %target, align 8, !dbg !3745
  %61 = getelementptr inbounds i8, ptr %target, i64 8, !dbg !3745
  store i64 %index, ptr %61, align 8, !dbg !3745
  switch i64 %sep.1, label %bb6 [
    i64 0, label %bb11
    i64 1, label %bb10
    i64 2, label %bb9
    i64 3, label %bb8
    i64 4, label %bb7
  ], !dbg !3746

bb6:                                              ; preds = %bb82
  store ptr %self.0, ptr %iter7, align 8, !dbg !3730
  %62 = getelementptr inbounds i8, ptr %iter7, i64 8, !dbg !3730
  store ptr %self.1, ptr %62, align 8, !dbg !3730
  br label %bb37, !dbg !3747

bb11:                                             ; preds = %bb82
  store ptr %self.0, ptr %iter2, align 8, !dbg !3732
  %63 = getelementptr inbounds i8, ptr %iter2, i64 8, !dbg !3732
  store ptr %self.1, ptr %63, align 8, !dbg !3732
  br label %bb12, !dbg !3748

bb10:                                             ; preds = %bb82
  store ptr %self.0, ptr %iter3, align 8, !dbg !3732
  %64 = getelementptr inbounds i8, ptr %iter3, i64 8, !dbg !3732
  store ptr %self.1, ptr %64, align 8, !dbg !3732
  br label %bb17, !dbg !3749

bb9:                                              ; preds = %bb82
  store ptr %self.0, ptr %iter4, align 8, !dbg !3732
  %65 = getelementptr inbounds i8, ptr %iter4, i64 8, !dbg !3732
  store ptr %self.1, ptr %65, align 8, !dbg !3732
  br label %bb22, !dbg !3750

bb8:                                              ; preds = %bb82
  store ptr %self.0, ptr %iter5, align 8, !dbg !3732
  %66 = getelementptr inbounds i8, ptr %iter5, i64 8, !dbg !3732
  store ptr %self.1, ptr %66, align 8, !dbg !3732
  br label %bb27, !dbg !3751

bb7:                                              ; preds = %bb82
  store ptr %self.0, ptr %iter6, align 8, !dbg !3732
  %67 = getelementptr inbounds i8, ptr %iter6, i64 8, !dbg !3732
  store ptr %self.1, ptr %67, align 8, !dbg !3732
  br label %bb32, !dbg !3752

bb12:                                             ; preds = %bb16, %bb11
  store ptr %iter2, ptr %self.dbg.spill56, align 8, !dbg !2937
    #dbg_declare(ptr %self.dbg.spill56, !3036, !DIExpression(), !3753)
; invoke <core::slice::iter::Iter<T> as core::iter::traits::iterator::Iterator>::next
  %68 = invoke align 8 ptr @"_ZN91_$LT$core..slice..iter..Iter$LT$T$GT$$u20$as$u20$core..iter..traits..iterator..Iterator$GT$4next17h7af0fbcb442ddb87E"(ptr align 8 %iter2)
          to label %bb83 unwind label %cleanup, !dbg !3754

bb83:                                             ; preds = %bb12
  store ptr %68, ptr %self10, align 8, !dbg !3754
  %f57 = getelementptr inbounds i8, ptr %iter2, i64 16, !dbg !3755
  store ptr %f57, ptr %f.dbg.spill58, align 8, !dbg !3755
    #dbg_declare(ptr %f.dbg.spill58, !3016, !DIExpression(), !3756)
    #dbg_declare(ptr %f.dbg.spill58, !3757, !DIExpression(), !3770)
  %69 = load ptr, ptr %self10, align 8, !dbg !3772
  %70 = ptrtoint ptr %69 to i64, !dbg !3772
  %71 = icmp eq i64 %70, 0, !dbg !3772
  %_186 = select i1 %71, i64 0, i64 1, !dbg !3772
  %72 = trunc nuw i64 %_186 to i1, !dbg !3773
  br i1 %72, label %bb86, label %bb85, !dbg !3773

bb86:                                             ; preds = %bb83
  %x59 = load ptr, ptr %self10, align 8, !dbg !3774
  store ptr %x59, ptr %x.dbg.spill60, align 8, !dbg !3774
    #dbg_declare(ptr %x.dbg.spill60, !3017, !DIExpression(), !3775)
  store ptr %x59, ptr %args.dbg.spill, align 8, !dbg !3771
    #dbg_declare(ptr %args.dbg.spill, !3764, !DIExpression(), !3776)
; invoke alloc::str::join_generic_copy::{{closure}}
  %73 = invoke { ptr, i64 } @"_ZN5alloc3str17join_generic_copy28_$u7b$$u7b$closure$u7d$$u7d$17he5dd1b03df1432edE"(ptr align 1 %f57, ptr align 8 %x59)
          to label %bb87 unwind label %cleanup, !dbg !3777

bb85:                                             ; preds = %bb83
  %74 = load ptr, ptr @anon.60f91fde1ce0e38296af11bc775d42ab.0, align 8, !dbg !3778
  %75 = load i64, ptr getelementptr inbounds (i8, ptr @anon.60f91fde1ce0e38296af11bc775d42ab.0, i64 8), align 8, !dbg !3778
  store ptr %74, ptr %_33, align 8, !dbg !3778
  %76 = getelementptr inbounds i8, ptr %_33, i64 8, !dbg !3778
  store i64 %75, ptr %76, align 8, !dbg !3778
  br label %bb84, !dbg !3779

bb84:                                             ; preds = %bb87, %bb85
  %77 = load ptr, ptr %_33, align 8, !dbg !2937
  %78 = getelementptr inbounds i8, ptr %_33, i64 8, !dbg !2937
  %79 = load i64, ptr %78, align 8, !dbg !2937
  %80 = ptrtoint ptr %77 to i64, !dbg !2937
  %81 = icmp eq i64 %80, 0, !dbg !2937
  %_35 = select i1 %81, i64 0, i64 1, !dbg !2937
  %82 = trunc nuw i64 %_35 to i1, !dbg !2937
  br i1 %82, label %bb13, label %bb14, !dbg !2937

bb87:                                             ; preds = %bb86
  %_188.0 = extractvalue { ptr, i64 } %73, 0, !dbg !3777
  %_188.1 = extractvalue { ptr, i64 } %73, 1, !dbg !3777
  store ptr %_188.0, ptr %_33, align 8, !dbg !3780
  %83 = getelementptr inbounds i8, ptr %_33, i64 8, !dbg !3780
  store i64 %_188.1, ptr %83, align 8, !dbg !3780
  br label %bb84, !dbg !3781

bb13:                                             ; preds = %bb84
  %s.0 = load ptr, ptr %_33, align 8, !dbg !3782
  %84 = getelementptr inbounds i8, ptr %_33, i64 8, !dbg !3782
  %s.1 = load i64, ptr %84, align 8, !dbg !3782
  store ptr %s.0, ptr %s.dbg.spill, align 8, !dbg !3782
  %85 = getelementptr inbounds i8, ptr %s.dbg.spill, i64 8, !dbg !3782
  store i64 %s.1, ptr %85, align 8, !dbg !3782
    #dbg_declare(ptr %s.dbg.spill, !2726, !DIExpression(), !3783)
    #dbg_declare(ptr %s.dbg.spill, !2733, !DIExpression(), !3784)
    #dbg_declare(ptr %s.dbg.spill, !3785, !DIExpression(), !3793)
    #dbg_declare(ptr %s.dbg.spill, !3795, !DIExpression(), !3800)
  %self.061 = load ptr, ptr %target, align 8, !dbg !3802
  %86 = getelementptr inbounds i8, ptr %target, i64 8, !dbg !3802
  %self.162 = load i64, ptr %86, align 8, !dbg !3802
  store ptr %self.061, ptr %self.dbg.spill63, align 8, !dbg !3802
  %87 = getelementptr inbounds i8, ptr %self.dbg.spill63, i64 8, !dbg !3802
  store i64 %self.162, ptr %87, align 8, !dbg !3802
    #dbg_declare(ptr %self.dbg.spill63, !3190, !DIExpression(), !3803)
    #dbg_declare(ptr %self.dbg.spill63, !3317, !DIExpression(), !3804)
  %_192 = icmp ule i64 %sep.1, %self.162, !dbg !3805
  br i1 %_192, label %bb88, label %bb90, !dbg !3805

bb14:                                             ; preds = %bb84
  br label %bb42, !dbg !3806

bb42:                                             ; preds = %bb39, %bb34, %bb29, %bb24, %bb19, %bb14
  %remain.0 = load ptr, ptr %target, align 8, !dbg !3807
  %88 = getelementptr inbounds i8, ptr %target, i64 8, !dbg !3807
  %remain.1 = load i64, ptr %88, align 8, !dbg !3807
  store ptr %remain.0, ptr %remain.dbg.spill, align 8, !dbg !3807
  %89 = getelementptr inbounds i8, ptr %remain.dbg.spill, i64 8, !dbg !3807
  store i64 %remain.1, ptr %89, align 8, !dbg !3807
    #dbg_declare(ptr %remain.dbg.spill, !2716, !DIExpression(), !3808)
  %result_len = sub i64 %reserved_len, %remain.1, !dbg !3809
  store i64 %result_len, ptr %result_len.dbg.spill, align 8, !dbg !3809
    #dbg_declare(ptr %result_len.dbg.spill, !2820, !DIExpression(), !3810)
    #dbg_declare(ptr %result_len.dbg.spill, !3811, !DIExpression(), !3818)
  store ptr %result, ptr %self.dbg.spill192, align 8, !dbg !3820
    #dbg_declare(ptr %self.dbg.spill192, !3817, !DIExpression(), !3821)
    #dbg_declare(ptr %self.dbg.spill192, !3822, !DIExpression(), !3826)
  %90 = getelementptr inbounds i8, ptr %result, i64 16, !dbg !3828
  store i64 %result_len, ptr %90, align 8, !dbg !3828
  call void @llvm.memcpy.p0.p0.i64(ptr align 8 %_0, ptr align 8 %result, i64 24, i1 false), !dbg !3829
  br label %bb43, !dbg !3410

bb90:                                             ; preds = %bb13
  store ptr @alloc_716ff0773fff869d3b6edfdef8f974a4, ptr %_191, align 8, !dbg !3830
  %91 = getelementptr inbounds i8, ptr %_191, i64 8, !dbg !3830
  store i64 1, ptr %91, align 8, !dbg !3830
  %92 = load ptr, ptr @anon.60f91fde1ce0e38296af11bc775d42ab.0, align 8, !dbg !3830
  %93 = load i64, ptr getelementptr inbounds (i8, ptr @anon.60f91fde1ce0e38296af11bc775d42ab.0, i64 8), align 8, !dbg !3830
  %94 = getelementptr inbounds i8, ptr %_191, i64 32, !dbg !3830
  store ptr %92, ptr %94, align 8, !dbg !3830
  %95 = getelementptr inbounds i8, ptr %94, i64 8, !dbg !3830
  store i64 %93, ptr %95, align 8, !dbg !3830
  %96 = getelementptr inbounds i8, ptr %_191, i64 16, !dbg !3830
  store ptr inttoptr (i64 8 to ptr), ptr %96, align 8, !dbg !3830
  %97 = getelementptr inbounds i8, ptr %96, i64 8, !dbg !3830
  store i64 0, ptr %97, align 8, !dbg !3830
; invoke core::panicking::panic_fmt
  invoke void @_ZN4core9panicking9panic_fmt17hc8737e8cca20a7c8E(ptr align 8 %_191, ptr align 8 @alloc_49aa68791856071b837b838c704c5121) #19
          to label %unreachable unwind label %cleanup, !dbg !3185

bb88:                                             ; preds = %bb13
; invoke core::slice::<impl [T]>::split_at_mut_unchecked
  invoke void @"_ZN4core5slice29_$LT$impl$u20$$u5b$T$u5d$$GT$22split_at_mut_unchecked17hf356a30103ff69fbE"(ptr sret([32 x i8]) align 8 %_194, ptr align 1 %self.061, i64 %self.162, i64 %sep.1)
          to label %bb89 unwind label %cleanup, !dbg !3831

unreachable:                                      ; preds = %bb148, %bb145, %bb137, %bb134, %bb126, %bb123, %bb115, %bb112, %bb104, %bb101, %bb93, %bb90
  unreachable

bb89:                                             ; preds = %bb88
  %head.0 = load ptr, ptr %_194, align 8, !dbg !3832
  %98 = getelementptr inbounds i8, ptr %_194, i64 8, !dbg !3832
  %head.1 = load i64, ptr %98, align 8, !dbg !3832
  store ptr %head.0, ptr %head.dbg.spill, align 8, !dbg !3832
  %99 = getelementptr inbounds i8, ptr %head.dbg.spill, i64 8, !dbg !3832
  store i64 %head.1, ptr %99, align 8, !dbg !3832
    #dbg_declare(ptr %head.dbg.spill, !2730, !DIExpression(), !3833)
    #dbg_declare(ptr %head.dbg.spill, !3192, !DIExpression(DW_OP_LLVM_fragment, 0, 128), !3834)
  %100 = getelementptr inbounds i8, ptr %_194, i64 16, !dbg !3832
  %tail.0 = load ptr, ptr %100, align 8, !dbg !3832
  %101 = getelementptr inbounds i8, ptr %100, i64 8, !dbg !3832
  %tail.1 = load i64, ptr %101, align 8, !dbg !3832
  store ptr %tail.0, ptr %tail.dbg.spill, align 8, !dbg !3832
  %102 = getelementptr inbounds i8, ptr %tail.dbg.spill, i64 8, !dbg !3832
  store i64 %tail.1, ptr %102, align 8, !dbg !3832
    #dbg_declare(ptr %tail.dbg.spill, !2732, !DIExpression(), !3835)
    #dbg_declare(ptr %tail.dbg.spill, !3192, !DIExpression(DW_OP_LLVM_fragment, 128, 128), !3834)
; invoke core::slice::<impl [T]>::copy_from_slice
  invoke void @"_ZN4core5slice29_$LT$impl$u20$$u5b$T$u5d$$GT$15copy_from_slice17h506442b2f1ca0c87E"(ptr align 1 %head.0, i64 %head.1, ptr align 1 %sep.0, i64 %sep.1, ptr align 8 @alloc_49aa68791856071b837b838c704c5121)
          to label %bb15 unwind label %cleanup, !dbg !3836

bb15:                                             ; preds = %bb89
  store ptr %tail.0, ptr %target, align 8, !dbg !3837
  %103 = getelementptr inbounds i8, ptr %target, i64 8, !dbg !3837
  store i64 %tail.1, ptr %103, align 8, !dbg !3837
  store i64 %s.1, ptr %len.dbg.spill64, align 8, !dbg !3838
    #dbg_declare(ptr %len.dbg.spill64, !2735, !DIExpression(), !3839)
    #dbg_declare(ptr %len.dbg.spill64, !3191, !DIExpression(), !3840)
    #dbg_declare(ptr %len.dbg.spill64, !3299, !DIExpression(), !3841)
  %self.065 = load ptr, ptr %target, align 8, !dbg !3843
  %104 = getelementptr inbounds i8, ptr %target, i64 8, !dbg !3843
  %self.166 = load i64, ptr %104, align 8, !dbg !3843
  store ptr %self.065, ptr %self.dbg.spill67, align 8, !dbg !3843
  %105 = getelementptr inbounds i8, ptr %self.dbg.spill67, i64 8, !dbg !3843
  store i64 %self.166, ptr %105, align 8, !dbg !3843
    #dbg_declare(ptr %self.dbg.spill67, !3190, !DIExpression(), !3844)
    #dbg_declare(ptr %self.dbg.spill67, !3317, !DIExpression(), !3845)
  %_199 = icmp ule i64 %s.1, %self.166, !dbg !3846
  br i1 %_199, label %bb91, label %bb93, !dbg !3846

bb93:                                             ; preds = %bb15
  store ptr @alloc_716ff0773fff869d3b6edfdef8f974a4, ptr %_198, align 8, !dbg !3847
  %106 = getelementptr inbounds i8, ptr %_198, i64 8, !dbg !3847
  store i64 1, ptr %106, align 8, !dbg !3847
  %107 = load ptr, ptr @anon.60f91fde1ce0e38296af11bc775d42ab.0, align 8, !dbg !3847
  %108 = load i64, ptr getelementptr inbounds (i8, ptr @anon.60f91fde1ce0e38296af11bc775d42ab.0, i64 8), align 8, !dbg !3847
  %109 = getelementptr inbounds i8, ptr %_198, i64 32, !dbg !3847
  store ptr %107, ptr %109, align 8, !dbg !3847
  %110 = getelementptr inbounds i8, ptr %109, i64 8, !dbg !3847
  store i64 %108, ptr %110, align 8, !dbg !3847
  %111 = getelementptr inbounds i8, ptr %_198, i64 16, !dbg !3847
  store ptr inttoptr (i64 8 to ptr), ptr %111, align 8, !dbg !3847
  %112 = getelementptr inbounds i8, ptr %111, i64 8, !dbg !3847
  store i64 0, ptr %112, align 8, !dbg !3847
; invoke core::panicking::panic_fmt
  invoke void @_ZN4core9panicking9panic_fmt17hc8737e8cca20a7c8E(ptr align 8 %_198, ptr align 8 @alloc_49aa68791856071b837b838c704c5121) #19
          to label %unreachable unwind label %cleanup, !dbg !3848

bb91:                                             ; preds = %bb15
; invoke core::slice::<impl [T]>::split_at_mut_unchecked
  invoke void @"_ZN4core5slice29_$LT$impl$u20$$u5b$T$u5d$$GT$22split_at_mut_unchecked17hf356a30103ff69fbE"(ptr sret([32 x i8]) align 8 %_201, ptr align 1 %self.065, i64 %self.166, i64 %s.1)
          to label %bb92 unwind label %cleanup, !dbg !3849

bb92:                                             ; preds = %bb91
  %head.068 = load ptr, ptr %_201, align 8, !dbg !3850
  %113 = getelementptr inbounds i8, ptr %_201, i64 8, !dbg !3850
  %head.169 = load i64, ptr %113, align 8, !dbg !3850
  store ptr %head.068, ptr %head.dbg.spill70, align 8, !dbg !3850
  %114 = getelementptr inbounds i8, ptr %head.dbg.spill70, i64 8, !dbg !3850
  store i64 %head.169, ptr %114, align 8, !dbg !3850
    #dbg_declare(ptr %head.dbg.spill70, !2737, !DIExpression(), !3851)
    #dbg_declare(ptr %head.dbg.spill70, !3194, !DIExpression(DW_OP_LLVM_fragment, 0, 128), !3852)
  %115 = getelementptr inbounds i8, ptr %_201, i64 16, !dbg !3850
  %tail.071 = load ptr, ptr %115, align 8, !dbg !3850
  %116 = getelementptr inbounds i8, ptr %115, i64 8, !dbg !3850
  %tail.172 = load i64, ptr %116, align 8, !dbg !3850
  store ptr %tail.071, ptr %tail.dbg.spill73, align 8, !dbg !3850
  %117 = getelementptr inbounds i8, ptr %tail.dbg.spill73, i64 8, !dbg !3850
  store i64 %tail.172, ptr %117, align 8, !dbg !3850
    #dbg_declare(ptr %tail.dbg.spill73, !2739, !DIExpression(), !3853)
    #dbg_declare(ptr %tail.dbg.spill73, !3194, !DIExpression(DW_OP_LLVM_fragment, 128, 128), !3852)
; invoke core::slice::<impl [T]>::copy_from_slice
  invoke void @"_ZN4core5slice29_$LT$impl$u20$$u5b$T$u5d$$GT$15copy_from_slice17h506442b2f1ca0c87E"(ptr align 1 %head.068, i64 %head.169, ptr align 1 %s.0, i64 %s.1, ptr align 8 @alloc_49aa68791856071b837b838c704c5121)
          to label %bb16 unwind label %cleanup, !dbg !3854

bb16:                                             ; preds = %bb92
  store ptr %tail.071, ptr %target, align 8, !dbg !3855
  %118 = getelementptr inbounds i8, ptr %target, i64 8, !dbg !3855
  store i64 %tail.172, ptr %118, align 8, !dbg !3855
  br label %bb12, !dbg !3748

bb17:                                             ; preds = %bb21, %bb10
  store ptr %iter3, ptr %self.dbg.spill74, align 8, !dbg !2938
    #dbg_declare(ptr %self.dbg.spill74, !3036, !DIExpression(), !3856)
; invoke <core::slice::iter::Iter<T> as core::iter::traits::iterator::Iterator>::next
  %119 = invoke align 8 ptr @"_ZN91_$LT$core..slice..iter..Iter$LT$T$GT$$u20$as$u20$core..iter..traits..iterator..Iterator$GT$4next17h7af0fbcb442ddb87E"(ptr align 8 %iter3)
          to label %bb94 unwind label %cleanup, !dbg !3857

bb94:                                             ; preds = %bb17
  store ptr %119, ptr %self11, align 8, !dbg !3857
  %f75 = getelementptr inbounds i8, ptr %iter3, i64 16, !dbg !3858
  store ptr %f75, ptr %f.dbg.spill76, align 8, !dbg !3858
    #dbg_declare(ptr %f.dbg.spill76, !3016, !DIExpression(), !3859)
    #dbg_declare(ptr %f.dbg.spill76, !3757, !DIExpression(), !3860)
  %120 = load ptr, ptr %self11, align 8, !dbg !3863
  %121 = ptrtoint ptr %120 to i64, !dbg !3863
  %122 = icmp eq i64 %121, 0, !dbg !3863
  %_207 = select i1 %122, i64 0, i64 1, !dbg !3863
  %123 = trunc nuw i64 %_207 to i1, !dbg !3864
  br i1 %123, label %bb97, label %bb96, !dbg !3864

bb97:                                             ; preds = %bb94
  %x77 = load ptr, ptr %self11, align 8, !dbg !3865
  store ptr %x77, ptr %x.dbg.spill78, align 8, !dbg !3865
    #dbg_declare(ptr %x.dbg.spill78, !3019, !DIExpression(), !3866)
  store ptr %x77, ptr %args.dbg.spill79, align 8, !dbg !3867
    #dbg_declare(ptr %args.dbg.spill79, !3764, !DIExpression(), !3868)
; invoke alloc::str::join_generic_copy::{{closure}}
  %124 = invoke { ptr, i64 } @"_ZN5alloc3str17join_generic_copy28_$u7b$$u7b$closure$u7d$$u7d$17he5dd1b03df1432edE"(ptr align 1 %f75, ptr align 8 %x77)
          to label %bb98 unwind label %cleanup, !dbg !3869

bb96:                                             ; preds = %bb94
  %125 = load ptr, ptr @anon.60f91fde1ce0e38296af11bc775d42ab.0, align 8, !dbg !3870
  %126 = load i64, ptr getelementptr inbounds (i8, ptr @anon.60f91fde1ce0e38296af11bc775d42ab.0, i64 8), align 8, !dbg !3870
  store ptr %125, ptr %_43, align 8, !dbg !3870
  %127 = getelementptr inbounds i8, ptr %_43, i64 8, !dbg !3870
  store i64 %126, ptr %127, align 8, !dbg !3870
  br label %bb95, !dbg !3871

bb95:                                             ; preds = %bb98, %bb96
  %128 = load ptr, ptr %_43, align 8, !dbg !2938
  %129 = getelementptr inbounds i8, ptr %_43, i64 8, !dbg !2938
  %130 = load i64, ptr %129, align 8, !dbg !2938
  %131 = ptrtoint ptr %128 to i64, !dbg !2938
  %132 = icmp eq i64 %131, 0, !dbg !2938
  %_45 = select i1 %132, i64 0, i64 1, !dbg !2938
  %133 = trunc nuw i64 %_45 to i1, !dbg !2938
  br i1 %133, label %bb18, label %bb19, !dbg !2938

bb98:                                             ; preds = %bb97
  %_209.0 = extractvalue { ptr, i64 } %124, 0, !dbg !3869
  %_209.1 = extractvalue { ptr, i64 } %124, 1, !dbg !3869
  store ptr %_209.0, ptr %_43, align 8, !dbg !3872
  %134 = getelementptr inbounds i8, ptr %_43, i64 8, !dbg !3872
  store i64 %_209.1, ptr %134, align 8, !dbg !3872
  br label %bb95, !dbg !3873

bb18:                                             ; preds = %bb95
  %s.080 = load ptr, ptr %_43, align 8, !dbg !3874
  %135 = getelementptr inbounds i8, ptr %_43, i64 8, !dbg !3874
  %s.181 = load i64, ptr %135, align 8, !dbg !3874
  store ptr %s.080, ptr %s.dbg.spill82, align 8, !dbg !3874
  %136 = getelementptr inbounds i8, ptr %s.dbg.spill82, i64 8, !dbg !3874
  store i64 %s.181, ptr %136, align 8, !dbg !3874
    #dbg_declare(ptr %s.dbg.spill82, !2742, !DIExpression(), !3875)
    #dbg_declare(ptr %s.dbg.spill82, !2749, !DIExpression(), !3876)
    #dbg_declare(ptr %s.dbg.spill82, !3785, !DIExpression(), !3877)
    #dbg_declare(ptr %s.dbg.spill82, !3795, !DIExpression(), !3880)
  %self.083 = load ptr, ptr %target, align 8, !dbg !3882
  %137 = getelementptr inbounds i8, ptr %target, i64 8, !dbg !3882
  %self.184 = load i64, ptr %137, align 8, !dbg !3882
  store ptr %self.083, ptr %self.dbg.spill85, align 8, !dbg !3882
  %138 = getelementptr inbounds i8, ptr %self.dbg.spill85, i64 8, !dbg !3882
  store i64 %self.184, ptr %138, align 8, !dbg !3882
    #dbg_declare(ptr %self.dbg.spill85, !3190, !DIExpression(), !3883)
    #dbg_declare(ptr %self.dbg.spill85, !3317, !DIExpression(), !3884)
  %_213 = icmp ule i64 %sep.1, %self.184, !dbg !3885
  br i1 %_213, label %bb99, label %bb101, !dbg !3885

bb19:                                             ; preds = %bb95
  br label %bb42, !dbg !3806

bb101:                                            ; preds = %bb18
  store ptr @alloc_716ff0773fff869d3b6edfdef8f974a4, ptr %_212, align 8, !dbg !3886
  %139 = getelementptr inbounds i8, ptr %_212, i64 8, !dbg !3886
  store i64 1, ptr %139, align 8, !dbg !3886
  %140 = load ptr, ptr @anon.60f91fde1ce0e38296af11bc775d42ab.0, align 8, !dbg !3886
  %141 = load i64, ptr getelementptr inbounds (i8, ptr @anon.60f91fde1ce0e38296af11bc775d42ab.0, i64 8), align 8, !dbg !3886
  %142 = getelementptr inbounds i8, ptr %_212, i64 32, !dbg !3886
  store ptr %140, ptr %142, align 8, !dbg !3886
  %143 = getelementptr inbounds i8, ptr %142, i64 8, !dbg !3886
  store i64 %141, ptr %143, align 8, !dbg !3886
  %144 = getelementptr inbounds i8, ptr %_212, i64 16, !dbg !3886
  store ptr inttoptr (i64 8 to ptr), ptr %144, align 8, !dbg !3886
  %145 = getelementptr inbounds i8, ptr %144, i64 8, !dbg !3886
  store i64 0, ptr %145, align 8, !dbg !3886
; invoke core::panicking::panic_fmt
  invoke void @_ZN4core9panicking9panic_fmt17hc8737e8cca20a7c8E(ptr align 8 %_212, ptr align 8 @alloc_49aa68791856071b837b838c704c5121) #19
          to label %unreachable unwind label %cleanup, !dbg !3887

bb99:                                             ; preds = %bb18
; invoke core::slice::<impl [T]>::split_at_mut_unchecked
  invoke void @"_ZN4core5slice29_$LT$impl$u20$$u5b$T$u5d$$GT$22split_at_mut_unchecked17hf356a30103ff69fbE"(ptr sret([32 x i8]) align 8 %_215, ptr align 1 %self.083, i64 %self.184, i64 %sep.1)
          to label %bb100 unwind label %cleanup, !dbg !3888

bb100:                                            ; preds = %bb99
  %head.086 = load ptr, ptr %_215, align 8, !dbg !3889
  %146 = getelementptr inbounds i8, ptr %_215, i64 8, !dbg !3889
  %head.187 = load i64, ptr %146, align 8, !dbg !3889
  store ptr %head.086, ptr %head.dbg.spill88, align 8, !dbg !3889
  %147 = getelementptr inbounds i8, ptr %head.dbg.spill88, i64 8, !dbg !3889
  store i64 %head.187, ptr %147, align 8, !dbg !3889
    #dbg_declare(ptr %head.dbg.spill88, !2746, !DIExpression(), !3890)
    #dbg_declare(ptr %head.dbg.spill88, !3196, !DIExpression(DW_OP_LLVM_fragment, 0, 128), !3891)
  %148 = getelementptr inbounds i8, ptr %_215, i64 16, !dbg !3889
  %tail.089 = load ptr, ptr %148, align 8, !dbg !3889
  %149 = getelementptr inbounds i8, ptr %148, i64 8, !dbg !3889
  %tail.190 = load i64, ptr %149, align 8, !dbg !3889
  store ptr %tail.089, ptr %tail.dbg.spill91, align 8, !dbg !3889
  %150 = getelementptr inbounds i8, ptr %tail.dbg.spill91, i64 8, !dbg !3889
  store i64 %tail.190, ptr %150, align 8, !dbg !3889
    #dbg_declare(ptr %tail.dbg.spill91, !2748, !DIExpression(), !3892)
    #dbg_declare(ptr %tail.dbg.spill91, !3196, !DIExpression(DW_OP_LLVM_fragment, 128, 128), !3891)
; invoke core::slice::<impl [T]>::copy_from_slice
  invoke void @"_ZN4core5slice29_$LT$impl$u20$$u5b$T$u5d$$GT$15copy_from_slice17h506442b2f1ca0c87E"(ptr align 1 %head.086, i64 %head.187, ptr align 1 %sep.0, i64 %sep.1, ptr align 8 @alloc_49aa68791856071b837b838c704c5121)
          to label %bb20 unwind label %cleanup, !dbg !3893

bb20:                                             ; preds = %bb100
  store ptr %tail.089, ptr %target, align 8, !dbg !3894
  %151 = getelementptr inbounds i8, ptr %target, i64 8, !dbg !3894
  store i64 %tail.190, ptr %151, align 8, !dbg !3894
  store i64 %s.181, ptr %len.dbg.spill92, align 8, !dbg !3895
    #dbg_declare(ptr %len.dbg.spill92, !2751, !DIExpression(), !3896)
    #dbg_declare(ptr %len.dbg.spill92, !3191, !DIExpression(), !3897)
    #dbg_declare(ptr %len.dbg.spill92, !3299, !DIExpression(), !3898)
  %self.093 = load ptr, ptr %target, align 8, !dbg !3900
  %152 = getelementptr inbounds i8, ptr %target, i64 8, !dbg !3900
  %self.194 = load i64, ptr %152, align 8, !dbg !3900
  store ptr %self.093, ptr %self.dbg.spill95, align 8, !dbg !3900
  %153 = getelementptr inbounds i8, ptr %self.dbg.spill95, i64 8, !dbg !3900
  store i64 %self.194, ptr %153, align 8, !dbg !3900
    #dbg_declare(ptr %self.dbg.spill95, !3190, !DIExpression(), !3901)
    #dbg_declare(ptr %self.dbg.spill95, !3317, !DIExpression(), !3902)
  %_220 = icmp ule i64 %s.181, %self.194, !dbg !3903
  br i1 %_220, label %bb102, label %bb104, !dbg !3903

bb104:                                            ; preds = %bb20
  store ptr @alloc_716ff0773fff869d3b6edfdef8f974a4, ptr %_219, align 8, !dbg !3904
  %154 = getelementptr inbounds i8, ptr %_219, i64 8, !dbg !3904
  store i64 1, ptr %154, align 8, !dbg !3904
  %155 = load ptr, ptr @anon.60f91fde1ce0e38296af11bc775d42ab.0, align 8, !dbg !3904
  %156 = load i64, ptr getelementptr inbounds (i8, ptr @anon.60f91fde1ce0e38296af11bc775d42ab.0, i64 8), align 8, !dbg !3904
  %157 = getelementptr inbounds i8, ptr %_219, i64 32, !dbg !3904
  store ptr %155, ptr %157, align 8, !dbg !3904
  %158 = getelementptr inbounds i8, ptr %157, i64 8, !dbg !3904
  store i64 %156, ptr %158, align 8, !dbg !3904
  %159 = getelementptr inbounds i8, ptr %_219, i64 16, !dbg !3904
  store ptr inttoptr (i64 8 to ptr), ptr %159, align 8, !dbg !3904
  %160 = getelementptr inbounds i8, ptr %159, i64 8, !dbg !3904
  store i64 0, ptr %160, align 8, !dbg !3904
; invoke core::panicking::panic_fmt
  invoke void @_ZN4core9panicking9panic_fmt17hc8737e8cca20a7c8E(ptr align 8 %_219, ptr align 8 @alloc_49aa68791856071b837b838c704c5121) #19
          to label %unreachable unwind label %cleanup, !dbg !3905

bb102:                                            ; preds = %bb20
; invoke core::slice::<impl [T]>::split_at_mut_unchecked
  invoke void @"_ZN4core5slice29_$LT$impl$u20$$u5b$T$u5d$$GT$22split_at_mut_unchecked17hf356a30103ff69fbE"(ptr sret([32 x i8]) align 8 %_222, ptr align 1 %self.093, i64 %self.194, i64 %s.181)
          to label %bb103 unwind label %cleanup, !dbg !3906

bb103:                                            ; preds = %bb102
  %head.096 = load ptr, ptr %_222, align 8, !dbg !3907
  %161 = getelementptr inbounds i8, ptr %_222, i64 8, !dbg !3907
  %head.197 = load i64, ptr %161, align 8, !dbg !3907
  store ptr %head.096, ptr %head.dbg.spill98, align 8, !dbg !3907
  %162 = getelementptr inbounds i8, ptr %head.dbg.spill98, i64 8, !dbg !3907
  store i64 %head.197, ptr %162, align 8, !dbg !3907
    #dbg_declare(ptr %head.dbg.spill98, !2753, !DIExpression(), !3908)
    #dbg_declare(ptr %head.dbg.spill98, !3198, !DIExpression(DW_OP_LLVM_fragment, 0, 128), !3909)
  %163 = getelementptr inbounds i8, ptr %_222, i64 16, !dbg !3907
  %tail.099 = load ptr, ptr %163, align 8, !dbg !3907
  %164 = getelementptr inbounds i8, ptr %163, i64 8, !dbg !3907
  %tail.1100 = load i64, ptr %164, align 8, !dbg !3907
  store ptr %tail.099, ptr %tail.dbg.spill101, align 8, !dbg !3907
  %165 = getelementptr inbounds i8, ptr %tail.dbg.spill101, i64 8, !dbg !3907
  store i64 %tail.1100, ptr %165, align 8, !dbg !3907
    #dbg_declare(ptr %tail.dbg.spill101, !2755, !DIExpression(), !3910)
    #dbg_declare(ptr %tail.dbg.spill101, !3198, !DIExpression(DW_OP_LLVM_fragment, 128, 128), !3909)
; invoke core::slice::<impl [T]>::copy_from_slice
  invoke void @"_ZN4core5slice29_$LT$impl$u20$$u5b$T$u5d$$GT$15copy_from_slice17h506442b2f1ca0c87E"(ptr align 1 %head.096, i64 %head.197, ptr align 1 %s.080, i64 %s.181, ptr align 8 @alloc_49aa68791856071b837b838c704c5121)
          to label %bb21 unwind label %cleanup, !dbg !3911

bb21:                                             ; preds = %bb103
  store ptr %tail.099, ptr %target, align 8, !dbg !3912
  %166 = getelementptr inbounds i8, ptr %target, i64 8, !dbg !3912
  store i64 %tail.1100, ptr %166, align 8, !dbg !3912
  br label %bb17, !dbg !3749

bb22:                                             ; preds = %bb26, %bb9
  store ptr %iter4, ptr %self.dbg.spill102, align 8, !dbg !2939
    #dbg_declare(ptr %self.dbg.spill102, !3036, !DIExpression(), !3913)
; invoke <core::slice::iter::Iter<T> as core::iter::traits::iterator::Iterator>::next
  %167 = invoke align 8 ptr @"_ZN91_$LT$core..slice..iter..Iter$LT$T$GT$$u20$as$u20$core..iter..traits..iterator..Iterator$GT$4next17h7af0fbcb442ddb87E"(ptr align 8 %iter4)
          to label %bb105 unwind label %cleanup, !dbg !3914

bb105:                                            ; preds = %bb22
  store ptr %167, ptr %self12, align 8, !dbg !3914
  %f103 = getelementptr inbounds i8, ptr %iter4, i64 16, !dbg !3915
  store ptr %f103, ptr %f.dbg.spill104, align 8, !dbg !3915
    #dbg_declare(ptr %f.dbg.spill104, !3016, !DIExpression(), !3916)
    #dbg_declare(ptr %f.dbg.spill104, !3757, !DIExpression(), !3917)
  %168 = load ptr, ptr %self12, align 8, !dbg !3920
  %169 = ptrtoint ptr %168 to i64, !dbg !3920
  %170 = icmp eq i64 %169, 0, !dbg !3920
  %_228 = select i1 %170, i64 0, i64 1, !dbg !3920
  %171 = trunc nuw i64 %_228 to i1, !dbg !3921
  br i1 %171, label %bb108, label %bb107, !dbg !3921

bb108:                                            ; preds = %bb105
  %x105 = load ptr, ptr %self12, align 8, !dbg !3922
  store ptr %x105, ptr %x.dbg.spill106, align 8, !dbg !3922
    #dbg_declare(ptr %x.dbg.spill106, !3021, !DIExpression(), !3923)
  store ptr %x105, ptr %args.dbg.spill107, align 8, !dbg !3924
    #dbg_declare(ptr %args.dbg.spill107, !3764, !DIExpression(), !3925)
; invoke alloc::str::join_generic_copy::{{closure}}
  %172 = invoke { ptr, i64 } @"_ZN5alloc3str17join_generic_copy28_$u7b$$u7b$closure$u7d$$u7d$17he5dd1b03df1432edE"(ptr align 1 %f103, ptr align 8 %x105)
          to label %bb109 unwind label %cleanup, !dbg !3926

bb107:                                            ; preds = %bb105
  %173 = load ptr, ptr @anon.60f91fde1ce0e38296af11bc775d42ab.0, align 8, !dbg !3927
  %174 = load i64, ptr getelementptr inbounds (i8, ptr @anon.60f91fde1ce0e38296af11bc775d42ab.0, i64 8), align 8, !dbg !3927
  store ptr %173, ptr %_53, align 8, !dbg !3927
  %175 = getelementptr inbounds i8, ptr %_53, i64 8, !dbg !3927
  store i64 %174, ptr %175, align 8, !dbg !3927
  br label %bb106, !dbg !3928

bb106:                                            ; preds = %bb109, %bb107
  %176 = load ptr, ptr %_53, align 8, !dbg !2939
  %177 = getelementptr inbounds i8, ptr %_53, i64 8, !dbg !2939
  %178 = load i64, ptr %177, align 8, !dbg !2939
  %179 = ptrtoint ptr %176 to i64, !dbg !2939
  %180 = icmp eq i64 %179, 0, !dbg !2939
  %_55 = select i1 %180, i64 0, i64 1, !dbg !2939
  %181 = trunc nuw i64 %_55 to i1, !dbg !2939
  br i1 %181, label %bb23, label %bb24, !dbg !2939

bb109:                                            ; preds = %bb108
  %_230.0 = extractvalue { ptr, i64 } %172, 0, !dbg !3926
  %_230.1 = extractvalue { ptr, i64 } %172, 1, !dbg !3926
  store ptr %_230.0, ptr %_53, align 8, !dbg !3929
  %182 = getelementptr inbounds i8, ptr %_53, i64 8, !dbg !3929
  store i64 %_230.1, ptr %182, align 8, !dbg !3929
  br label %bb106, !dbg !3930

bb23:                                             ; preds = %bb106
  %s.0108 = load ptr, ptr %_53, align 8, !dbg !3931
  %183 = getelementptr inbounds i8, ptr %_53, i64 8, !dbg !3931
  %s.1109 = load i64, ptr %183, align 8, !dbg !3931
  store ptr %s.0108, ptr %s.dbg.spill110, align 8, !dbg !3931
  %184 = getelementptr inbounds i8, ptr %s.dbg.spill110, i64 8, !dbg !3931
  store i64 %s.1109, ptr %184, align 8, !dbg !3931
    #dbg_declare(ptr %s.dbg.spill110, !2758, !DIExpression(), !3932)
    #dbg_declare(ptr %s.dbg.spill110, !2765, !DIExpression(), !3933)
    #dbg_declare(ptr %s.dbg.spill110, !3785, !DIExpression(), !3934)
    #dbg_declare(ptr %s.dbg.spill110, !3795, !DIExpression(), !3937)
  %self.0111 = load ptr, ptr %target, align 8, !dbg !3939
  %185 = getelementptr inbounds i8, ptr %target, i64 8, !dbg !3939
  %self.1112 = load i64, ptr %185, align 8, !dbg !3939
  store ptr %self.0111, ptr %self.dbg.spill113, align 8, !dbg !3939
  %186 = getelementptr inbounds i8, ptr %self.dbg.spill113, i64 8, !dbg !3939
  store i64 %self.1112, ptr %186, align 8, !dbg !3939
    #dbg_declare(ptr %self.dbg.spill113, !3190, !DIExpression(), !3940)
    #dbg_declare(ptr %self.dbg.spill113, !3317, !DIExpression(), !3941)
  %_234 = icmp ule i64 %sep.1, %self.1112, !dbg !3942
  br i1 %_234, label %bb110, label %bb112, !dbg !3942

bb24:                                             ; preds = %bb106
  br label %bb42, !dbg !3806

bb112:                                            ; preds = %bb23
  store ptr @alloc_716ff0773fff869d3b6edfdef8f974a4, ptr %_233, align 8, !dbg !3943
  %187 = getelementptr inbounds i8, ptr %_233, i64 8, !dbg !3943
  store i64 1, ptr %187, align 8, !dbg !3943
  %188 = load ptr, ptr @anon.60f91fde1ce0e38296af11bc775d42ab.0, align 8, !dbg !3943
  %189 = load i64, ptr getelementptr inbounds (i8, ptr @anon.60f91fde1ce0e38296af11bc775d42ab.0, i64 8), align 8, !dbg !3943
  %190 = getelementptr inbounds i8, ptr %_233, i64 32, !dbg !3943
  store ptr %188, ptr %190, align 8, !dbg !3943
  %191 = getelementptr inbounds i8, ptr %190, i64 8, !dbg !3943
  store i64 %189, ptr %191, align 8, !dbg !3943
  %192 = getelementptr inbounds i8, ptr %_233, i64 16, !dbg !3943
  store ptr inttoptr (i64 8 to ptr), ptr %192, align 8, !dbg !3943
  %193 = getelementptr inbounds i8, ptr %192, i64 8, !dbg !3943
  store i64 0, ptr %193, align 8, !dbg !3943
; invoke core::panicking::panic_fmt
  invoke void @_ZN4core9panicking9panic_fmt17hc8737e8cca20a7c8E(ptr align 8 %_233, ptr align 8 @alloc_49aa68791856071b837b838c704c5121) #19
          to label %unreachable unwind label %cleanup, !dbg !3944

bb110:                                            ; preds = %bb23
; invoke core::slice::<impl [T]>::split_at_mut_unchecked
  invoke void @"_ZN4core5slice29_$LT$impl$u20$$u5b$T$u5d$$GT$22split_at_mut_unchecked17hf356a30103ff69fbE"(ptr sret([32 x i8]) align 8 %_236, ptr align 1 %self.0111, i64 %self.1112, i64 %sep.1)
          to label %bb111 unwind label %cleanup, !dbg !3945

bb111:                                            ; preds = %bb110
  %head.0114 = load ptr, ptr %_236, align 8, !dbg !3946
  %194 = getelementptr inbounds i8, ptr %_236, i64 8, !dbg !3946
  %head.1115 = load i64, ptr %194, align 8, !dbg !3946
  store ptr %head.0114, ptr %head.dbg.spill116, align 8, !dbg !3946
  %195 = getelementptr inbounds i8, ptr %head.dbg.spill116, i64 8, !dbg !3946
  store i64 %head.1115, ptr %195, align 8, !dbg !3946
    #dbg_declare(ptr %head.dbg.spill116, !2762, !DIExpression(), !3947)
    #dbg_declare(ptr %head.dbg.spill116, !3200, !DIExpression(DW_OP_LLVM_fragment, 0, 128), !3948)
  %196 = getelementptr inbounds i8, ptr %_236, i64 16, !dbg !3946
  %tail.0117 = load ptr, ptr %196, align 8, !dbg !3946
