	.file	"70hn50kgh2nd2uv0gn9vnsrw1"
	.section	".text._ZN102_$LT$core..iter..adapters..map..Map$LT$I$C$F$GT$$u20$as$u20$core..iter..traits..iterator..Iterator$GT$4fold17h7ddcd6cc84702cbbE","ax",@progbits
	.p2align	4
	.type	_ZN102_$LT$core..iter..adapters..map..Map$LT$I$C$F$GT$$u20$as$u20$core..iter..traits..iterator..Iterator$GT$4fold17h7ddcd6cc84702cbbE,@function
_ZN102_$LT$core..iter..adapters..map..Map$LT$I$C$F$GT$$u20$as$u20$core..iter..traits..iterator..Iterator$GT$4fold17h7ddcd6cc84702cbbE:
.Lfunc_begin0:
	.file	1 "/home/ordyboii/.rustup/toolchains/stable-x86_64-unknown-linux-gnu/lib/rustlib/src/rust/library/core/src/iter/adapters" "map.rs"
	.loc	1 124 0
	.cfi_startproc
	subq	$56, %rsp
	.cfi_def_cfa_offset 64
	movq	%rdi, 32(%rsp)
	movq	%rsi, 40(%rsp)
.Ltmp0:
	.loc	1 88 5 prologue_end
	movq	(%rdx), %rax
	movq	%rax, 8(%rsp)
	movq	8(%rdx), %rax
	movq	%rax, 16(%rsp)
	movq	16(%rdx), %rax
	movq	%rax, 24(%rsp)
.Ltmp1:
	.loc	1 128 9
	leaq	8(%rsp), %rdx
.Ltmp2:
	callq	_ZN91_$LT$core..slice..iter..Iter$LT$T$GT$$u20$as$u20$core..iter..traits..iterator..Iterator$GT$4fold17h9e2d81e84835e3d5E
	.loc	1 129 6 epilogue_begin
	addq	$56, %rsp
	.cfi_def_cfa_offset 8
	retq
.Ltmp3:
.Lfunc_end0:
	.size	_ZN102_$LT$core..iter..adapters..map..Map$LT$I$C$F$GT$$u20$as$u20$core..iter..traits..iterator..Iterator$GT$4fold17h7ddcd6cc84702cbbE, .Lfunc_end0-_ZN102_$LT$core..iter..adapters..map..Map$LT$I$C$F$GT$$u20$as$u20$core..iter..traits..iterator..Iterator$GT$4fold17h7ddcd6cc84702cbbE
	.cfi_endproc

	.section	".text._ZN102_$LT$core..iter..adapters..map..Map$LT$I$C$F$GT$$u20$as$u20$core..iter..traits..iterator..Iterator$GT$9size_hint17h3ffa7ca613f66c5aE","ax",@progbits
	.p2align	4
	.type	_ZN102_$LT$core..iter..adapters..map..Map$LT$I$C$F$GT$$u20$as$u20$core..iter..traits..iterator..Iterator$GT$9size_hint17h3ffa7ca613f66c5aE,@function
_ZN102_$LT$core..iter..adapters..map..Map$LT$I$C$F$GT$$u20$as$u20$core..iter..traits..iterator..Iterator$GT$9size_hint17h3ffa7ca613f66c5aE:
.Lfunc_begin1:
	.loc	1 111 0
	.cfi_startproc
	subq	$24, %rsp
	.cfi_def_cfa_offset 32
	movq	%rdi, %rax
	movq	%rax, 8(%rsp)
	movq	%rsi, 16(%rsp)
.Ltmp4:
	.loc	1 112 9 prologue_end
	callq	_ZN91_$LT$core..slice..iter..Iter$LT$T$GT$$u20$as$u20$core..iter..traits..iterator..Iterator$GT$9size_hint17hc6e5892ca13747a1E
	movq	8(%rsp), %rax
	.loc	1 113 6 epilogue_begin
	addq	$24, %rsp
	.cfi_def_cfa_offset 8
	retq
.Ltmp5:
.Lfunc_end1:
	.size	_ZN102_$LT$core..iter..adapters..map..Map$LT$I$C$F$GT$$u20$as$u20$core..iter..traits..iterator..Iterator$GT$9size_hint17h3ffa7ca613f66c5aE, .Lfunc_end1-_ZN102_$LT$core..iter..adapters..map..Map$LT$I$C$F$GT$$u20$as$u20$core..iter..traits..iterator..Iterator$GT$9size_hint17h3ffa7ca613f66c5aE
	.cfi_endproc

	.section	".text._ZN106_$LT$core..ops..range..Range$LT$usize$GT$$u20$as$u20$core..slice..index..SliceIndex$LT$$u5b$T$u5d$$GT$$GT$17get_unchecked_mut18precondition_check17h9361b567bc89acc4E","ax",@progbits
	.p2align	4
	.type	_ZN106_$LT$core..ops..range..Range$LT$usize$GT$$u20$as$u20$core..slice..index..SliceIndex$LT$$u5b$T$u5d$$GT$$GT$17get_unchecked_mut18precondition_check17h9361b567bc89acc4E,@function
_ZN106_$LT$core..ops..range..Range$LT$usize$GT$$u20$as$u20$core..slice..index..SliceIndex$LT$$u5b$T$u5d$$GT$$GT$17get_unchecked_mut18precondition_check17h9361b567bc89acc4E:
.Lfunc_begin2:
	.file	2 "/home/ordyboii/.rustup/toolchains/stable-x86_64-unknown-linux-gnu/lib/rustlib/src/rust/library/core/src" "ub_checks.rs"
	.loc	2 66 0
	.cfi_startproc
	subq	$40, %rsp
	.cfi_def_cfa_offset 48
	movq	%rsi, (%rsp)
	movq	%rdx, 8(%rsp)
	movq	%rdi, 16(%rsp)
	movq	%rsi, 24(%rsp)
	movq	%rdx, 32(%rsp)
.Ltmp6:
	.file	3 "/home/ordyboii/.rustup/toolchains/stable-x86_64-unknown-linux-gnu/lib/rustlib/src/rust/library/core/src/slice" "index.rs"
	.loc	3 421 18 prologue_end
	cmpq	%rdi, %rsi
	jae	.LBB2_2
.LBB2_1:
	.loc	2 68 21
	leaq	.Lanon.60f91fde1ce0e38296af11bc775d42ab.0(%rip), %rdi
	movl	$218, %esi
	callq	*_ZN4core9panicking14panic_nounwind17h0c59dc9f7f043eadE@GOTPCREL(%rip)
.LBB2_2:
	.loc	2 0 21 is_stmt 0
	movq	(%rsp), %rax
	movq	8(%rsp), %rcx
	.loc	3 421 34 is_stmt 1
	cmpq	%rcx, %rax
	ja	.LBB2_1
	.loc	2 72 14 epilogue_begin
	addq	$40, %rsp
	.cfi_def_cfa_offset 8
	retq
.Ltmp7:
.Lfunc_end2:
	.size	_ZN106_$LT$core..ops..range..Range$LT$usize$GT$$u20$as$u20$core..slice..index..SliceIndex$LT$$u5b$T$u5d$$GT$$GT$17get_unchecked_mut18precondition_check17h9361b567bc89acc4E, .Lfunc_end2-_ZN106_$LT$core..ops..range..Range$LT$usize$GT$$u20$as$u20$core..slice..index..SliceIndex$LT$$u5b$T$u5d$$GT$$GT$17get_unchecked_mut18precondition_check17h9361b567bc89acc4E
	.cfi_endproc

	.section	".text._ZN111_$LT$alloc..vec..Vec$LT$T$GT$$u20$as$u20$alloc..vec..spec_from_iter_nested..SpecFromIterNested$LT$T$C$I$GT$$GT$9from_iter17h6cd1dac3112a4a07E","ax",@progbits
	.p2align	4
	.type	_ZN111_$LT$alloc..vec..Vec$LT$T$GT$$u20$as$u20$alloc..vec..spec_from_iter_nested..SpecFromIterNested$LT$T$C$I$GT$$GT$9from_iter17h6cd1dac3112a4a07E,@function
_ZN111_$LT$alloc..vec..Vec$LT$T$GT$$u20$as$u20$alloc..vec..spec_from_iter_nested..SpecFromIterNested$LT$T$C$I$GT$$GT$9from_iter17h6cd1dac3112a4a07E:
.Lfunc_begin3:
	.file	4 "/home/ordyboii/.rustup/toolchains/stable-x86_64-unknown-linux-gnu/lib/rustlib/src/rust/library/alloc/src/vec" "spec_from_iter_nested.rs"
	.loc	4 52 0
	.cfi_startproc
	.cfi_personality 155, DW.ref.rust_eh_personality
	.cfi_lsda 27, .Lexception0
	subq	$200, %rsp
	.cfi_def_cfa_offset 208
	movq	%rcx, 16(%rsp)
	movq	%rdi, 24(%rsp)
	movq	%rdi, 32(%rsp)
	movq	%rsi, 40(%rsp)
	movq	%rdx, 48(%rsp)
.Ltmp21:
	.file	5 "/home/ordyboii/.rustup/toolchains/stable-x86_64-unknown-linux-gnu/lib/rustlib/src/rust/library/core/src/fmt" "rt.rs"
	.loc	5 234 44 prologue_end
	leaq	.Lanon.60f91fde1ce0e38296af11bc775d42ab.2(%rip), %rax
	movq	%rax, 160(%rsp)
.Ltmp22:
	.loc	4 53 13
	movb	$1, 159(%rsp)
.Ltmp8:
	leaq	80(%rsp), %rdi
	leaq	40(%rsp), %rsi
	.loc	4 53 32 is_stmt 0
	callq	_ZN102_$LT$core..iter..adapters..map..Map$LT$I$C$F$GT$$u20$as$u20$core..iter..traits..iterator..Iterator$GT$9size_hint17h3ffa7ca613f66c5aE
.Ltmp9:
	jmp	.LBB3_3
.LBB3_1:
	.loc	4 64 5 is_stmt 1
	testb	$1, 159(%rsp)
	jne	.LBB3_13
	jmp	.LBB3_12
.LBB3_2:
.Ltmp14:
	.loc	4 0 5 is_stmt 0
	movq	%rax, %rcx
	movl	%edx, %eax
	movq	%rcx, 176(%rsp)
	movl	%eax, 184(%rsp)
	jmp	.LBB3_1
.LBB3_3:
	.loc	4 53 26 is_stmt 1
	testq	$1, 88(%rsp)
	je	.LBB3_5
	.loc	4 0 26 is_stmt 0
	movq	16(%rsp), %rcx
	.loc	4 54 22 is_stmt 1
	movq	96(%rsp), %rdi
	movq	%rdi, 192(%rsp)
.Ltmp12:
	movl	$8, %esi
	movl	$24, %edx
.Ltmp23:
	.file	6 "/home/ordyboii/.rustup/toolchains/stable-x86_64-unknown-linux-gnu/lib/rustlib/src/rust/library/alloc/src/raw_vec" "mod.rs"
	.loc	6 190 20
	callq	_ZN5alloc7raw_vec20RawVecInner$LT$A$GT$16with_capacity_in17h05a0957b7809f1a2E
.Ltmp13:
	movq	%rdx, (%rsp)
	movq	%rax, 8(%rsp)
	jmp	.LBB3_6
.Ltmp24:
.LBB3_5:
	.loc	6 0 20 is_stmt 0
	movq	16(%rsp), %rsi
.Ltmp25:
	.loc	5 236 9 is_stmt 1
	leaq	.Lanon.60f91fde1ce0e38296af11bc775d42ab.2(%rip), %rax
	movq	%rax, 104(%rsp)
	movq	$1, 112(%rsp)
	movq	.Lanon.60f91fde1ce0e38296af11bc775d42ab.3(%rip), %rcx
	movq	.Lanon.60f91fde1ce0e38296af11bc775d42ab.3+8(%rip), %rax
	movq	%rcx, 136(%rsp)
	movq	%rax, 144(%rsp)
	movq	$8, 120(%rsp)
	movq	$0, 128(%rsp)
.Ltmp26:
.Ltmp10:
	.loc	4 59 18
	movq	_ZN4core9panicking9panic_fmt17hc8737e8cca20a7c8E@GOTPCREL(%rip), %rax
	leaq	104(%rsp), %rdi
	callq	*%rax
.Ltmp11:
	jmp	.LBB3_11
.LBB3_6:
	.loc	4 0 18 is_stmt 0
	movq	16(%rsp), %rcx
	movq	(%rsp), %rax
	movq	8(%rsp), %rdx
.Ltmp27:
	.file	7 "/home/ordyboii/.rustup/toolchains/stable-x86_64-unknown-linux-gnu/lib/rustlib/src/rust/library/alloc/src/vec" "mod.rs"
	.loc	7 815 9 is_stmt 1
	movq	%rdx, 56(%rsp)
	movq	%rax, 64(%rsp)
	movq	$0, 72(%rsp)
.Ltmp28:
	.loc	4 62 28
	movb	$0, 159(%rsp)
	movq	40(%rsp), %rsi
	movq	48(%rsp), %rdx
.Ltmp15:
	leaq	56(%rsp), %rdi
	.loc	4 62 9 is_stmt 0
	callq	_ZN97_$LT$alloc..vec..Vec$LT$T$C$A$GT$$u20$as$u20$alloc..vec..spec_extend..SpecExtend$LT$T$C$I$GT$$GT$11spec_extend17h095ced255a6a2afaE
.Ltmp16:
	jmp	.LBB3_9
.Ltmp29:
.LBB3_7:
.Ltmp18:
	.loc	4 0 9
	leaq	56(%rsp), %rdi
	.loc	4 64 5 is_stmt 1
	callq	_ZN4core3ptr65drop_in_place$LT$alloc..vec..Vec$LT$alloc..string..String$GT$$GT$17he8f3654548fa77e1E
.Ltmp19:
	jmp	.LBB3_1
.LBB3_8:
.Ltmp17:
	.loc	4 0 5 is_stmt 0
	movq	%rax, %rcx
	movl	%edx, %eax
	movq	%rcx, 176(%rsp)
	movl	%eax, 184(%rsp)
	jmp	.LBB3_7
.LBB3_9:
	movq	32(%rsp), %rax
	movq	24(%rsp), %rcx
.Ltmp30:
	.loc	4 63 9 is_stmt 1
	movq	56(%rsp), %rdx
	movq	%rdx, (%rcx)
	movq	64(%rsp), %rdx
	movq	%rdx, 8(%rcx)
	movq	72(%rsp), %rdx
	movq	%rdx, 16(%rcx)
.Ltmp31:
	.loc	4 64 6 epilogue_begin
	addq	$200, %rsp
	.cfi_def_cfa_offset 8
	retq
.LBB3_10:
	.cfi_def_cfa_offset 208
.Ltmp20:
	.loc	4 52 5
	callq	*_ZN4core9panicking16panic_in_cleanup17h51d1753fd07771d1E@GOTPCREL(%rip)
.LBB3_11:
	.loc	4 0 5 is_stmt 0
	ud2
.LBB3_12:
	.loc	4 52 5 is_stmt 1
	movq	176(%rsp), %rdi
	callq	_Unwind_Resume@PLT
.LBB3_13:
	.loc	4 64 5
	jmp	.LBB3_12
.Ltmp32:
.Lfunc_end3:
	.size	_ZN111_$LT$alloc..vec..Vec$LT$T$GT$$u20$as$u20$alloc..vec..spec_from_iter_nested..SpecFromIterNested$LT$T$C$I$GT$$GT$9from_iter17h6cd1dac3112a4a07E, .Lfunc_end3-_ZN111_$LT$alloc..vec..Vec$LT$T$GT$$u20$as$u20$alloc..vec..spec_from_iter_nested..SpecFromIterNested$LT$T$C$I$GT$$GT$9from_iter17h6cd1dac3112a4a07E
	.cfi_endproc
	.section	".gcc_except_table._ZN111_$LT$alloc..vec..Vec$LT$T$GT$$u20$as$u20$alloc..vec..spec_from_iter_nested..SpecFromIterNested$LT$T$C$I$GT$$GT$9from_iter17h6cd1dac3112a4a07E","a",@progbits
	.p2align	2, 0x0
GCC_except_table3:
.Lexception0:
	.byte	255
	.byte	155
	.uleb128 .Lttbase0-.Lttbaseref0
.Lttbaseref0:
	.byte	1
	.uleb128 .Lcst_end0-.Lcst_begin0
.Lcst_begin0:
	.uleb128 .Ltmp8-.Lfunc_begin3
	.uleb128 .Ltmp11-.Ltmp8
	.uleb128 .Ltmp14-.Lfunc_begin3
	.byte	0
	.uleb128 .Ltmp15-.Lfunc_begin3
	.uleb128 .Ltmp16-.Ltmp15
	.uleb128 .Ltmp17-.Lfunc_begin3
	.byte	0
	.uleb128 .Ltmp18-.Lfunc_begin3
	.uleb128 .Ltmp19-.Ltmp18
	.uleb128 .Ltmp20-.Lfunc_begin3
	.byte	1
	.uleb128 .Ltmp19-.Lfunc_begin3
	.uleb128 .Lfunc_end3-.Ltmp19
	.byte	0
	.byte	0
.Lcst_end0:
	.byte	127
	.byte	0
	.p2align	2, 0x0
.Lttbase0:
	.byte	0
	.p2align	2, 0x0

	.section	".text._ZN145_$LT$core..option..Option$LT$T$GT$$u20$as$u20$core..ops..try_trait..FromResidual$LT$core..option..Option$LT$core..convert..Infallible$GT$$GT$$GT$13from_residual17h60ff51a2c2ccc921E","ax",@progbits
	.p2align	4
	.type	_ZN145_$LT$core..option..Option$LT$T$GT$$u20$as$u20$core..ops..try_trait..FromResidual$LT$core..option..Option$LT$core..convert..Infallible$GT$$GT$$GT$13from_residual17h60ff51a2c2ccc921E,@function
_ZN145_$LT$core..option..Option$LT$T$GT$$u20$as$u20$core..ops..try_trait..FromResidual$LT$core..option..Option$LT$core..convert..Infallible$GT$$GT$$GT$13from_residual17h60ff51a2c2ccc921E:
.Lfunc_begin4:
	.cfi_startproc
	.file	8 "/home/ordyboii/.rustup/toolchains/stable-x86_64-unknown-linux-gnu/lib/rustlib/src/rust/library/core/src" "option.rs"
	.loc	8 2529 21 prologue_end
	movq	$0, -24(%rsp)
	.loc	8 2531 6
	movq	-24(%rsp), %rax
	movq	-16(%rsp), %rdx
	retq
.Ltmp33:
.Lfunc_end4:
	.size	_ZN145_$LT$core..option..Option$LT$T$GT$$u20$as$u20$core..ops..try_trait..FromResidual$LT$core..option..Option$LT$core..convert..Infallible$GT$$GT$$GT$13from_residual17h60ff51a2c2ccc921E, .Lfunc_end4-_ZN145_$LT$core..option..Option$LT$T$GT$$u20$as$u20$core..ops..try_trait..FromResidual$LT$core..option..Option$LT$core..convert..Infallible$GT$$GT$$GT$13from_residual17h60ff51a2c2ccc921E
	.cfi_endproc

	.section	.text._ZN3std2rt10lang_start17h0e4b2f6a570fd303E,"ax",@progbits
	.hidden	_ZN3std2rt10lang_start17h0e4b2f6a570fd303E
	.globl	_ZN3std2rt10lang_start17h0e4b2f6a570fd303E
	.p2align	4
	.type	_ZN3std2rt10lang_start17h0e4b2f6a570fd303E,@function
_ZN3std2rt10lang_start17h0e4b2f6a570fd303E:
.Lfunc_begin5:
	.file	9 "/home/ordyboii/.rustup/toolchains/stable-x86_64-unknown-linux-gnu/lib/rustlib/src/rust/library/std/src" "rt.rs"
	.loc	9 192 0
	.cfi_startproc
	subq	$40, %rsp
	.cfi_def_cfa_offset 48
	movl	%ecx, %eax
	movq	%rdx, %rcx
	movq	%rsi, %rdx
	movq	%rdi, 8(%rsp)
	movq	%rdx, 16(%rsp)
	movq	%rcx, 24(%rsp)
	movb	%al, 39(%rsp)
.Ltmp34:
	.loc	9 199 10 prologue_end
	movq	%rdi, (%rsp)
	.loc	9 198 5
	movq	%rsp, %rdi
	leaq	.Lanon.60f91fde1ce0e38296af11bc775d42ab.4(%rip), %rsi
	movzbl	%al, %r8d
	callq	*_ZN3std2rt19lang_start_internal17ha8ef919ae4984948E@GOTPCREL(%rip)
	.loc	9 204 2 epilogue_begin
	addq	$40, %rsp
	.cfi_def_cfa_offset 8
	retq
.Ltmp35:
.Lfunc_end5:
	.size	_ZN3std2rt10lang_start17h0e4b2f6a570fd303E, .Lfunc_end5-_ZN3std2rt10lang_start17h0e4b2f6a570fd303E
	.cfi_endproc

	.section	".text._ZN3std2rt10lang_start28_$u7b$$u7b$closure$u7d$$u7d$17h7bca82e2071632c2E","ax",@progbits
	.p2align	4
	.type	_ZN3std2rt10lang_start28_$u7b$$u7b$closure$u7d$$u7d$17h7bca82e2071632c2E,@function
_ZN3std2rt10lang_start28_$u7b$$u7b$closure$u7d$$u7d$17h7bca82e2071632c2E:
.Lfunc_begin6:
	.loc	9 199 0
	.cfi_startproc
	subq	$24, %rsp
	.cfi_def_cfa_offset 32
	movq	%rdi, 8(%rsp)
.Ltmp36:
	.loc	9 199 70 prologue_end
	movq	(%rdi), %rdi
	.loc	9 199 18 is_stmt 0
	callq	_ZN3std3sys9backtrace28__rust_begin_short_backtrace17h5d36bea90cfefb88E
	callq	_ZN54_$LT$$LP$$RP$$u20$as$u20$std..process..Termination$GT$6report17hc0bfbf9625380bc6E
	movb	%al, 23(%rsp)
.Ltmp37:
	.file	10 "/home/ordyboii/.rustup/toolchains/stable-x86_64-unknown-linux-gnu/lib/rustlib/src/rust/library/std/src/sys/process/unix" "common.rs"
	.loc	10 637 9 is_stmt 1
	movzbl	%al, %eax
.Ltmp38:
	.loc	9 199 93 epilogue_begin
	addq	$24, %rsp
	.cfi_def_cfa_offset 8
	retq
.Ltmp39:
.Lfunc_end6:
	.size	_ZN3std2rt10lang_start28_$u7b$$u7b$closure$u7d$$u7d$17h7bca82e2071632c2E, .Lfunc_end6-_ZN3std2rt10lang_start28_$u7b$$u7b$closure$u7d$$u7d$17h7bca82e2071632c2E
	.cfi_endproc
	.file	11 "/home/ordyboii/.rustup/toolchains/stable-x86_64-unknown-linux-gnu/lib/rustlib/src/rust/library/std/src" "process.rs"

	.section	.text._ZN3std3sys9backtrace28__rust_begin_short_backtrace17h5d36bea90cfefb88E,"ax",@progbits
	.p2align	4
	.type	_ZN3std3sys9backtrace28__rust_begin_short_backtrace17h5d36bea90cfefb88E,@function
_ZN3std3sys9backtrace28__rust_begin_short_backtrace17h5d36bea90cfefb88E:
.Lfunc_begin7:
	.file	12 "/home/ordyboii/.rustup/toolchains/stable-x86_64-unknown-linux-gnu/lib/rustlib/src/rust/library/std/src/sys" "backtrace.rs"
	.loc	12 148 0
	.cfi_startproc
	subq	$24, %rsp
	.cfi_def_cfa_offset 32
	movq	%rdi, 8(%rsp)
.Ltmp40:
	.loc	12 152 18 prologue_end
	callq	_ZN4core3ops8function6FnOnce9call_once17h44661120698f704fE
.Ltmp41:
	.file	13 "/home/ordyboii/.rustup/toolchains/stable-x86_64-unknown-linux-gnu/lib/rustlib/src/rust/library/core/src" "hint.rs"
	.loc	13 482 5
	#APP
	#NO_APP
.Ltmp42:
	.loc	12 158 2 epilogue_begin
	addq	$24, %rsp
	.cfi_def_cfa_offset 8
	retq
.Ltmp43:
.Lfunc_end7:
	.size	_ZN3std3sys9backtrace28__rust_begin_short_backtrace17h5d36bea90cfefb88E, .Lfunc_end7-_ZN3std3sys9backtrace28__rust_begin_short_backtrace17h5d36bea90cfefb88E
	.cfi_endproc

	.section	".text._ZN42_$LT$$RF$T$u20$as$u20$core..fmt..Debug$GT$3fmt17h604aa6ac4e2b7f9cE","ax",@progbits
	.p2align	4
	.type	_ZN42_$LT$$RF$T$u20$as$u20$core..fmt..Debug$GT$3fmt17h604aa6ac4e2b7f9cE,@function
_ZN42_$LT$$RF$T$u20$as$u20$core..fmt..Debug$GT$3fmt17h604aa6ac4e2b7f9cE:
.Lfunc_begin8:
	.file	14 "/home/ordyboii/.rustup/toolchains/stable-x86_64-unknown-linux-gnu/lib/rustlib/src/rust/library/core/src/fmt" "mod.rs"
	.loc	14 2636 0
	.cfi_startproc
	subq	$24, %rsp
	.cfi_def_cfa_offset 32
	movq	%rdi, 8(%rsp)
	movq	%rsi, 16(%rsp)
.Ltmp44:
	.loc	14 2636 71 prologue_end
	movq	(%rdi), %rdi
	.loc	14 2636 62 is_stmt 0
	callq	_ZN4core3fmt3num50_$LT$impl$u20$core..fmt..Debug$u20$for$u20$u32$GT$3fmt17h9a8837f6fe138309E
	.loc	14 2636 84
	andb	$1, %al
	.loc	14 2636 84 epilogue_begin
	addq	$24, %rsp
	.cfi_def_cfa_offset 8
	retq
.Ltmp45:
.Lfunc_end8:
	.size	_ZN42_$LT$$RF$T$u20$as$u20$core..fmt..Debug$GT$3fmt17h604aa6ac4e2b7f9cE, .Lfunc_end8-_ZN42_$LT$$RF$T$u20$as$u20$core..fmt..Debug$GT$3fmt17h604aa6ac4e2b7f9cE
	.cfi_endproc

	.section	".text._ZN45_$LT$T$u20$as$u20$alloc..string..ToString$GT$9to_string17h3ee06f2d717a5f76E","ax",@progbits
	.p2align	4
	.type	_ZN45_$LT$T$u20$as$u20$alloc..string..ToString$GT$9to_string17h3ee06f2d717a5f76E,@function
_ZN45_$LT$T$u20$as$u20$alloc..string..ToString$GT$9to_string17h3ee06f2d717a5f76E:
.Lfunc_begin9:
	.file	15 "/home/ordyboii/.rustup/toolchains/stable-x86_64-unknown-linux-gnu/lib/rustlib/src/rust/library/alloc/src" "string.rs"
	.loc	15 2777 0 is_stmt 1
	.cfi_startproc
	subq	$24, %rsp
	.cfi_def_cfa_offset 32
	movq	%rdi, %rax
	movq	%rax, 8(%rsp)
	movq	%rsi, 16(%rsp)
.Ltmp46:
	.loc	15 2778 9 prologue_end
	callq	_ZN49_$LT$T$u20$as$u20$alloc..string..SpecToString$GT$14spec_to_string17hbd2169576e296684E
	movq	8(%rsp), %rax
	.loc	15 2779 6 epilogue_begin
	addq	$24, %rsp
	.cfi_def_cfa_offset 8
	retq
.Ltmp47:
.Lfunc_end9:
	.size	_ZN45_$LT$T$u20$as$u20$alloc..string..ToString$GT$9to_string17h3ee06f2d717a5f76E, .Lfunc_end9-_ZN45_$LT$T$u20$as$u20$alloc..string..ToString$GT$9to_string17h3ee06f2d717a5f76E
	.cfi_endproc

	.section	".text._ZN47_$LT$u32$u20$as$u20$core..iter..range..Step$GT$17forward_unchecked17hab588e00b7cf7ac9E","ax",@progbits
	.p2align	4
	.type	_ZN47_$LT$u32$u20$as$u20$core..iter..range..Step$GT$17forward_unchecked17hab588e00b7cf7ac9E,@function
_ZN47_$LT$u32$u20$as$u20$core..iter..range..Step$GT$17forward_unchecked17hab588e00b7cf7ac9E:
.Lfunc_begin10:
	.file	16 "/home/ordyboii/.rustup/toolchains/stable-x86_64-unknown-linux-gnu/lib/rustlib/src/rust/library/core/src/iter" "range.rs"
	.loc	16 203 0
	.cfi_startproc
	subq	$40, %rsp
	.cfi_def_cfa_offset 48
	movl	%edi, 12(%rsp)
	movl	%edi, 20(%rsp)
	movq	%rsi, 24(%rsp)
.Ltmp48:
	.loc	16 205 42 prologue_end
	movl	%esi, %eax
	movl	%eax, 16(%rsp)
	movl	%eax, 36(%rsp)
	.loc	16 0 42 is_stmt 0
	movl	16(%rsp), %esi
	movl	12(%rsp), %edi
.Ltmp49:
	.loc	2 75 17 is_stmt 1
	callq	_ZN4core3num21_$LT$impl$u20$u32$GT$13unchecked_add18precondition_check17h258d4fee987fb047E
	.loc	2 0 17 is_stmt 0
	movl	16(%rsp), %ecx
	movl	12(%rsp), %eax
	.file	17 "/home/ordyboii/.rustup/toolchains/stable-x86_64-unknown-linux-gnu/lib/rustlib/src/rust/library/core/src/num" "uint_macros.rs"
	.loc	17 617 17 is_stmt 1
	addl	%ecx, %eax
.Ltmp50:
	.loc	16 206 10 epilogue_begin
	addq	$40, %rsp
	.cfi_def_cfa_offset 8
	retq
.Ltmp51:
.Lfunc_end10:
	.size	_ZN47_$LT$u32$u20$as$u20$core..iter..range..Step$GT$17forward_unchecked17hab588e00b7cf7ac9E, .Lfunc_end10-_ZN47_$LT$u32$u20$as$u20$core..iter..range..Step$GT$17forward_unchecked17hab588e00b7cf7ac9E
	.cfi_endproc

	.section	".text._ZN48_$LT$$u5b$T$u5d$$u20$as$u20$core..fmt..Debug$GT$3fmt17h2485be3502a00e3eE","ax",@progbits
	.p2align	4
	.type	_ZN48_$LT$$u5b$T$u5d$$u20$as$u20$core..fmt..Debug$GT$3fmt17h2485be3502a00e3eE,@function
_ZN48_$LT$$u5b$T$u5d$$u20$as$u20$core..fmt..Debug$GT$3fmt17h2485be3502a00e3eE:
.Lfunc_begin11:
	.loc	14 2891 0
	.cfi_startproc
	subq	$120, %rsp
	.cfi_def_cfa_offset 128
	movq	%rdx, 8(%rsp)
	movq	%rsi, %rax
	movq	8(%rsp), %rsi
	movq	%rdi, 24(%rsp)
	movq	%rax, 16(%rsp)
	movq	%rdi, 56(%rsp)
	movq	%rax, 64(%rsp)
	movq	%rsi, 72(%rsp)
.Ltmp52:
	.loc	14 2892 9 prologue_end
	leaq	32(%rsp), %rdi
	callq	*_ZN4core3fmt9Formatter10debug_list17h091d7ad5d6835b04E@GOTPCREL(%rip)
	movq	16(%rsp), %rsi
	movq	24(%rsp), %rdi
.Ltmp53:
	.file	18 "/home/ordyboii/.rustup/toolchains/stable-x86_64-unknown-linux-gnu/lib/rustlib/src/rust/library/core/src/slice" "iter.rs"
	.loc	18 97 19
	movq	%rsi, 80(%rsp)
.Ltmp54:
	.file	19 "/home/ordyboii/.rustup/toolchains/stable-x86_64-unknown-linux-gnu/lib/rustlib/src/rust/library/core/src/ptr" "non_null.rs"
	.loc	19 269 18
	movq	%rdi, 88(%rsp)
	movq	%rsi, 96(%rsp)
.Ltmp55:
	.loc	19 488 18
	movq	%rdi, 104(%rsp)
.Ltmp56:
	.loc	19 0 18 is_stmt 0
	movq	24(%rsp), %rax
	movq	16(%rsp), %rcx
.Ltmp57:
	.loc	19 391 18 is_stmt 1
	movq	%rax, 112(%rsp)
.Ltmp58:
	.file	20 "/home/ordyboii/.rustup/toolchains/stable-x86_64-unknown-linux-gnu/lib/rustlib/src/rust/library/core/src/ptr" "mut_ptr.rs"
	.loc	20 1056 18
	shlq	$2, %rcx
	addq	%rcx, %rax
.Ltmp59:
	.loc	18 102 63
	movq	%rax, 48(%rsp)
	.loc	18 0 63 is_stmt 0
	movq	24(%rsp), %rsi
.Ltmp60:
	.loc	18 104 25 is_stmt 1
	movq	48(%rsp), %rdx
.Ltmp61:
	.loc	14 2892 9
	leaq	32(%rsp), %rdi
	callq	_ZN4core3fmt8builders9DebugList7entries17hdaa253f17173d77aE
	movq	%rax, %rdi
	callq	*_ZN4core3fmt8builders9DebugList6finish17h36cf362e84b5c024E@GOTPCREL(%rip)
	.loc	14 2893 6
	andb	$1, %al
	.loc	14 2893 6 epilogue_begin is_stmt 0
	addq	$120, %rsp
	.cfi_def_cfa_offset 8
	retq
.Ltmp62:
.Lfunc_end11:
	.size	_ZN48_$LT$$u5b$T$u5d$$u20$as$u20$core..fmt..Debug$GT$3fmt17h2485be3502a00e3eE, .Lfunc_end11-_ZN48_$LT$$u5b$T$u5d$$u20$as$u20$core..fmt..Debug$GT$3fmt17h2485be3502a00e3eE
	.cfi_endproc
	.file	21 "/home/ordyboii/.rustup/toolchains/stable-x86_64-unknown-linux-gnu/lib/rustlib/src/rust/library/core/src/slice" "mod.rs"

	.section	".text._ZN49_$LT$T$u20$as$u20$alloc..string..SpecToString$GT$14spec_to_string17hbd2169576e296684E","ax",@progbits
	.p2align	4
	.type	_ZN49_$LT$T$u20$as$u20$alloc..string..SpecToString$GT$14spec_to_string17hbd2169576e296684E,@function
_ZN49_$LT$T$u20$as$u20$alloc..string..SpecToString$GT$14spec_to_string17hbd2169576e296684E:
.Lfunc_begin12:
	.loc	15 2794 0 is_stmt 1
	.cfi_startproc
	.cfi_personality 155, DW.ref.rust_eh_personality
	.cfi_lsda 27, .Lexception1
	subq	$152, %rsp
	.cfi_def_cfa_offset 160
	movq	%rsi, (%rsp)
	movq	%rdi, %rax
	movq	(%rsp), %rdi
	movq	%rax, 8(%rsp)
	movq	%rax, 16(%rsp)
	movq	%rdi, 112(%rsp)
.Ltmp71:
	.loc	7 435 9 prologue_end
	movq	$0, 88(%rsp)
	movq	$1, 96(%rsp)
	movq	$0, 104(%rsp)
.Ltmp72:
	.loc	15 445 9
	movq	104(%rsp), %rax
	movq	%rax, 48(%rsp)
	movups	88(%rsp), %xmm0
	movaps	%xmm0, 32(%rsp)
	leaq	32(%rsp), %rcx
.Ltmp73:
	.loc	15 2797 39
	movq	%rcx, 120(%rsp)
	leaq	.Lanon.60f91fde1ce0e38296af11bc775d42ab.5(%rip), %rax
	movq	%rax, 128(%rsp)
.Ltmp74:
	.loc	14 342 9
	movl	$-536870880, 80(%rsp)
	movw	$0, 84(%rsp)
	movw	$0, 86(%rsp)
.Ltmp75:
	.loc	14 578 9
	movq	80(%rsp), %rdx
	movq	%rdx, 72(%rsp)
	movq	%rcx, 56(%rsp)
	movq	%rax, 64(%rsp)
.Ltmp76:
.Ltmp63:
	.loc	15 2799 9
	movq	_ZN4core3fmt3num3imp52_$LT$impl$u20$core..fmt..Display$u20$for$u20$u32$GT$3fmt17heae17e31cadbc382E@GOTPCREL(%rip), %rax
	leaq	56(%rsp), %rsi
	callq	*%rax
.Ltmp64:
	movb	%al, 31(%rsp)
	jmp	.LBB12_3
.Ltmp77:
.LBB12_1:
.Ltmp68:
	.loc	15 0 9 is_stmt 0
	leaq	32(%rsp), %rdi
	.loc	15 2802 5 is_stmt 1
	callq	_ZN4core3ptr42drop_in_place$LT$alloc..string..String$GT$17h5c57c16fee11b4e5E
.Ltmp69:
	jmp	.LBB12_6
.LBB12_2:
.Ltmp67:
	.loc	15 0 5 is_stmt 0
	movq	%rax, %rcx
	movl	%edx, %eax
	movq	%rcx, 136(%rsp)
	movl	%eax, 144(%rsp)
	jmp	.LBB12_1
.LBB12_3:
.Ltmp65:
	movb	31(%rsp), %al
.Ltmp78:
	.loc	15 2799 9 is_stmt 1
	movzbl	%al, %edi
	andl	$1, %edi
	leaq	.Lanon.60f91fde1ce0e38296af11bc775d42ab.6(%rip), %rsi
	leaq	.Lanon.60f91fde1ce0e38296af11bc775d42ab.8(%rip), %rcx
	movl	$55, %edx
	callq	_ZN4core6result19Result$LT$T$C$E$GT$6expect17h5f6b71b3d785523fE
.Ltmp66:
	jmp	.LBB12_4
.LBB12_4:
	.loc	15 0 9 is_stmt 0
	movq	16(%rsp), %rax
	movq	8(%rsp), %rcx
	.loc	15 2801 9 is_stmt 1
	movq	32(%rsp), %rdx
	movq	%rdx, (%rcx)
	movq	40(%rsp), %rdx
	movq	%rdx, 8(%rcx)
	movq	48(%rsp), %rdx
	movq	%rdx, 16(%rcx)
.Ltmp79:
	.loc	15 2802 6 epilogue_begin
	addq	$152, %rsp
	.cfi_def_cfa_offset 8
	retq
.LBB12_5:
	.cfi_def_cfa_offset 160
.Ltmp70:
	.loc	15 2794 5
	callq	*_ZN4core9panicking16panic_in_cleanup17h51d1753fd07771d1E@GOTPCREL(%rip)
.LBB12_6:
	.loc	15 2794 5
	movq	136(%rsp), %rdi
	callq	_Unwind_Resume@PLT
.Ltmp80:
.Lfunc_end12:
	.size	_ZN49_$LT$T$u20$as$u20$alloc..string..SpecToString$GT$14spec_to_string17hbd2169576e296684E, .Lfunc_end12-_ZN49_$LT$T$u20$as$u20$alloc..string..SpecToString$GT$14spec_to_string17hbd2169576e296684E
	.cfi_endproc
	.section	".gcc_except_table._ZN49_$LT$T$u20$as$u20$alloc..string..SpecToString$GT$14spec_to_string17hbd2169576e296684E","a",@progbits
	.p2align	2, 0x0
GCC_except_table12:
.Lexception1:
	.byte	255
	.byte	155
	.uleb128 .Lttbase1-.Lttbaseref1
.Lttbaseref1:
	.byte	1
	.uleb128 .Lcst_end1-.Lcst_begin1
.Lcst_begin1:
	.uleb128 .Ltmp63-.Lfunc_begin12
	.uleb128 .Ltmp64-.Ltmp63
	.uleb128 .Ltmp67-.Lfunc_begin12
	.byte	0
	.uleb128 .Ltmp68-.Lfunc_begin12
	.uleb128 .Ltmp69-.Ltmp68
	.uleb128 .Ltmp70-.Lfunc_begin12
	.byte	1
	.uleb128 .Ltmp65-.Lfunc_begin12
	.uleb128 .Ltmp66-.Ltmp65
	.uleb128 .Ltmp67-.Lfunc_begin12
	.byte	0
	.uleb128 .Ltmp66-.Lfunc_begin12
	.uleb128 .Lfunc_end12-.Ltmp66
	.byte	0
	.byte	0
.Lcst_end1:
	.byte	127
	.byte	0
	.p2align	2, 0x0
.Lttbase1:
	.byte	0
	.p2align	2, 0x0

	.section	.text._ZN4core10intrinsics19copy_nonoverlapping18precondition_check17hc81675b7eb28c56aE,"ax",@progbits
	.p2align	4
	.type	_ZN4core10intrinsics19copy_nonoverlapping18precondition_check17hc81675b7eb28c56aE,@function
_ZN4core10intrinsics19copy_nonoverlapping18precondition_check17hc81675b7eb28c56aE:
.Lfunc_begin13:
	.loc	2 66 0
	.cfi_startproc
	.cfi_personality 155, DW.ref.rust_eh_personality
	.cfi_lsda 27, .Lexception2
	subq	$280, %rsp
	.cfi_def_cfa_offset 288
	movq	%rdi, 16(%rsp)
	movq	%rsi, 24(%rsp)
	movq	%rdx, 32(%rsp)
	movq	%rcx, 40(%rsp)
	movq	%r8, 48(%rsp)
	movq	%rdi, 208(%rsp)
	movq	%rsi, 216(%rsp)
	movq	%rdx, 224(%rsp)
	movq	%rcx, 232(%rsp)
	movq	%r8, 240(%rsp)
.Ltmp88:
	.loc	5 234 44 prologue_end
	leaq	.Lanon.60f91fde1ce0e38296af11bc775d42ab.10(%rip), %rax
	movq	%rax, 248(%rsp)
.Ltmp89:
	.loc	5 234 44 is_stmt 0
	leaq	.Lanon.60f91fde1ce0e38296af11bc775d42ab.10(%rip), %rax
	movq	%rax, 256(%rsp)
.Ltmp90:
	.file	22 "/home/ordyboii/.rustup/toolchains/stable-x86_64-unknown-linux-gnu/lib/rustlib/src/rust/library/core/src/intrinsics" "mod.rs"
	.loc	22 3744 29 is_stmt 1
	cmpq	$0, %r8
	jne	.LBB13_2
	.loc	22 0 29 is_stmt 0
	movq	40(%rsp), %rcx
	.loc	22 3744 29
	movb	$1, 63(%rsp)
.Ltmp91:
	.loc	22 3745 59 is_stmt 1
	movq	%rcx, 64(%rsp)
	.loc	22 3745 66 is_stmt 0
	movb	63(%rsp), %al
	andb	$1, %al
	movb	%al, 79(%rsp)
.Ltmp92:
	.loc	17 85 20 is_stmt 1
	movq	%rcx, %rax
	shrq	%rax
	movabsq	$6148914691236517205, %rdx
	andq	%rdx, %rax
	subq	%rax, %rcx
	movabsq	$3689348814741910323, %rdx
	movq	%rcx, %rax
	andq	%rdx, %rax
	shrq	$2, %rcx
	andq	%rdx, %rcx
	addq	%rcx, %rax
	movq	%rax, %rcx
	shrq	$4, %rcx
	addq	%rcx, %rax
	movabsq	$1085102592571150095, %rcx
	andq	%rcx, %rax
	movabsq	$72340172838076673, %rcx
	imulq	%rcx, %rax
	shrq	$56, %rax
	movl	%eax, 156(%rsp)
.Ltmp93:
	.file	23 "/home/ordyboii/.rustup/toolchains/stable-x86_64-unknown-linux-gnu/lib/rustlib/src/rust/library/core/src/ptr" "const_ptr.rs"
	.loc	23 1475 13
	cmpl	$1, 156(%rsp)
	je	.LBB13_3
	jmp	.LBB13_4
.Ltmp94:
.LBB13_2:
	.loc	23 0 13 is_stmt 0
	movq	40(%rsp), %rcx
	movq	32(%rsp), %rax
	.loc	22 3744 43 is_stmt 1
	cmpq	$0, %rax
	sete	%al
	andb	$1, %al
	movb	%al, 63(%rsp)
.Ltmp95:
	.loc	22 3745 59
	movq	%rcx, 64(%rsp)
	.loc	22 3745 66 is_stmt 0
	movb	63(%rsp), %al
	andb	$1, %al
	movb	%al, 79(%rsp)
.Ltmp96:
	.loc	17 85 20 is_stmt 1
	movq	%rcx, %rax
	shrq	%rax
	movabsq	$6148914691236517205, %rdx
	andq	%rdx, %rax
	subq	%rax, %rcx
	movabsq	$3689348814741910323, %rdx
	movq	%rcx, %rax
	andq	%rdx, %rax
	shrq	$2, %rcx
	andq	%rdx, %rcx
	addq	%rcx, %rax
	movq	%rax, %rcx
	shrq	$4, %rcx
	addq	%rcx, %rax
	movabsq	$1085102592571150095, %rcx
	andq	%rcx, %rax
	movabsq	$72340172838076673, %rcx
	imulq	%rcx, %rax
	shrq	$56, %rax
	movl	%eax, 156(%rsp)
.Ltmp97:
	.loc	23 1475 13
	cmpl	$1, 156(%rsp)
	je	.LBB13_8
	jmp	.LBB13_4
.LBB13_3:
	.loc	23 0 13 is_stmt 0
	movq	40(%rsp), %rax
	movq	16(%rsp), %rcx
.Ltmp98:
	.loc	23 171 18 is_stmt 1
	movq	%rcx, 136(%rsp)
.Ltmp99:
	.loc	23 1479 23
	subq	$1, %rax
	movq	%rax, 144(%rsp)
	.loc	23 1479 9 is_stmt 0
	movq	136(%rsp), %rax
	andq	144(%rsp), %rax
	movq	%rax, 128(%rsp)
.Ltmp100:
	.loc	2 127 13 is_stmt 1
	cmpq	$0, 128(%rsp)
	je	.LBB13_5
	jmp	.LBB13_6
.LBB13_4:
.Ltmp101:
	.loc	5 236 9
	leaq	.Lanon.60f91fde1ce0e38296af11bc775d42ab.10(%rip), %rax
	movq	%rax, 80(%rsp)
	movq	$1, 88(%rsp)
	movq	.Lanon.60f91fde1ce0e38296af11bc775d42ab.3(%rip), %rcx
	movq	.Lanon.60f91fde1ce0e38296af11bc775d42ab.3+8(%rip), %rax
	movq	%rcx, 112(%rsp)
	movq	%rax, 120(%rsp)
	movq	$8, 96(%rsp)
	movq	$0, 104(%rsp)
.Ltmp102:
.Ltmp81:
	.loc	23 1476 13
	leaq	.Lanon.60f91fde1ce0e38296af11bc775d42ab.12(%rip), %rsi
	movq	_ZN4core9panicking9panic_fmt17hc8737e8cca20a7c8E@GOTPCREL(%rip), %rax
	leaq	80(%rsp), %rdi
	callq	*%rax
.Ltmp82:
	jmp	.LBB13_26
.Ltmp103:
.LBB13_5:
	.loc	2 127 42
	jmp	.LBB13_7
.Ltmp104:
.LBB13_6:
	.loc	22 3745 13
	jmp	.LBB13_11
.LBB13_7:
	.loc	22 3745 13
	jmp	.LBB13_12
.LBB13_8:
	.loc	22 0 13 is_stmt 0
	movq	40(%rsp), %rax
	movq	16(%rsp), %rcx
.Ltmp105:
	.loc	23 171 18 is_stmt 1
	movq	%rcx, 136(%rsp)
.Ltmp106:
	.loc	23 1479 23
	subq	$1, %rax
	movq	%rax, 144(%rsp)
	.loc	23 1479 9 is_stmt 0
	movq	136(%rsp), %rax
	andq	144(%rsp), %rax
	movq	%rax, 128(%rsp)
.Ltmp107:
	.loc	2 127 13 is_stmt 1
	cmpq	$0, 128(%rsp)
	jne	.LBB13_6
	.loc	2 127 42 is_stmt 0
	testb	$1, 79(%rsp)
	jne	.LBB13_7
.Ltmp108:
	.loc	23 55 17 is_stmt 1
	cmpq	$0, 136(%rsp)
	sete	%al
.Ltmp109:
	.loc	2 127 52
	xorb	$-1, %al
.Ltmp110:
	.loc	22 3745 13
	testb	$1, %al
	jne	.LBB13_12
.LBB13_11:
	.file	24 "/home/ordyboii/Public/rustbook/variables" "src/main.rs"
	.loc	24 0 0 is_stmt 0
	jmp	.LBB13_25
.LBB13_12:
	movq	40(%rsp), %rcx
	movq	24(%rsp), %rax
	.loc	22 3746 61 is_stmt 1
	movq	%rax, 264(%rsp)
	.loc	22 3746 73 is_stmt 0
	movb	63(%rsp), %al
	movb	%al, 15(%rsp)
	andb	$1, %al
	movb	%al, 275(%rsp)
.Ltmp111:
	.loc	17 85 20 is_stmt 1
	movq	%rcx, %rax
	shrq	%rax
	movabsq	$6148914691236517205, %rdx
	andq	%rdx, %rax
	subq	%rax, %rcx
	movabsq	$3689348814741910323, %rdx
	movq	%rcx, %rax
	andq	%rdx, %rax
	shrq	$2, %rcx
	andq	%rdx, %rcx
	addq	%rcx, %rax
	movq	%rax, %rcx
	shrq	$4, %rcx
	addq	%rcx, %rax
	movabsq	$1085102592571150095, %rcx
	andq	%rcx, %rax
	movabsq	$72340172838076673, %rcx
	imulq	%rcx, %rax
	shrq	$56, %rax
	movl	%eax, 276(%rsp)
.Ltmp112:
	.loc	23 1475 13
	cmpl	$1, 276(%rsp)
	jne	.LBB13_14
	.loc	23 0 13 is_stmt 0
	movq	24(%rsp), %rax
	.loc	23 1479 9 is_stmt 1
	andq	144(%rsp), %rax
.Ltmp113:
	.loc	2 127 13
	cmpq	$0, %rax
	je	.LBB13_15
	jmp	.LBB13_16
.LBB13_14:
.Ltmp114:
	.loc	5 236 9
	leaq	.Lanon.60f91fde1ce0e38296af11bc775d42ab.10(%rip), %rax
	movq	%rax, 160(%rsp)
	movq	$1, 168(%rsp)
	movq	.Lanon.60f91fde1ce0e38296af11bc775d42ab.3(%rip), %rcx
	movq	.Lanon.60f91fde1ce0e38296af11bc775d42ab.3+8(%rip), %rax
	movq	%rcx, 192(%rsp)
	movq	%rax, 200(%rsp)
	movq	$8, 176(%rsp)
	movq	$0, 184(%rsp)
.Ltmp115:
.Ltmp83:
	.loc	23 1476 13
	leaq	.Lanon.60f91fde1ce0e38296af11bc775d42ab.12(%rip), %rsi
	movq	_ZN4core9panicking9panic_fmt17hc8737e8cca20a7c8E@GOTPCREL(%rip), %rax
	leaq	160(%rsp), %rdi
	callq	*%rax
.Ltmp84:
	jmp	.LBB13_26
.Ltmp116:
.LBB13_15:
	.loc	23 0 13 is_stmt 0
	movb	15(%rsp), %al
	.loc	2 127 42 is_stmt 1
	testb	$1, %al
	jne	.LBB13_18
	jmp	.LBB13_17
.Ltmp117:
.LBB13_16:
	.loc	22 3746 20
	jmp	.LBB13_19
.LBB13_17:
	.loc	22 0 20 is_stmt 0
	movq	24(%rsp), %rax
.Ltmp118:
	.loc	23 55 17 is_stmt 1
	cmpq	$0, %rax
	sete	%al
.Ltmp119:
	.loc	2 127 52
	xorb	$-1, %al
.Ltmp120:
	.loc	22 3746 20
	testb	$1, %al
	jne	.LBB13_20
	jmp	.LBB13_19
.LBB13_18:
	.loc	22 3746 20
	jmp	.LBB13_20
.LBB13_19:
	.loc	24 0 0 is_stmt 0
	jmp	.LBB13_25
.LBB13_20:
.Ltmp85:
	movq	48(%rsp), %rcx
	movq	32(%rsp), %rdx
	movq	24(%rsp), %rsi
	movq	16(%rsp), %rdi
.Ltmp121:
	.loc	22 3196 9 is_stmt 1
	callq	_ZN4core9ub_checks23maybe_is_nonoverlapping7runtime17hebb4019edb443973E
.Ltmp86:
	movb	%al, 14(%rsp)
	jmp	.LBB13_22
.Ltmp122:
.LBB13_21:
.Ltmp87:
	.loc	2 66 13
	callq	*_ZN4core9panicking19panic_cannot_unwind17hb8732afd89555502E@GOTPCREL(%rip)
.LBB13_22:
	.loc	2 0 13 is_stmt 0
	movb	14(%rsp), %al
	.loc	22 3743 14 is_stmt 1
	testb	$1, %al
	jne	.LBB13_24
	jmp	.LBB13_23
.LBB13_23:
	.loc	2 68 21
	leaq	.Lanon.60f91fde1ce0e38296af11bc775d42ab.13(%rip), %rdi
	movl	$283, %esi
	callq	*_ZN4core9panicking14panic_nounwind17h0c59dc9f7f043eadE@GOTPCREL(%rip)
.LBB13_24:
	.loc	2 72 14 epilogue_begin
	addq	$280, %rsp
	.cfi_def_cfa_offset 8
	retq
.LBB13_25:
	.cfi_def_cfa_offset 288
	.loc	22 3743 14
	jmp	.LBB13_23
.Ltmp123:
.LBB13_26:
	.loc	22 0 14 is_stmt 0
	ud2
.Lfunc_end13:
	.size	_ZN4core10intrinsics19copy_nonoverlapping18precondition_check17hc81675b7eb28c56aE, .Lfunc_end13-_ZN4core10intrinsics19copy_nonoverlapping18precondition_check17hc81675b7eb28c56aE
	.cfi_endproc
	.section	.gcc_except_table._ZN4core10intrinsics19copy_nonoverlapping18precondition_check17hc81675b7eb28c56aE,"a",@progbits
	.p2align	2, 0x0
GCC_except_table13:
.Lexception2:
	.byte	255
	.byte	155
	.uleb128 .Lttbase2-.Lttbaseref2
.Lttbaseref2:
	.byte	1
	.uleb128 .Lcst_end2-.Lcst_begin2
.Lcst_begin2:
	.uleb128 .Ltmp81-.Lfunc_begin13
	.uleb128 .Ltmp86-.Ltmp81
	.uleb128 .Ltmp87-.Lfunc_begin13
	.byte	1
.Lcst_end2:
	.byte	127
	.byte	0
	.p2align	2, 0x0
.Lttbase2:
	.byte	0
	.p2align	2, 0x0

	.section	.text._ZN4core10intrinsics23is_val_statically_known17h88b8ff31f9676f6cE,"ax",@progbits
	.p2align	4
	.type	_ZN4core10intrinsics23is_val_statically_known17h88b8ff31f9676f6cE,@function
_ZN4core10intrinsics23is_val_statically_known17h88b8ff31f9676f6cE:
.Lfunc_begin14:
	.loc	22 3295 0 is_stmt 1
	.cfi_startproc
	movb	%dil, %al
	andb	$1, %al
	movb	%al, -1(%rsp)
.Ltmp124:
	.loc	22 3297 2 prologue_end
	xorl	%eax, %eax
	andb	$1, %al
	retq
.Ltmp125:
.Lfunc_end14:
	.size	_ZN4core10intrinsics23is_val_statically_known17h88b8ff31f9676f6cE, .Lfunc_end14-_ZN4core10intrinsics23is_val_statically_known17h88b8ff31f9676f6cE
	.cfi_endproc

	.section	.text._ZN4core10intrinsics9cold_path17h2bde8da288c2bb50E,"ax",@progbits
	.p2align	4
	.type	_ZN4core10intrinsics9cold_path17h2bde8da288c2bb50E,@function
_ZN4core10intrinsics9cold_path17h2bde8da288c2bb50E:
.Lfunc_begin15:
	.cfi_startproc
	.loc	22 1270 28 prologue_end
	retq
.Ltmp126:
.Lfunc_end15:
	.size	_ZN4core10intrinsics9cold_path17h2bde8da288c2bb50E, .Lfunc_end15-_ZN4core10intrinsics9cold_path17h2bde8da288c2bb50E
	.cfi_endproc

	.section	".text._ZN4core3fmt2rt38_$LT$impl$u20$core..fmt..Arguments$GT$16new_v1_formatted17h36120e5c518583c7E","ax",@progbits
	.p2align	4
	.type	_ZN4core3fmt2rt38_$LT$impl$u20$core..fmt..Arguments$GT$16new_v1_formatted17h36120e5c518583c7E,@function
_ZN4core3fmt2rt38_$LT$impl$u20$core..fmt..Arguments$GT$16new_v1_formatted17h36120e5c518583c7E:
.Lfunc_begin16:
	.loc	5 272 0
	.cfi_startproc
	movq	%r9, %r10
	movq	%rdi, %rax
	movq	8(%rsp), %r9
	movq	%rsi, -56(%rsp)
	movq	%rdx, -48(%rsp)
	movq	%rcx, -40(%rsp)
	movq	%r8, -32(%rsp)
	movq	%r10, -24(%rsp)
	movq	%r9, -16(%rsp)
.Ltmp127:
	.loc	5 278 34 prologue_end
	movq	%r10, -72(%rsp)
	movq	%r9, -64(%rsp)
	.loc	5 278 9 is_stmt 0
	movq	%rsi, (%rdi)
	movq	%rdx, 8(%rdi)
	movq	-72(%rsp), %rsi
	movq	-64(%rsp), %rdx
	movq	%rsi, 32(%rdi)
	movq	%rdx, 40(%rdi)
	movq	%rcx, 16(%rdi)
	movq	%r8, 24(%rdi)
	.loc	5 279 6 is_stmt 1
	retq
.Ltmp128:
.Lfunc_end16:
	.size	_ZN4core3fmt2rt38_$LT$impl$u20$core..fmt..Arguments$GT$16new_v1_formatted17h36120e5c518583c7E, .Lfunc_end16-_ZN4core3fmt2rt38_$LT$impl$u20$core..fmt..Arguments$GT$16new_v1_formatted17h36120e5c518583c7E
	.cfi_endproc

	.section	".text._ZN4core3fmt2rt38_$LT$impl$u20$core..fmt..Arguments$GT$6new_v117h3310bc1763e8292bE","ax",@progbits
	.p2align	4
	.type	_ZN4core3fmt2rt38_$LT$impl$u20$core..fmt..Arguments$GT$6new_v117h3310bc1763e8292bE,@function
_ZN4core3fmt2rt38_$LT$impl$u20$core..fmt..Arguments$GT$6new_v117h3310bc1763e8292bE:
.Lfunc_begin17:
	.loc	5 249 0
	.cfi_startproc
	movq	%rdi, %rax
	movq	%rsi, -16(%rsp)
	movq	%rdx, -8(%rsp)
.Ltmp129:
	.loc	5 254 9 prologue_end
	movq	%rsi, (%rdi)
	movq	$2, 8(%rdi)
	movq	.Lanon.60f91fde1ce0e38296af11bc775d42ab.3(%rip), %rsi
	movq	.Lanon.60f91fde1ce0e38296af11bc775d42ab.3+8(%rip), %rcx
	movq	%rsi, 32(%rdi)
	movq	%rcx, 40(%rdi)
	movq	%rdx, 16(%rdi)
	movq	$1, 24(%rdi)
	.loc	5 255 6
	retq
.Ltmp130:
.Lfunc_end17:
	.size	_ZN4core3fmt2rt38_$LT$impl$u20$core..fmt..Arguments$GT$6new_v117h3310bc1763e8292bE, .Lfunc_end17-_ZN4core3fmt2rt38_$LT$impl$u20$core..fmt..Arguments$GT$6new_v117h3310bc1763e8292bE
	.cfi_endproc

	.section	".text._ZN4core3fmt2rt38_$LT$impl$u20$core..fmt..Arguments$GT$9new_const17hc573b28f3f795a88E","ax",@progbits
	.p2align	4
	.type	_ZN4core3fmt2rt38_$LT$impl$u20$core..fmt..Arguments$GT$9new_const17hc573b28f3f795a88E,@function
_ZN4core3fmt2rt38_$LT$impl$u20$core..fmt..Arguments$GT$9new_const17hc573b28f3f795a88E:
.Lfunc_begin18:
	.loc	5 234 0
	.cfi_startproc
	movq	%rdi, %rax
	movq	%rsi, -8(%rsp)
.Ltmp131:
	.loc	5 236 9 prologue_end
	movq	%rsi, (%rdi)
	movq	$1, 8(%rdi)
	movq	.Lanon.60f91fde1ce0e38296af11bc775d42ab.3(%rip), %rdx
	movq	.Lanon.60f91fde1ce0e38296af11bc775d42ab.3+8(%rip), %rcx
	movq	%rdx, 32(%rdi)
	movq	%rcx, 40(%rdi)
	movl	$8, %ecx
	movq	%rcx, 16(%rdi)
	movq	$0, 24(%rdi)
	.loc	5 237 6
	retq
.Ltmp132:
.Lfunc_end18:
	.size	_ZN4core3fmt2rt38_$LT$impl$u20$core..fmt..Arguments$GT$9new_const17hc573b28f3f795a88E, .Lfunc_end18-_ZN4core3fmt2rt38_$LT$impl$u20$core..fmt..Arguments$GT$9new_const17hc573b28f3f795a88E
	.cfi_endproc

	.section	.text._ZN4core3fmt2rt8Argument11new_display17h0b20c07f85fd69e9E,"ax",@progbits
	.p2align	4
	.type	_ZN4core3fmt2rt8Argument11new_display17h0b20c07f85fd69e9E,@function
_ZN4core3fmt2rt8Argument11new_display17h0b20c07f85fd69e9E:
.Lfunc_begin19:
	.loc	5 118 0
	.cfi_startproc
	movq	%rdi, %rax
	movq	%rsi, -8(%rsp)
.Ltmp133:
	.loc	5 76 17 prologue_end
	movq	%rsi, -24(%rsp)
	leaq	_ZN60_$LT$alloc..string..String$u20$as$u20$core..fmt..Display$GT$3fmt17h7376670bf6bc4028E(%rip), %rcx
	movq	%rcx, -16(%rsp)
	.loc	5 73 9
	movq	-24(%rsp), %rcx
	movq	%rcx, (%rdi)
	movq	-16(%rsp), %rcx
	movq	%rcx, 8(%rdi)
	.loc	5 120 6
	retq
.Ltmp134:
.Lfunc_end19:
	.size	_ZN4core3fmt2rt8Argument11new_display17h0b20c07f85fd69e9E, .Lfunc_end19-_ZN4core3fmt2rt8Argument11new_display17h0b20c07f85fd69e9E
	.cfi_endproc

	.section	.text._ZN4core3fmt2rt8Argument11new_display17ha0da6a3b3933be70E,"ax",@progbits
	.p2align	4
	.type	_ZN4core3fmt2rt8Argument11new_display17ha0da6a3b3933be70E,@function
_ZN4core3fmt2rt8Argument11new_display17ha0da6a3b3933be70E:
.Lfunc_begin20:
	.loc	5 118 0
	.cfi_startproc
	movq	%rdi, %rax
	movq	%rsi, -8(%rsp)
.Ltmp135:
	.loc	5 76 17 prologue_end
	movq	%rsi, -24(%rsp)
	movq	_ZN4core3fmt5float52_$LT$impl$u20$core..fmt..Display$u20$for$u20$f32$GT$3fmt17h689a0ad65fc37b66E@GOTPCREL(%rip), %rcx
	movq	%rcx, -16(%rsp)
	.loc	5 73 9
	movq	-24(%rsp), %rcx
	movq	%rcx, (%rdi)
	movq	-16(%rsp), %rcx
	movq	%rcx, 8(%rdi)
	.loc	5 120 6
	retq
.Ltmp136:
.Lfunc_end20:
	.size	_ZN4core3fmt2rt8Argument11new_display17ha0da6a3b3933be70E, .Lfunc_end20-_ZN4core3fmt2rt8Argument11new_display17ha0da6a3b3933be70E
	.cfi_endproc

	.section	.text._ZN4core3fmt2rt8Argument9new_debug17h8fe35030c9cd4ffeE,"ax",@progbits
	.p2align	4
	.type	_ZN4core3fmt2rt8Argument9new_debug17h8fe35030c9cd4ffeE,@function
_ZN4core3fmt2rt8Argument9new_debug17h8fe35030c9cd4ffeE:
.Lfunc_begin21:
	.loc	5 122 0
	.cfi_startproc
	movq	%rdi, %rax
	movq	%rsi, -8(%rsp)
.Ltmp137:
	.loc	5 76 17 prologue_end
	movq	%rsi, -24(%rsp)
	leaq	_ZN65_$LT$alloc..vec..Vec$LT$T$C$A$GT$$u20$as$u20$core..fmt..Debug$GT$3fmt17h068488af790689e2E(%rip), %rcx
	movq	%rcx, -16(%rsp)
	.loc	5 73 9
	movq	-24(%rsp), %rcx
	movq	%rcx, (%rdi)
	movq	-16(%rsp), %rcx
	movq	%rcx, 8(%rdi)
	.loc	5 124 6
	retq
.Ltmp138:
.Lfunc_end21:
	.size	_ZN4core3fmt2rt8Argument9new_debug17h8fe35030c9cd4ffeE, .Lfunc_end21-_ZN4core3fmt2rt8Argument9new_debug17h8fe35030c9cd4ffeE
	.cfi_endproc

	.section	.text._ZN4core3fmt2rt9UnsafeArg3new17hbd5e73f092995f77E,"ax",@progbits
	.p2align	4
	.type	_ZN4core3fmt2rt9UnsafeArg3new17hbd5e73f092995f77E,@function
_ZN4core3fmt2rt9UnsafeArg3new17hbd5e73f092995f77E:
.Lfunc_begin22:
	.cfi_startproc
	.loc	5 225 6 prologue_end
	retq
.Ltmp139:
.Lfunc_end22:
	.size	_ZN4core3fmt2rt9UnsafeArg3new17hbd5e73f092995f77E, .Lfunc_end22-_ZN4core3fmt2rt9UnsafeArg3new17hbd5e73f092995f77E
	.cfi_endproc

	.section	".text._ZN4core3fmt3num50_$LT$impl$u20$core..fmt..Debug$u20$for$u20$u32$GT$3fmt17h9a8837f6fe138309E","ax",@progbits
	.p2align	4
	.type	_ZN4core3fmt3num50_$LT$impl$u20$core..fmt..Debug$u20$for$u20$u32$GT$3fmt17h9a8837f6fe138309E,@function
_ZN4core3fmt3num50_$LT$impl$u20$core..fmt..Debug$u20$for$u20$u32$GT$3fmt17h9a8837f6fe138309E:
.Lfunc_begin23:
	.file	25 "/home/ordyboii/.rustup/toolchains/stable-x86_64-unknown-linux-gnu/lib/rustlib/src/rust/library/core/src/fmt" "num.rs"
	.loc	25 180 0
	.cfi_startproc
	subq	$40, %rsp
	.cfi_def_cfa_offset 48
	movq	%rdi, (%rsp)
	movq	%rsi, 8(%rsp)
	movq	%rdi, 24(%rsp)
	movq	%rsi, 32(%rsp)
.Ltmp140:
	.loc	14 2169 9 prologue_end
	movl	16(%rsi), %eax
	andl	$33554432, %eax
.Ltmp141:
	.loc	25 181 24
	cmpl	$0, %eax
	jne	.LBB23_2
	.loc	25 0 24 is_stmt 0
	movq	8(%rsp), %rax
.Ltmp142:
	.loc	14 2172 9 is_stmt 1
	movl	16(%rax), %eax
	andl	$67108864, %eax
.Ltmp143:
	.loc	25 183 31
	cmpl	$0, %eax
	je	.LBB23_3
	jmp	.LBB23_4
.LBB23_2:
	.loc	25 0 31 is_stmt 0
	movq	8(%rsp), %rsi
	movq	(%rsp), %rdi
	.loc	25 182 25 is_stmt 1
	callq	*_ZN4core3fmt3num53_$LT$impl$u20$core..fmt..LowerHex$u20$for$u20$u32$GT$3fmt17haf9a59fdde49fc3aE@GOTPCREL(%rip)
	andb	$1, %al
	movb	%al, 23(%rsp)
	jmp	.LBB23_6
.LBB23_3:
	.loc	25 0 25 is_stmt 0
	movq	8(%rsp), %rsi
	movq	(%rsp), %rdi
	.loc	25 186 25 is_stmt 1
	callq	*_ZN4core3fmt3num3imp52_$LT$impl$u20$core..fmt..Display$u20$for$u20$u32$GT$3fmt17heae17e31cadbc382E@GOTPCREL(%rip)
	andb	$1, %al
	movb	%al, 23(%rsp)
	jmp	.LBB23_5
.LBB23_4:
	.loc	25 0 25 is_stmt 0
	movq	8(%rsp), %rsi
	movq	(%rsp), %rdi
	.loc	25 184 25 is_stmt 1
	callq	*_ZN4core3fmt3num53_$LT$impl$u20$core..fmt..UpperHex$u20$for$u20$u32$GT$3fmt17hfdb3aac080b97f7cE@GOTPCREL(%rip)
	andb	$1, %al
	movb	%al, 23(%rsp)
.LBB23_5:
	.loc	25 181 21
	jmp	.LBB23_6
.LBB23_6:
	.loc	25 188 18
	movb	23(%rsp), %al
	andb	$1, %al
	.loc	25 188 18 epilogue_begin is_stmt 0
	addq	$40, %rsp
	.cfi_def_cfa_offset 8
	retq
.Ltmp144:
.Lfunc_end23:
	.size	_ZN4core3fmt3num50_$LT$impl$u20$core..fmt..Debug$u20$for$u20$u32$GT$3fmt17h9a8837f6fe138309E, .Lfunc_end23-_ZN4core3fmt3num50_$LT$impl$u20$core..fmt..Debug$u20$for$u20$u32$GT$3fmt17h9a8837f6fe138309E
	.cfi_endproc

	.section	.text._ZN4core3fmt5Write9write_fmt17h4aaf63cab02d5a3dE,"ax",@progbits
	.p2align	4
	.type	_ZN4core3fmt5Write9write_fmt17h4aaf63cab02d5a3dE,@function
_ZN4core3fmt5Write9write_fmt17h4aaf63cab02d5a3dE:
.Lfunc_begin24:
	.loc	14 205 0 is_stmt 1
	.cfi_startproc
	pushq	%rax
	.cfi_def_cfa_offset 16
	movq	%rdi, (%rsp)
.Ltmp145:
	.loc	14 234 9 prologue_end
	callq	_ZN75_$LT$$RF$mut$u20$W$u20$as$u20$core..fmt..Write..write_fmt..SpecWriteFmt$GT$14spec_write_fmt17h2aacf4e8b8fddd94E
.Ltmp146:
	.loc	14 235 6
	andb	$1, %al
	.loc	14 235 6 epilogue_begin is_stmt 0
	popq	%rcx
	.cfi_def_cfa_offset 8
	retq
.Ltmp147:
.Lfunc_end24:
	.size	_ZN4core3fmt5Write9write_fmt17h4aaf63cab02d5a3dE, .Lfunc_end24-_ZN4core3fmt5Write9write_fmt17h4aaf63cab02d5a3dE
	.cfi_endproc

	.section	.text._ZN4core3fmt8builders9DebugList7entries17hdaa253f17173d77aE,"ax",@progbits
	.p2align	4
	.type	_ZN4core3fmt8builders9DebugList7entries17hdaa253f17173d77aE,@function
_ZN4core3fmt8builders9DebugList7entries17hdaa253f17173d77aE:
.Lfunc_begin25:
	.file	26 "/home/ordyboii/.rustup/toolchains/stable-x86_64-unknown-linux-gnu/lib/rustlib/src/rust/library/core/src/fmt" "builders.rs"
	.loc	26 782 0 is_stmt 1
	.cfi_startproc
	.cfi_personality 155, DW.ref.rust_eh_personality
	.cfi_lsda 27, .Lexception3
	subq	$104, %rsp
	.cfi_def_cfa_offset 112
	movq	%rdx, 8(%rsp)
	movq	%rsi, %rax
	movq	8(%rsp), %rsi
	movq	%rax, 16(%rsp)
	movq	%rdi, %rax
	movq	16(%rsp), %rdi
	movq	%rax, 24(%rsp)
	movq	%rax, 64(%rsp)
	movq	%rdi, 72(%rsp)
	movq	%rsi, 80(%rsp)
.Ltmp154:
	.loc	26 787 22 prologue_end
	callq	_ZN63_$LT$I$u20$as$u20$core..iter..traits..collect..IntoIterator$GT$9into_iter17h7369eaf5fd316751E
	movq	%rax, 32(%rsp)
	movq	%rdx, 40(%rsp)
.LBB25_1:
.Ltmp148:
	.loc	26 0 22 is_stmt 0
	leaq	32(%rsp), %rdi
.Ltmp155:
	.loc	26 787 22
	callq	_ZN91_$LT$core..slice..iter..Iter$LT$T$GT$$u20$as$u20$core..iter..traits..iterator..Iterator$GT$4next17he4a239501b01a516E
.Ltmp149:
	movq	%rax, (%rsp)
	jmp	.LBB25_4
.Ltmp156:
.LBB25_2:
	.loc	26 782 5 is_stmt 1
	movq	88(%rsp), %rdi
	callq	_Unwind_Resume@PLT
.LBB25_3:
.Ltmp150:
	.loc	26 0 5 is_stmt 0
	movq	%rax, %rcx
	movl	%edx, %eax
	movq	%rcx, 88(%rsp)
	movl	%eax, 96(%rsp)
	jmp	.LBB25_2
.LBB25_4:
	movq	(%rsp), %rax
.Ltmp157:
	.loc	26 787 22 is_stmt 1
	movq	%rax, 48(%rsp)
	movq	48(%rsp), %rdx
	movl	$1, %eax
	xorl	%ecx, %ecx
	cmpq	$0, %rdx
	cmoveq	%rcx, %rax
	testq	$1, %rax
	je	.LBB25_6
	.loc	26 0 22 is_stmt 0
	movq	24(%rsp), %rdi
	.loc	26 787 13
	movq	48(%rsp), %rax
	movq	%rax, 56(%rsp)
.Ltmp151:
.Ltmp158:
	.loc	26 788 13 is_stmt 1
	leaq	.Lanon.60f91fde1ce0e38296af11bc775d42ab.14(%rip), %rdx
	movq	_ZN4core3fmt8builders9DebugList5entry17h0d06b4ba5482333fE@GOTPCREL(%rip), %rax
	leaq	56(%rsp), %rsi
	callq	*%rax
.Ltmp152:
	jmp	.LBB25_9
.Ltmp159:
.LBB25_6:
	.loc	26 0 13 is_stmt 0
	movq	24(%rsp), %rax
	.loc	26 791 6 epilogue_begin is_stmt 1
	addq	$104, %rsp
	.cfi_def_cfa_offset 8
	retq
.LBB25_7:
	.cfi_def_cfa_offset 112
.Ltmp160:
	.loc	26 789 9
	jmp	.LBB25_2
.LBB25_8:
.Ltmp153:
	.loc	26 0 9 is_stmt 0
	movq	%rax, %rcx
	movl	%edx, %eax
	movq	%rcx, 88(%rsp)
	movl	%eax, 96(%rsp)
	jmp	.LBB25_7
.LBB25_9:
	.loc	26 789 9 is_stmt 1
	jmp	.LBB25_10
.LBB25_10:
	.loc	26 787 9
	jmp	.LBB25_1
.Ltmp161:
.Lfunc_end25:
	.size	_ZN4core3fmt8builders9DebugList7entries17hdaa253f17173d77aE, .Lfunc_end25-_ZN4core3fmt8builders9DebugList7entries17hdaa253f17173d77aE
	.cfi_endproc
	.section	.gcc_except_table._ZN4core3fmt8builders9DebugList7entries17hdaa253f17173d77aE,"a",@progbits
	.p2align	2, 0x0
GCC_except_table25:
.Lexception3:
	.byte	255
	.byte	255
	.byte	1
	.uleb128 .Lcst_end3-.Lcst_begin3
.Lcst_begin3:
	.uleb128 .Lfunc_begin25-.Lfunc_begin25
	.uleb128 .Ltmp148-.Lfunc_begin25
	.byte	0
	.byte	0
	.uleb128 .Ltmp148-.Lfunc_begin25
	.uleb128 .Ltmp149-.Ltmp148
	.uleb128 .Ltmp150-.Lfunc_begin25
	.byte	0
	.uleb128 .Ltmp149-.Lfunc_begin25
	.uleb128 .Ltmp151-.Ltmp149
	.byte	0
	.byte	0
	.uleb128 .Ltmp151-.Lfunc_begin25
	.uleb128 .Ltmp152-.Ltmp151
	.uleb128 .Ltmp153-.Lfunc_begin25
	.byte	0
.Lcst_end3:
	.p2align	2, 0x0

	.section	".text._ZN4core3num21_$LT$impl$u20$u32$GT$13unchecked_add18precondition_check17h258d4fee987fb047E","ax",@progbits
	.p2align	4
	.type	_ZN4core3num21_$LT$impl$u20$u32$GT$13unchecked_add18precondition_check17h258d4fee987fb047E,@function
_ZN4core3num21_$LT$impl$u20$u32$GT$13unchecked_add18precondition_check17h258d4fee987fb047E:
.Lfunc_begin26:
	.loc	2 66 0
	.cfi_startproc
	pushq	%rax
	.cfi_def_cfa_offset 16
	movl	%edi, (%rsp)
	movl	%esi, 4(%rsp)
.Ltmp162:
	.loc	17 2396 26 prologue_end
	addl	%esi, %edi
	setb	%al
.Ltmp163:
	.loc	17 612 23
	jb	.LBB26_2
	.loc	2 72 14 epilogue_begin
	popq	%rax
	.cfi_def_cfa_offset 8
	retq
.LBB26_2:
	.cfi_def_cfa_offset 16
	.loc	2 68 21
	leaq	.Lanon.60f91fde1ce0e38296af11bc775d42ab.15(%rip), %rdi
	movl	$184, %esi
	callq	*_ZN4core9panicking14panic_nounwind17h0c59dc9f7f043eadE@GOTPCREL(%rip)
.Ltmp164:
.Lfunc_end26:
	.size	_ZN4core3num21_$LT$impl$u20$u32$GT$13unchecked_add18precondition_check17h258d4fee987fb047E, .Lfunc_end26-_ZN4core3num21_$LT$impl$u20$u32$GT$13unchecked_add18precondition_check17h258d4fee987fb047E
	.cfi_endproc

	.section	".text._ZN4core3num23_$LT$impl$u20$usize$GT$11checked_add17h27745c6a219cd020E","ax",@progbits
	.p2align	4
	.type	_ZN4core3num23_$LT$impl$u20$usize$GT$11checked_add17h27745c6a219cd020E,@function
_ZN4core3num23_$LT$impl$u20$usize$GT$11checked_add17h27745c6a219cd020E:
.Lfunc_begin27:
	.loc	17 531 0
	.cfi_startproc
	movq	%rdi, -56(%rsp)
	movq	%rsi, -48(%rsp)
	movq	%rdi, -24(%rsp)
	movq	%rsi, -16(%rsp)
.Ltmp165:
	.loc	17 539 37 prologue_end
	addq	%rsi, %rdi
	setb	%al
	movb	%al, %cl
	andb	$1, %cl
	movb	%cl, -1(%rsp)
.Ltmp166:
	.loc	22 1310 8
	testb	$1, %al
	jne	.LBB27_2
.Ltmp167:
	.loc	22 0 8 is_stmt 0
	movq	-48(%rsp), %rcx
	movq	-56(%rsp), %rax
	.loc	17 543 31 is_stmt 1
	addq	%rcx, %rax
	.loc	17 543 17 is_stmt 0
	movq	%rax, -32(%rsp)
	movq	$1, -40(%rsp)
	.loc	17 539 13 is_stmt 1
	jmp	.LBB27_3
.LBB27_2:
	.loc	17 540 17
	movq	.Lanon.60f91fde1ce0e38296af11bc775d42ab.3(%rip), %rcx
	movq	.Lanon.60f91fde1ce0e38296af11bc775d42ab.3+8(%rip), %rax
	movq	%rcx, -40(%rsp)
	movq	%rax, -32(%rsp)
.LBB27_3:
	.loc	17 545 10
	movq	-40(%rsp), %rax
	movq	-32(%rsp), %rdx
	retq
.Ltmp168:
.Lfunc_end27:
	.size	_ZN4core3num23_$LT$impl$u20$usize$GT$11checked_add17h27745c6a219cd020E, .Lfunc_end27-_ZN4core3num23_$LT$impl$u20$usize$GT$11checked_add17h27745c6a219cd020E
	.cfi_endproc

	.section	".text._ZN4core3num23_$LT$impl$u20$usize$GT$13unchecked_add18precondition_check17hbfde80d01f628a5bE","ax",@progbits
	.p2align	4
	.type	_ZN4core3num23_$LT$impl$u20$usize$GT$13unchecked_add18precondition_check17hbfde80d01f628a5bE,@function
_ZN4core3num23_$LT$impl$u20$usize$GT$13unchecked_add18precondition_check17hbfde80d01f628a5bE:
.Lfunc_begin28:
	.loc	2 66 0
	.cfi_startproc
	subq	$24, %rsp
	.cfi_def_cfa_offset 32
	movq	%rdi, 8(%rsp)
	movq	%rsi, 16(%rsp)
.Ltmp169:
	.loc	17 2396 26 prologue_end
	addq	%rsi, %rdi
	setb	%al
.Ltmp170:
	.loc	17 612 23
	jb	.LBB28_2
	.loc	2 72 14 epilogue_begin
	addq	$24, %rsp
	.cfi_def_cfa_offset 8
	retq
.LBB28_2:
	.cfi_def_cfa_offset 32
	.loc	2 68 21
	leaq	.Lanon.60f91fde1ce0e38296af11bc775d42ab.16(%rip), %rdi
	movl	$186, %esi
	callq	*_ZN4core9panicking14panic_nounwind17h0c59dc9f7f043eadE@GOTPCREL(%rip)
.Ltmp171:
.Lfunc_end28:
	.size	_ZN4core3num23_$LT$impl$u20$usize$GT$13unchecked_add18precondition_check17hbfde80d01f628a5bE, .Lfunc_end28-_ZN4core3num23_$LT$impl$u20$usize$GT$13unchecked_add18precondition_check17hbfde80d01f628a5bE
	.cfi_endproc

	.section	.text._ZN4core3ops8function5FnMut8call_mut17h65bb3e4f9c8cdaefE,"ax",@progbits
	.p2align	4
	.type	_ZN4core3ops8function5FnMut8call_mut17h65bb3e4f9c8cdaefE,@function
_ZN4core3ops8function5FnMut8call_mut17h65bb3e4f9c8cdaefE:
.Lfunc_begin29:
	.file	27 "/home/ordyboii/.rustup/toolchains/stable-x86_64-unknown-linux-gnu/lib/rustlib/src/rust/library/core/src/ops" "function.rs"
	.loc	27 166 0
	.cfi_startproc
	subq	$24, %rsp
	.cfi_def_cfa_offset 32
	movq	%rsi, (%rsp)
	movq	%rdx, 8(%rsp)
	movq	%rdi, 16(%rsp)
.Ltmp172:
	.loc	27 166 5 prologue_end
	movq	(%rsp), %rdi
	movq	8(%rsp), %rsi
	callq	_ZN4core3num23_$LT$impl$u20$usize$GT$11checked_add17h27745c6a219cd020E
	.loc	27 166 5 epilogue_begin is_stmt 0
	addq	$24, %rsp
	.cfi_def_cfa_offset 8
	retq
.Ltmp173:
.Lfunc_end29:
	.size	_ZN4core3ops8function5FnMut8call_mut17h65bb3e4f9c8cdaefE, .Lfunc_end29-_ZN4core3ops8function5FnMut8call_mut17h65bb3e4f9c8cdaefE
	.cfi_endproc

	.section	".text._ZN4core3ops8function6FnOnce40call_once$u7b$$u7b$vtable.shim$u7d$$u7d$17h2c4b924c667f85d6E","ax",@progbits
	.p2align	4
	.type	_ZN4core3ops8function6FnOnce40call_once$u7b$$u7b$vtable.shim$u7d$$u7d$17h2c4b924c667f85d6E,@function
_ZN4core3ops8function6FnOnce40call_once$u7b$$u7b$vtable.shim$u7d$$u7d$17h2c4b924c667f85d6E:
.Lfunc_begin30:
	.loc	27 250 0 is_stmt 1
	.cfi_startproc
	subq	$24, %rsp
	.cfi_def_cfa_offset 32
	movq	%rdi, 16(%rsp)
.Ltmp174:
	.loc	27 250 5 prologue_end
	movq	(%rdi), %rdi
	callq	_ZN4core3ops8function6FnOnce9call_once17h88734129ad614a8eE
	.loc	27 250 5 epilogue_begin is_stmt 0
	addq	$24, %rsp
	.cfi_def_cfa_offset 8
	retq
.Ltmp175:
.Lfunc_end30:
	.size	_ZN4core3ops8function6FnOnce40call_once$u7b$$u7b$vtable.shim$u7d$$u7d$17h2c4b924c667f85d6E, .Lfunc_end30-_ZN4core3ops8function6FnOnce40call_once$u7b$$u7b$vtable.shim$u7d$$u7d$17h2c4b924c667f85d6E
	.cfi_endproc

	.section	.text._ZN4core3ops8function6FnOnce9call_once17h44661120698f704fE,"ax",@progbits
	.p2align	4
	.type	_ZN4core3ops8function6FnOnce9call_once17h44661120698f704fE,@function
_ZN4core3ops8function6FnOnce9call_once17h44661120698f704fE:
.Lfunc_begin31:
	.loc	27 250 0 is_stmt 1
	.cfi_startproc
	subq	$24, %rsp
	.cfi_def_cfa_offset 32
	movq	%rdi, 16(%rsp)
.Ltmp176:
	.loc	27 250 5 prologue_end
	callq	*%rdi
	.loc	27 250 5 epilogue_begin is_stmt 0
	addq	$24, %rsp
	.cfi_def_cfa_offset 8
	retq
.Ltmp177:
.Lfunc_end31:
	.size	_ZN4core3ops8function6FnOnce9call_once17h44661120698f704fE, .Lfunc_end31-_ZN4core3ops8function6FnOnce9call_once17h44661120698f704fE
	.cfi_endproc

	.section	.text._ZN4core3ops8function6FnOnce9call_once17h88734129ad614a8eE,"ax",@progbits
	.p2align	4
	.type	_ZN4core3ops8function6FnOnce9call_once17h88734129ad614a8eE,@function
_ZN4core3ops8function6FnOnce9call_once17h88734129ad614a8eE:
.Lfunc_begin32:
	.loc	27 250 0 is_stmt 1
	.cfi_startproc
	.cfi_personality 155, DW.ref.rust_eh_personality
	.cfi_lsda 27, .Lexception4
	subq	$40, %rsp
	.cfi_def_cfa_offset 48
	movq	%rdi, 8(%rsp)
.Ltmp178:
	leaq	8(%rsp), %rdi
.Ltmp181:
	.loc	27 250 5 prologue_end
	callq	_ZN3std2rt10lang_start28_$u7b$$u7b$closure$u7d$$u7d$17h7bca82e2071632c2E
.Ltmp179:
	movl	%eax, 4(%rsp)
	jmp	.LBB32_3
.LBB32_1:
	.loc	27 250 5
	movq	24(%rsp), %rdi
	callq	_Unwind_Resume@PLT
.LBB32_2:
.Ltmp180:
	.loc	27 0 5 is_stmt 0
	movq	%rax, %rcx
	movl	%edx, %eax
	movq	%rcx, 24(%rsp)
	movl	%eax, 32(%rsp)
	jmp	.LBB32_1
.LBB32_3:
	movl	4(%rsp), %eax
	.loc	27 250 5 epilogue_begin
	addq	$40, %rsp
	.cfi_def_cfa_offset 8
	retq
.Ltmp182:
.Lfunc_end32:
	.size	_ZN4core3ops8function6FnOnce9call_once17h88734129ad614a8eE, .Lfunc_end32-_ZN4core3ops8function6FnOnce9call_once17h88734129ad614a8eE
	.cfi_endproc
	.section	.gcc_except_table._ZN4core3ops8function6FnOnce9call_once17h88734129ad614a8eE,"a",@progbits
	.p2align	2, 0x0
GCC_except_table32:
.Lexception4:
	.byte	255
	.byte	255
	.byte	1
	.uleb128 .Lcst_end4-.Lcst_begin4
.Lcst_begin4:
	.uleb128 .Ltmp178-.Lfunc_begin32
	.uleb128 .Ltmp179-.Ltmp178
	.uleb128 .Ltmp180-.Lfunc_begin32
	.byte	0
	.uleb128 .Ltmp179-.Lfunc_begin32
	.uleb128 .Lfunc_end32-.Ltmp179
	.byte	0
	.byte	0
.Lcst_end4:
	.p2align	2, 0x0

	.section	.text._ZN4core3ptr13read_volatile18precondition_check17h041f35cab5155cfaE,"ax",@progbits
	.p2align	4
	.type	_ZN4core3ptr13read_volatile18precondition_check17h041f35cab5155cfaE,@function
_ZN4core3ptr13read_volatile18precondition_check17h041f35cab5155cfaE:
.Lfunc_begin33:
	.loc	2 66 0 is_stmt 1
	.cfi_startproc
	.cfi_personality 155, DW.ref.rust_eh_personality
	.cfi_lsda 27, .Lexception5
	subq	$120, %rsp
	.cfi_def_cfa_offset 128
	movq	%rsi, %rcx
	movq	%rcx, 8(%rsp)
	movq	%rdi, 16(%rsp)
	movb	%dl, %al
	movb	%al, 31(%rsp)
	movq	%rdi, 80(%rsp)
	movq	%rcx, 88(%rsp)
	andb	$1, %al
	movb	%al, 103(%rsp)
.Ltmp186:
	.loc	5 234 44 prologue_end
	leaq	.Lanon.60f91fde1ce0e38296af11bc775d42ab.10(%rip), %rax
	movq	%rax, 104(%rsp)
.Ltmp187:
	.loc	17 85 20
	movq	%rcx, %rax
	shrq	%rax
	movabsq	$6148914691236517205, %rdx
	andq	%rdx, %rax
	subq	%rax, %rcx
	movabsq	$3689348814741910323, %rdx
	movq	%rcx, %rax
	andq	%rdx, %rax
	shrq	$2, %rcx
	andq	%rdx, %rcx
	addq	%rcx, %rax
	movq	%rax, %rcx
	shrq	$4, %rcx
	addq	%rcx, %rax
	movabsq	$1085102592571150095, %rcx
	andq	%rcx, %rax
	movabsq	$72340172838076673, %rcx
	imulq	%rcx, %rax
	shrq	$56, %rax
	movl	%eax, 116(%rsp)
.Ltmp188:
	.loc	23 1475 13
	cmpl	$1, 116(%rsp)
	jne	.LBB33_2
	.loc	23 0 13 is_stmt 0
	movq	16(%rsp), %rax
	movq	8(%rsp), %rcx
	.loc	23 1479 23 is_stmt 1
	subq	$1, %rcx
	.loc	23 1479 9 is_stmt 0
	andq	%rcx, %rax
.Ltmp189:
	.loc	2 127 13 is_stmt 1
	cmpq	$0, %rax
	je	.LBB33_3
	jmp	.LBB33_4
.LBB33_2:
.Ltmp190:
	.loc	5 236 9
	leaq	.Lanon.60f91fde1ce0e38296af11bc775d42ab.10(%rip), %rax
	movq	%rax, 32(%rsp)
	movq	$1, 40(%rsp)
	movq	.Lanon.60f91fde1ce0e38296af11bc775d42ab.3(%rip), %rcx
	movq	.Lanon.60f91fde1ce0e38296af11bc775d42ab.3+8(%rip), %rax
	movq	%rcx, 64(%rsp)
	movq	%rax, 72(%rsp)
	movq	$8, 48(%rsp)
	movq	$0, 56(%rsp)
.Ltmp191:
.Ltmp183:
	.loc	23 1476 13
	leaq	.Lanon.60f91fde1ce0e38296af11bc775d42ab.12(%rip), %rsi
	movq	_ZN4core9panicking9panic_fmt17hc8737e8cca20a7c8E@GOTPCREL(%rip), %rax
	leaq	32(%rsp), %rdi
	callq	*%rax
.Ltmp184:
	jmp	.LBB33_10
.Ltmp192:
.LBB33_3:
	.loc	23 0 13 is_stmt 0
	movb	31(%rsp), %al
	.loc	2 127 42 is_stmt 1
	testb	$1, %al
	jne	.LBB33_6
	jmp	.LBB33_5
.Ltmp193:
.LBB33_4:
	.file	28 "/home/ordyboii/.rustup/toolchains/stable-x86_64-unknown-linux-gnu/lib/rustlib/src/rust/library/core/src/ptr" "mod.rs"
	.loc	28 1821 18
	jmp	.LBB33_7
.LBB33_5:
	.loc	28 0 18 is_stmt 0
	movq	16(%rsp), %rax
.Ltmp194:
	.loc	23 55 17 is_stmt 1
	cmpq	$0, %rax
	sete	%al
.Ltmp195:
	.loc	2 127 52
	xorb	$-1, %al
.Ltmp196:
	.loc	28 1821 18
	testb	$1, %al
	jne	.LBB33_8
	jmp	.LBB33_7
.LBB33_6:
	.loc	28 1821 18
	jmp	.LBB33_8
.LBB33_7:
	.loc	2 68 21
	leaq	.Lanon.60f91fde1ce0e38296af11bc775d42ab.17(%rip), %rdi
	movl	$227, %esi
	callq	*_ZN4core9panicking14panic_nounwind17h0c59dc9f7f043eadE@GOTPCREL(%rip)
.LBB33_8:
	.loc	2 72 14 epilogue_begin
	addq	$120, %rsp
	.cfi_def_cfa_offset 8
	retq
.LBB33_9:
	.cfi_def_cfa_offset 128
.Ltmp185:
	.loc	2 66 13
	callq	*_ZN4core9panicking19panic_cannot_unwind17hb8732afd89555502E@GOTPCREL(%rip)
.Ltmp197:
.LBB33_10:
	.loc	2 0 13 is_stmt 0
	ud2
.Lfunc_end33:
	.size	_ZN4core3ptr13read_volatile18precondition_check17h041f35cab5155cfaE, .Lfunc_end33-_ZN4core3ptr13read_volatile18precondition_check17h041f35cab5155cfaE
	.cfi_endproc
	.section	.gcc_except_table._ZN4core3ptr13read_volatile18precondition_check17h041f35cab5155cfaE,"a",@progbits
	.p2align	2, 0x0
GCC_except_table33:
.Lexception5:
	.byte	255
	.byte	155
	.uleb128 .Lttbase3-.Lttbaseref3
.Lttbaseref3:
	.byte	1
	.uleb128 .Lcst_end5-.Lcst_begin5
.Lcst_begin5:
	.uleb128 .Ltmp183-.Lfunc_begin33
	.uleb128 .Ltmp184-.Ltmp183
	.uleb128 .Ltmp185-.Lfunc_begin33
	.byte	1
.Lcst_end5:
	.byte	127
	.byte	0
	.p2align	2, 0x0
.Lttbase3:
	.byte	0
	.p2align	2, 0x0

	.section	".text._ZN4core3ptr251drop_in_place$LT$alloc..vec..Vec$LT$alloc..string..String$GT$..extend_trusted$LT$core..iter..adapters..map..Map$LT$core..slice..iter..Iter$LT$u32$GT$$C$variables..fibonacci_sequence..$u7b$$u7b$closure$u7d$$u7d$$GT$$GT$..$u7b$$u7b$closure$u7d$$u7d$$GT$17h229eca1f57fd8dc3E","ax",@progbits
	.p2align	4
	.type	_ZN4core3ptr251drop_in_place$LT$alloc..vec..Vec$LT$alloc..string..String$GT$..extend_trusted$LT$core..iter..adapters..map..Map$LT$core..slice..iter..Iter$LT$u32$GT$$C$variables..fibonacci_sequence..$u7b$$u7b$closure$u7d$$u7d$$GT$$GT$..$u7b$$u7b$closure$u7d$$u7d$$GT$17h229eca1f57fd8dc3E,@function
_ZN4core3ptr251drop_in_place$LT$alloc..vec..Vec$LT$alloc..string..String$GT$..extend_trusted$LT$core..iter..adapters..map..Map$LT$core..slice..iter..Iter$LT$u32$GT$$C$variables..fibonacci_sequence..$u7b$$u7b$closure$u7d$$u7d$$GT$$GT$..$u7b$$u7b$closure$u7d$$u7d$$GT$17h229eca1f57fd8dc3E:
.Lfunc_begin34:
	.loc	28 524 0 is_stmt 1
	.cfi_startproc
	pushq	%rax
	.cfi_def_cfa_offset 16
	movq	%rdi, (%rsp)
.Ltmp198:
	.loc	28 524 1 prologue_end
	callq	_ZN4core3ptr62drop_in_place$LT$alloc..vec..set_len_on_drop..SetLenOnDrop$GT$17h046f9d5687ad5782E
	.loc	28 524 1 epilogue_begin is_stmt 0
	popq	%rax
	.cfi_def_cfa_offset 8
	retq
.Ltmp199:
.Lfunc_end34:
	.size	_ZN4core3ptr251drop_in_place$LT$alloc..vec..Vec$LT$alloc..string..String$GT$..extend_trusted$LT$core..iter..adapters..map..Map$LT$core..slice..iter..Iter$LT$u32$GT$$C$variables..fibonacci_sequence..$u7b$$u7b$closure$u7d$$u7d$$GT$$GT$..$u7b$$u7b$closure$u7d$$u7d$$GT$17h229eca1f57fd8dc3E, .Lfunc_end34-_ZN4core3ptr251drop_in_place$LT$alloc..vec..Vec$LT$alloc..string..String$GT$..extend_trusted$LT$core..iter..adapters..map..Map$LT$core..slice..iter..Iter$LT$u32$GT$$C$variables..fibonacci_sequence..$u7b$$u7b$closure$u7d$$u7d$$GT$$GT$..$u7b$$u7b$closure$u7d$$u7d$$GT$17h229eca1f57fd8dc3E
	.cfi_endproc

	.section	".text._ZN4core3ptr28drop_in_place$LT$$RF$u32$GT$17he1b3e0252e1e12feE","ax",@progbits
	.p2align	4
	.type	_ZN4core3ptr28drop_in_place$LT$$RF$u32$GT$17he1b3e0252e1e12feE,@function
_ZN4core3ptr28drop_in_place$LT$$RF$u32$GT$17he1b3e0252e1e12feE:
.Lfunc_begin35:
	.loc	28 524 0 is_stmt 1
	.cfi_startproc
	movq	%rdi, -8(%rsp)
.Ltmp200:
	.loc	28 524 1 prologue_end
	retq
.Ltmp201:
.Lfunc_end35:
	.size	_ZN4core3ptr28drop_in_place$LT$$RF$u32$GT$17he1b3e0252e1e12feE, .Lfunc_end35-_ZN4core3ptr28drop_in_place$LT$$RF$u32$GT$17he1b3e0252e1e12feE
	.cfi_endproc

	.section	".text._ZN4core3ptr366drop_in_place$LT$core..iter..traits..iterator..Iterator..for_each..call$LT$alloc..string..String$C$alloc..vec..Vec$LT$alloc..string..String$GT$..extend_trusted$LT$core..iter..adapters..map..Map$LT$core..slice..iter..Iter$LT$u32$GT$$C$variables..fibonacci_sequence..$u7b$$u7b$closure$u7d$$u7d$$GT$$GT$..$u7b$$u7b$closure$u7d$$u7d$$GT$..$u7b$$u7b$closure$u7d$$u7d$$GT$17hf04d06336efcbd46E","ax",@progbits
	.p2align	4
	.type	_ZN4core3ptr366drop_in_place$LT$core..iter..traits..iterator..Iterator..for_each..call$LT$alloc..string..String$C$alloc..vec..Vec$LT$alloc..string..String$GT$..extend_trusted$LT$core..iter..adapters..map..Map$LT$core..slice..iter..Iter$LT$u32$GT$$C$variables..fibonacci_sequence..$u7b$$u7b$closure$u7d$$u7d$$GT$$GT$..$u7b$$u7b$closure$u7d$$u7d$$GT$..$u7b$$u7b$closure$u7d$$u7d$$GT$17hf04d06336efcbd46E,@function
_ZN4core3ptr366drop_in_place$LT$core..iter..traits..iterator..Iterator..for_each..call$LT$alloc..string..String$C$alloc..vec..Vec$LT$alloc..string..String$GT$..extend_trusted$LT$core..iter..adapters..map..Map$LT$core..slice..iter..Iter$LT$u32$GT$$C$variables..fibonacci_sequence..$u7b$$u7b$closure$u7d$$u7d$$GT$$GT$..$u7b$$u7b$closure$u7d$$u7d$$GT$..$u7b$$u7b$closure$u7d$$u7d$$GT$17hf04d06336efcbd46E:
.Lfunc_begin36:
	.loc	28 524 0
	.cfi_startproc
	pushq	%rax
	.cfi_def_cfa_offset 16
	movq	%rdi, (%rsp)
.Ltmp202:
	.loc	28 524 1 prologue_end
	callq	_ZN4core3ptr251drop_in_place$LT$alloc..vec..Vec$LT$alloc..string..String$GT$..extend_trusted$LT$core..iter..adapters..map..Map$LT$core..slice..iter..Iter$LT$u32$GT$$C$variables..fibonacci_sequence..$u7b$$u7b$closure$u7d$$u7d$$GT$$GT$..$u7b$$u7b$closure$u7d$$u7d$$GT$17h229eca1f57fd8dc3E
	.loc	28 524 1 epilogue_begin is_stmt 0
	popq	%rax
	.cfi_def_cfa_offset 8
	retq
.Ltmp203:
.Lfunc_end36:
	.size	_ZN4core3ptr366drop_in_place$LT$core..iter..traits..iterator..Iterator..for_each..call$LT$alloc..string..String$C$alloc..vec..Vec$LT$alloc..string..String$GT$..extend_trusted$LT$core..iter..adapters..map..Map$LT$core..slice..iter..Iter$LT$u32$GT$$C$variables..fibonacci_sequence..$u7b$$u7b$closure$u7d$$u7d$$GT$$GT$..$u7b$$u7b$closure$u7d$$u7d$$GT$..$u7b$$u7b$closure$u7d$$u7d$$GT$17hf04d06336efcbd46E, .Lfunc_end36-_ZN4core3ptr366drop_in_place$LT$core..iter..traits..iterator..Iterator..for_each..call$LT$alloc..string..String$C$alloc..vec..Vec$LT$alloc..string..String$GT$..extend_trusted$LT$core..iter..adapters..map..Map$LT$core..slice..iter..Iter$LT$u32$GT$$C$variables..fibonacci_sequence..$u7b$$u7b$closure$u7d$$u7d$$GT$$GT$..$u7b$$u7b$closure$u7d$$u7d$$GT$..$u7b$$u7b$closure$u7d$$u7d$$GT$17hf04d06336efcbd46E
	.cfi_endproc

	.section	".text._ZN4core3ptr37drop_in_place$LT$core..fmt..Error$GT$17h759198456f41f369E","ax",@progbits
	.p2align	4
	.type	_ZN4core3ptr37drop_in_place$LT$core..fmt..Error$GT$17h759198456f41f369E,@function
_ZN4core3ptr37drop_in_place$LT$core..fmt..Error$GT$17h759198456f41f369E:
.Lfunc_begin37:
	.loc	28 524 0 is_stmt 1
	.cfi_startproc
	movq	%rdi, -8(%rsp)
.Ltmp204:
	.loc	28 524 1 prologue_end
	retq
.Ltmp205:
.Lfunc_end37:
	.size	_ZN4core3ptr37drop_in_place$LT$core..fmt..Error$GT$17h759198456f41f369E, .Lfunc_end37-_ZN4core3ptr37drop_in_place$LT$core..fmt..Error$GT$17h759198456f41f369E
	.cfi_endproc

	.section	".text._ZN4core3ptr42drop_in_place$LT$alloc..string..String$GT$17h5c57c16fee11b4e5E","ax",@progbits
	.p2align	4
	.type	_ZN4core3ptr42drop_in_place$LT$alloc..string..String$GT$17h5c57c16fee11b4e5E,@function
_ZN4core3ptr42drop_in_place$LT$alloc..string..String$GT$17h5c57c16fee11b4e5E:
.Lfunc_begin38:
	.loc	28 524 0
	.cfi_startproc
	pushq	%rax
	.cfi_def_cfa_offset 16
	movq	%rdi, (%rsp)
.Ltmp206:
	.loc	28 524 1 prologue_end
	callq	_ZN4core3ptr46drop_in_place$LT$alloc..vec..Vec$LT$u8$GT$$GT$17hce2efa0d0f5cfee9E
	.loc	28 524 1 epilogue_begin is_stmt 0
	popq	%rax
	.cfi_def_cfa_offset 8
	retq
.Ltmp207:
.Lfunc_end38:
	.size	_ZN4core3ptr42drop_in_place$LT$alloc..string..String$GT$17h5c57c16fee11b4e5E, .Lfunc_end38-_ZN4core3ptr42drop_in_place$LT$alloc..string..String$GT$17h5c57c16fee11b4e5E
	.cfi_endproc

	.section	".text._ZN4core3ptr46drop_in_place$LT$alloc..vec..Vec$LT$u8$GT$$GT$17hce2efa0d0f5cfee9E","ax",@progbits
	.p2align	4
	.type	_ZN4core3ptr46drop_in_place$LT$alloc..vec..Vec$LT$u8$GT$$GT$17hce2efa0d0f5cfee9E,@function
_ZN4core3ptr46drop_in_place$LT$alloc..vec..Vec$LT$u8$GT$$GT$17hce2efa0d0f5cfee9E:
.Lfunc_begin39:
	.loc	28 524 0 is_stmt 1
	.cfi_startproc
	.cfi_personality 155, DW.ref.rust_eh_personality
	.cfi_lsda 27, .Lexception6
	subq	$40, %rsp
	.cfi_def_cfa_offset 48
	movq	%rdi, 8(%rsp)
	movq	%rdi, 16(%rsp)
.Ltmp208:
.Ltmp214:
	.loc	28 524 1 prologue_end
	movq	_ZN70_$LT$alloc..vec..Vec$LT$T$C$A$GT$$u20$as$u20$core..ops..drop..Drop$GT$4drop17h3cad85dcbc7cf70aE@GOTPCREL(%rip), %rax
	callq	*%rax
.Ltmp209:
	jmp	.LBB39_3
.LBB39_1:
.Ltmp211:
	.loc	28 0 1 is_stmt 0
	movq	8(%rsp), %rdi
	.loc	28 524 1
	callq	_ZN4core3ptr53drop_in_place$LT$alloc..raw_vec..RawVec$LT$u8$GT$$GT$17hb52e02f1ebd9a166E
.Ltmp212:
	jmp	.LBB39_5
.LBB39_2:
.Ltmp210:
	.loc	28 0 1
	movq	%rax, %rcx
	movl	%edx, %eax
	movq	%rcx, 24(%rsp)
	movl	%eax, 32(%rsp)
	jmp	.LBB39_1
.LBB39_3:
	movq	8(%rsp), %rdi
	.loc	28 524 1
	callq	_ZN4core3ptr53drop_in_place$LT$alloc..raw_vec..RawVec$LT$u8$GT$$GT$17hb52e02f1ebd9a166E
	.loc	28 524 1 epilogue_begin
	addq	$40, %rsp
	.cfi_def_cfa_offset 8
	retq
.LBB39_4:
	.cfi_def_cfa_offset 48
.Ltmp213:
	callq	*_ZN4core9panicking16panic_in_cleanup17h51d1753fd07771d1E@GOTPCREL(%rip)
.LBB39_5:
	movq	24(%rsp), %rdi
	callq	_Unwind_Resume@PLT
.Ltmp215:
.Lfunc_end39:
	.size	_ZN4core3ptr46drop_in_place$LT$alloc..vec..Vec$LT$u8$GT$$GT$17hce2efa0d0f5cfee9E, .Lfunc_end39-_ZN4core3ptr46drop_in_place$LT$alloc..vec..Vec$LT$u8$GT$$GT$17hce2efa0d0f5cfee9E
	.cfi_endproc
	.section	".gcc_except_table._ZN4core3ptr46drop_in_place$LT$alloc..vec..Vec$LT$u8$GT$$GT$17hce2efa0d0f5cfee9E","a",@progbits
	.p2align	2, 0x0
GCC_except_table39:
.Lexception6:
	.byte	255
	.byte	155
	.uleb128 .Lttbase4-.Lttbaseref4
.Lttbaseref4:
	.byte	1
	.uleb128 .Lcst_end6-.Lcst_begin6
.Lcst_begin6:
	.uleb128 .Ltmp208-.Lfunc_begin39
	.uleb128 .Ltmp209-.Ltmp208
	.uleb128 .Ltmp210-.Lfunc_begin39
	.byte	0
	.uleb128 .Ltmp211-.Lfunc_begin39
	.uleb128 .Ltmp212-.Ltmp211
	.uleb128 .Ltmp213-.Lfunc_begin39
	.byte	1
	.uleb128 .Ltmp212-.Lfunc_begin39
	.uleb128 .Lfunc_end39-.Ltmp212
	.byte	0
	.byte	0
.Lcst_end6:
	.byte	127
	.byte	0
	.p2align	2, 0x0
.Lttbase4:
	.byte	0
	.p2align	2, 0x0

	.section	".text._ZN4core3ptr47drop_in_place$LT$alloc..vec..Vec$LT$u32$GT$$GT$17hcd6c2d97fd3a131bE","ax",@progbits
	.p2align	4
	.type	_ZN4core3ptr47drop_in_place$LT$alloc..vec..Vec$LT$u32$GT$$GT$17hcd6c2d97fd3a131bE,@function
_ZN4core3ptr47drop_in_place$LT$alloc..vec..Vec$LT$u32$GT$$GT$17hcd6c2d97fd3a131bE:
.Lfunc_begin40:
	.loc	28 524 0 is_stmt 1
	.cfi_startproc
	.cfi_personality 155, DW.ref.rust_eh_personality
	.cfi_lsda 27, .Lexception7
	subq	$40, %rsp
	.cfi_def_cfa_offset 48
	movq	%rdi, 8(%rsp)
	movq	%rdi, 16(%rsp)
.Ltmp216:
.Ltmp222:
	.loc	28 524 1 prologue_end
	callq	_ZN70_$LT$alloc..vec..Vec$LT$T$C$A$GT$$u20$as$u20$core..ops..drop..Drop$GT$4drop17h93faa721d57c1e8eE
.Ltmp217:
	jmp	.LBB40_3
.LBB40_1:
.Ltmp219:
	.loc	28 0 1 is_stmt 0
	movq	8(%rsp), %rdi
	.loc	28 524 1
	callq	_ZN4core3ptr54drop_in_place$LT$alloc..raw_vec..RawVec$LT$u32$GT$$GT$17h6bb142e813f8bb53E
.Ltmp220:
	jmp	.LBB40_5
.LBB40_2:
.Ltmp218:
	.loc	28 0 1
	movq	%rax, %rcx
	movl	%edx, %eax
	movq	%rcx, 24(%rsp)
	movl	%eax, 32(%rsp)
	jmp	.LBB40_1
.LBB40_3:
	movq	8(%rsp), %rdi
	.loc	28 524 1
	callq	_ZN4core3ptr54drop_in_place$LT$alloc..raw_vec..RawVec$LT$u32$GT$$GT$17h6bb142e813f8bb53E
	.loc	28 524 1 epilogue_begin
	addq	$40, %rsp
	.cfi_def_cfa_offset 8
	retq
.LBB40_4:
	.cfi_def_cfa_offset 48
.Ltmp221:
	callq	*_ZN4core9panicking16panic_in_cleanup17h51d1753fd07771d1E@GOTPCREL(%rip)
.LBB40_5:
	movq	24(%rsp), %rdi
	callq	_Unwind_Resume@PLT
.Ltmp223:
.Lfunc_end40:
	.size	_ZN4core3ptr47drop_in_place$LT$alloc..vec..Vec$LT$u32$GT$$GT$17hcd6c2d97fd3a131bE, .Lfunc_end40-_ZN4core3ptr47drop_in_place$LT$alloc..vec..Vec$LT$u32$GT$$GT$17hcd6c2d97fd3a131bE
	.cfi_endproc
	.section	".gcc_except_table._ZN4core3ptr47drop_in_place$LT$alloc..vec..Vec$LT$u32$GT$$GT$17hcd6c2d97fd3a131bE","a",@progbits
	.p2align	2, 0x0
GCC_except_table40:
.Lexception7:
	.byte	255
	.byte	155
	.uleb128 .Lttbase5-.Lttbaseref5
.Lttbaseref5:
	.byte	1
	.uleb128 .Lcst_end7-.Lcst_begin7
.Lcst_begin7:
	.uleb128 .Ltmp216-.Lfunc_begin40
	.uleb128 .Ltmp217-.Ltmp216
	.uleb128 .Ltmp218-.Lfunc_begin40
	.byte	0
	.uleb128 .Ltmp219-.Lfunc_begin40
	.uleb128 .Ltmp220-.Ltmp219
	.uleb128 .Ltmp221-.Lfunc_begin40
	.byte	1
	.uleb128 .Ltmp220-.Lfunc_begin40
	.uleb128 .Lfunc_end40-.Ltmp220
	.byte	0
	.byte	0
.Lcst_end7:
	.byte	127
	.byte	0
	.p2align	2, 0x0
.Lttbase5:
	.byte	0
	.p2align	2, 0x0

	.section	".text._ZN4core3ptr52drop_in_place$LT$$u5b$alloc..string..String$u5d$$GT$17h6d41e8b25e66c33bE","ax",@progbits
	.p2align	4
	.type	_ZN4core3ptr52drop_in_place$LT$$u5b$alloc..string..String$u5d$$GT$17h6d41e8b25e66c33bE,@function
_ZN4core3ptr52drop_in_place$LT$$u5b$alloc..string..String$u5d$$GT$17h6d41e8b25e66c33bE:
.Lfunc_begin41:
	.loc	28 524 0 is_stmt 1
	.cfi_startproc
	.cfi_personality 155, DW.ref.rust_eh_personality
	.cfi_lsda 27, .Lexception8
	subq	$56, %rsp
	.cfi_def_cfa_offset 64
	movq	%rdi, (%rsp)
	movq	%rsi, 8(%rsp)
	movq	%rdi, 24(%rsp)
	movq	%rsi, 32(%rsp)
.Ltmp230:
	.loc	28 524 1 prologue_end
	movq	$0, 16(%rsp)
.LBB41_1:
	.loc	28 0 1 is_stmt 0
	movq	8(%rsp), %rax
	.loc	28 524 1
	cmpq	%rax, 16(%rsp)
	je	.LBB41_3
	.loc	28 0 1
	movq	(%rsp), %rcx
	.loc	28 524 1
	movq	16(%rsp), %rax
	leaq	(%rax,%rax,2), %rdx
	leaq	(%rcx,%rdx,8), %rdi
	incq	%rax
	movq	%rax, 16(%rsp)
.Ltmp224:
	callq	_ZN4core3ptr42drop_in_place$LT$alloc..string..String$GT$17h5c57c16fee11b4e5E
.Ltmp225:
	jmp	.LBB41_1
.LBB41_3:
	.loc	28 524 1 epilogue_begin
	addq	$56, %rsp
	.cfi_def_cfa_offset 8
	retq
.LBB41_4:
	.cfi_def_cfa_offset 64
	.loc	28 0 1
	movq	8(%rsp), %rax
	.loc	28 524 1 is_stmt 1
	cmpq	%rax, 16(%rsp)
	je	.LBB41_7
	jmp	.LBB41_6
.LBB41_5:
.Ltmp226:
	.loc	28 0 1 is_stmt 0
	movq	%rax, %rcx
	movl	%edx, %eax
	movq	%rcx, 40(%rsp)
	movl	%eax, 48(%rsp)
	jmp	.LBB41_4
.LBB41_6:
	movq	(%rsp), %rcx
	.loc	28 524 1
	movq	16(%rsp), %rax
	leaq	(%rax,%rax,2), %rdx
	leaq	(%rcx,%rdx,8), %rdi
	incq	%rax
	movq	%rax, 16(%rsp)
.Ltmp227:
	callq	_ZN4core3ptr42drop_in_place$LT$alloc..string..String$GT$17h5c57c16fee11b4e5E
.Ltmp228:
	jmp	.LBB41_4
.LBB41_7:
	movq	40(%rsp), %rdi
	callq	_Unwind_Resume@PLT
.LBB41_8:
.Ltmp229:
	callq	*_ZN4core9panicking16panic_in_cleanup17h51d1753fd07771d1E@GOTPCREL(%rip)
.Ltmp231:
.Lfunc_end41:
	.size	_ZN4core3ptr52drop_in_place$LT$$u5b$alloc..string..String$u5d$$GT$17h6d41e8b25e66c33bE, .Lfunc_end41-_ZN4core3ptr52drop_in_place$LT$$u5b$alloc..string..String$u5d$$GT$17h6d41e8b25e66c33bE
	.cfi_endproc
	.section	".gcc_except_table._ZN4core3ptr52drop_in_place$LT$$u5b$alloc..string..String$u5d$$GT$17h6d41e8b25e66c33bE","a",@progbits
	.p2align	2, 0x0
GCC_except_table41:
.Lexception8:
	.byte	255
	.byte	155
	.uleb128 .Lttbase6-.Lttbaseref6
.Lttbaseref6:
	.byte	1
	.uleb128 .Lcst_end8-.Lcst_begin8
.Lcst_begin8:
	.uleb128 .Ltmp224-.Lfunc_begin41
	.uleb128 .Ltmp225-.Ltmp224
	.uleb128 .Ltmp226-.Lfunc_begin41
	.byte	0
	.uleb128 .Ltmp227-.Lfunc_begin41
	.uleb128 .Ltmp228-.Ltmp227
	.uleb128 .Ltmp229-.Lfunc_begin41
	.byte	1
	.uleb128 .Ltmp228-.Lfunc_begin41
	.uleb128 .Lfunc_end41-.Ltmp228
	.byte	0
	.byte	0
.Lcst_end8:
	.byte	127
	.byte	0
	.p2align	2, 0x0
.Lttbase6:
	.byte	0
	.p2align	2, 0x0

	.section	".text._ZN4core3ptr53drop_in_place$LT$alloc..raw_vec..RawVec$LT$u8$GT$$GT$17hb52e02f1ebd9a166E","ax",@progbits
	.p2align	4
	.type	_ZN4core3ptr53drop_in_place$LT$alloc..raw_vec..RawVec$LT$u8$GT$$GT$17hb52e02f1ebd9a166E,@function
_ZN4core3ptr53drop_in_place$LT$alloc..raw_vec..RawVec$LT$u8$GT$$GT$17hb52e02f1ebd9a166E:
.Lfunc_begin42:
	.loc	28 524 0 is_stmt 1
	.cfi_startproc
	pushq	%rax
	.cfi_def_cfa_offset 16
	movq	%rdi, (%rsp)
.Ltmp232:
	.loc	28 524 1 prologue_end
	callq	*_ZN77_$LT$alloc..raw_vec..RawVec$LT$T$C$A$GT$$u20$as$u20$core..ops..drop..Drop$GT$4drop17h207b169ff2d583b0E@GOTPCREL(%rip)
	.loc	28 524 1 epilogue_begin is_stmt 0
	popq	%rax
	.cfi_def_cfa_offset 8
	retq
.Ltmp233:
.Lfunc_end42:
	.size	_ZN4core3ptr53drop_in_place$LT$alloc..raw_vec..RawVec$LT$u8$GT$$GT$17hb52e02f1ebd9a166E, .Lfunc_end42-_ZN4core3ptr53drop_in_place$LT$alloc..raw_vec..RawVec$LT$u8$GT$$GT$17hb52e02f1ebd9a166E
	.cfi_endproc

	.section	".text._ZN4core3ptr544drop_in_place$LT$core..iter..adapters..map..map_fold$LT$$RF$u32$C$alloc..string..String$C$$LP$$RP$$C$variables..fibonacci_sequence..$u7b$$u7b$closure$u7d$$u7d$$C$core..iter..traits..iterator..Iterator..for_each..call$LT$alloc..string..String$C$alloc..vec..Vec$LT$alloc..string..String$GT$..extend_trusted$LT$core..iter..adapters..map..Map$LT$core..slice..iter..Iter$LT$u32$GT$$C$variables..fibonacci_sequence..$u7b$$u7b$closure$u7d$$u7d$$GT$$GT$..$u7b$$u7b$closure$u7d$$u7d$$GT$..$u7b$$u7b$closure$u7d$$u7d$$GT$..$u7b$$u7b$closure$u7d$$u7d$$GT$17h2f25ab8441bc942fE","ax",@progbits
	.p2align	4
	.type	_ZN4core3ptr544drop_in_place$LT$core..iter..adapters..map..map_fold$LT$$RF$u32$C$alloc..string..String$C$$LP$$RP$$C$variables..fibonacci_sequence..$u7b$$u7b$closure$u7d$$u7d$$C$core..iter..traits..iterator..Iterator..for_each..call$LT$alloc..string..String$C$alloc..vec..Vec$LT$alloc..string..String$GT$..extend_trusted$LT$core..iter..adapters..map..Map$LT$core..slice..iter..Iter$LT$u32$GT$$C$variables..fibonacci_sequence..$u7b$$u7b$closure$u7d$$u7d$$GT$$GT$..$u7b$$u7b$closure$u7d$$u7d$$GT$..$u7b$$u7b$closure$u7d$$u7d$$GT$..$u7b$$u7b$closure$u7d$$u7d$$GT$17h2f25ab8441bc942fE,@function
_ZN4core3ptr544drop_in_place$LT$core..iter..adapters..map..map_fold$LT$$RF$u32$C$alloc..string..String$C$$LP$$RP$$C$variables..fibonacci_sequence..$u7b$$u7b$closure$u7d$$u7d$$C$core..iter..traits..iterator..Iterator..for_each..call$LT$alloc..string..String$C$alloc..vec..Vec$LT$alloc..string..String$GT$..extend_trusted$LT$core..iter..adapters..map..Map$LT$core..slice..iter..Iter$LT$u32$GT$$C$variables..fibonacci_sequence..$u7b$$u7b$closure$u7d$$u7d$$GT$$GT$..$u7b$$u7b$closure$u7d$$u7d$$GT$..$u7b$$u7b$closure$u7d$$u7d$$GT$..$u7b$$u7b$closure$u7d$$u7d$$GT$17h2f25ab8441bc942fE:
.Lfunc_begin43:
	.loc	28 524 0 is_stmt 1
	.cfi_startproc
	pushq	%rax
	.cfi_def_cfa_offset 16
	movq	%rdi, (%rsp)
.Ltmp234:
	.loc	28 524 1 prologue_end
	callq	_ZN4core3ptr366drop_in_place$LT$core..iter..traits..iterator..Iterator..for_each..call$LT$alloc..string..String$C$alloc..vec..Vec$LT$alloc..string..String$GT$..extend_trusted$LT$core..iter..adapters..map..Map$LT$core..slice..iter..Iter$LT$u32$GT$$C$variables..fibonacci_sequence..$u7b$$u7b$closure$u7d$$u7d$$GT$$GT$..$u7b$$u7b$closure$u7d$$u7d$$GT$..$u7b$$u7b$closure$u7d$$u7d$$GT$17hf04d06336efcbd46E
	.loc	28 524 1 epilogue_begin is_stmt 0
	popq	%rax
	.cfi_def_cfa_offset 8
	retq
.Ltmp235:
.Lfunc_end43:
	.size	_ZN4core3ptr544drop_in_place$LT$core..iter..adapters..map..map_fold$LT$$RF$u32$C$alloc..string..String$C$$LP$$RP$$C$variables..fibonacci_sequence..$u7b$$u7b$closure$u7d$$u7d$$C$core..iter..traits..iterator..Iterator..for_each..call$LT$alloc..string..String$C$alloc..vec..Vec$LT$alloc..string..String$GT$..extend_trusted$LT$core..iter..adapters..map..Map$LT$core..slice..iter..Iter$LT$u32$GT$$C$variables..fibonacci_sequence..$u7b$$u7b$closure$u7d$$u7d$$GT$$GT$..$u7b$$u7b$closure$u7d$$u7d$$GT$..$u7b$$u7b$closure$u7d$$u7d$$GT$..$u7b$$u7b$closure$u7d$$u7d$$GT$17h2f25ab8441bc942fE, .Lfunc_end43-_ZN4core3ptr544drop_in_place$LT$core..iter..adapters..map..map_fold$LT$$RF$u32$C$alloc..string..String$C$$LP$$RP$$C$variables..fibonacci_sequence..$u7b$$u7b$closure$u7d$$u7d$$C$core..iter..traits..iterator..Iterator..for_each..call$LT$alloc..string..String$C$alloc..vec..Vec$LT$alloc..string..String$GT$..extend_trusted$LT$core..iter..adapters..map..Map$LT$core..slice..iter..Iter$LT$u32$GT$$C$variables..fibonacci_sequence..$u7b$$u7b$closure$u7d$$u7d$$GT$$GT$..$u7b$$u7b$closure$u7d$$u7d$$GT$..$u7b$$u7b$closure$u7d$$u7d$$GT$..$u7b$$u7b$closure$u7d$$u7d$$GT$17h2f25ab8441bc942fE
	.cfi_endproc

	.section	".text._ZN4core3ptr54drop_in_place$LT$alloc..raw_vec..RawVec$LT$u32$GT$$GT$17h6bb142e813f8bb53E","ax",@progbits
	.p2align	4
	.type	_ZN4core3ptr54drop_in_place$LT$alloc..raw_vec..RawVec$LT$u32$GT$$GT$17h6bb142e813f8bb53E,@function
_ZN4core3ptr54drop_in_place$LT$alloc..raw_vec..RawVec$LT$u32$GT$$GT$17h6bb142e813f8bb53E:
.Lfunc_begin44:
	.loc	28 524 0 is_stmt 1
	.cfi_startproc
	pushq	%rax
	.cfi_def_cfa_offset 16
	movq	%rdi, (%rsp)
.Ltmp236:
	.loc	28 524 1 prologue_end
	callq	_ZN77_$LT$alloc..raw_vec..RawVec$LT$T$C$A$GT$$u20$as$u20$core..ops..drop..Drop$GT$4drop17h8415d88874ca0c00E
	.loc	28 524 1 epilogue_begin is_stmt 0
	popq	%rax
	.cfi_def_cfa_offset 8
	retq
.Ltmp237:
.Lfunc_end44:
	.size	_ZN4core3ptr54drop_in_place$LT$alloc..raw_vec..RawVec$LT$u32$GT$$GT$17h6bb142e813f8bb53E, .Lfunc_end44-_ZN4core3ptr54drop_in_place$LT$alloc..raw_vec..RawVec$LT$u32$GT$$GT$17h6bb142e813f8bb53E
	.cfi_endproc

	.section	".text._ZN4core3ptr62drop_in_place$LT$alloc..vec..set_len_on_drop..SetLenOnDrop$GT$17h046f9d5687ad5782E","ax",@progbits
	.p2align	4
	.type	_ZN4core3ptr62drop_in_place$LT$alloc..vec..set_len_on_drop..SetLenOnDrop$GT$17h046f9d5687ad5782E,@function
_ZN4core3ptr62drop_in_place$LT$alloc..vec..set_len_on_drop..SetLenOnDrop$GT$17h046f9d5687ad5782E:
.Lfunc_begin45:
	.loc	28 524 0 is_stmt 1
	.cfi_startproc
	pushq	%rax
	.cfi_def_cfa_offset 16
	movq	%rdi, (%rsp)
.Ltmp238:
	.loc	28 524 1 prologue_end
	callq	_ZN83_$LT$alloc..vec..set_len_on_drop..SetLenOnDrop$u20$as$u20$core..ops..drop..Drop$GT$4drop17hb7b367527df5e884E
	.loc	28 524 1 epilogue_begin is_stmt 0
	popq	%rax
	.cfi_def_cfa_offset 8
	retq
.Ltmp239:
.Lfunc_end45:
	.size	_ZN4core3ptr62drop_in_place$LT$alloc..vec..set_len_on_drop..SetLenOnDrop$GT$17h046f9d5687ad5782E, .Lfunc_end45-_ZN4core3ptr62drop_in_place$LT$alloc..vec..set_len_on_drop..SetLenOnDrop$GT$17h046f9d5687ad5782E
	.cfi_endproc

	.section	".text._ZN4core3ptr65drop_in_place$LT$alloc..vec..Vec$LT$alloc..string..String$GT$$GT$17he8f3654548fa77e1E","ax",@progbits
	.p2align	4
	.type	_ZN4core3ptr65drop_in_place$LT$alloc..vec..Vec$LT$alloc..string..String$GT$$GT$17he8f3654548fa77e1E,@function
_ZN4core3ptr65drop_in_place$LT$alloc..vec..Vec$LT$alloc..string..String$GT$$GT$17he8f3654548fa77e1E:
.Lfunc_begin46:
	.loc	28 524 0 is_stmt 1
	.cfi_startproc
	.cfi_personality 155, DW.ref.rust_eh_personality
	.cfi_lsda 27, .Lexception9
	subq	$40, %rsp
	.cfi_def_cfa_offset 48
	movq	%rdi, 8(%rsp)
	movq	%rdi, 16(%rsp)
.Ltmp240:
.Ltmp246:
	.loc	28 524 1 prologue_end
	callq	_ZN70_$LT$alloc..vec..Vec$LT$T$C$A$GT$$u20$as$u20$core..ops..drop..Drop$GT$4drop17hc6f83f57ce550938E
.Ltmp241:
	jmp	.LBB46_3
.LBB46_1:
.Ltmp243:
	.loc	28 0 1 is_stmt 0
	movq	8(%rsp), %rdi
	.loc	28 524 1
	callq	_ZN4core3ptr72drop_in_place$LT$alloc..raw_vec..RawVec$LT$alloc..string..String$GT$$GT$17he682380bfef29f06E
.Ltmp244:
	jmp	.LBB46_5
.LBB46_2:
.Ltmp242:
	.loc	28 0 1
	movq	%rax, %rcx
	movl	%edx, %eax
	movq	%rcx, 24(%rsp)
	movl	%eax, 32(%rsp)
	jmp	.LBB46_1
.LBB46_3:
	movq	8(%rsp), %rdi
	.loc	28 524 1
	callq	_ZN4core3ptr72drop_in_place$LT$alloc..raw_vec..RawVec$LT$alloc..string..String$GT$$GT$17he682380bfef29f06E
	.loc	28 524 1 epilogue_begin
	addq	$40, %rsp
	.cfi_def_cfa_offset 8
	retq
.LBB46_4:
	.cfi_def_cfa_offset 48
.Ltmp245:
	callq	*_ZN4core9panicking16panic_in_cleanup17h51d1753fd07771d1E@GOTPCREL(%rip)
.LBB46_5:
	movq	24(%rsp), %rdi
	callq	_Unwind_Resume@PLT
.Ltmp247:
.Lfunc_end46:
	.size	_ZN4core3ptr65drop_in_place$LT$alloc..vec..Vec$LT$alloc..string..String$GT$$GT$17he8f3654548fa77e1E, .Lfunc_end46-_ZN4core3ptr65drop_in_place$LT$alloc..vec..Vec$LT$alloc..string..String$GT$$GT$17he8f3654548fa77e1E
	.cfi_endproc
	.section	".gcc_except_table._ZN4core3ptr65drop_in_place$LT$alloc..vec..Vec$LT$alloc..string..String$GT$$GT$17he8f3654548fa77e1E","a",@progbits
	.p2align	2, 0x0
GCC_except_table46:
.Lexception9:
	.byte	255
	.byte	155
	.uleb128 .Lttbase7-.Lttbaseref7
.Lttbaseref7:
	.byte	1
	.uleb128 .Lcst_end9-.Lcst_begin9
.Lcst_begin9:
	.uleb128 .Ltmp240-.Lfunc_begin46
	.uleb128 .Ltmp241-.Ltmp240
	.uleb128 .Ltmp242-.Lfunc_begin46
	.byte	0
	.uleb128 .Ltmp243-.Lfunc_begin46
	.uleb128 .Ltmp244-.Ltmp243
	.uleb128 .Ltmp245-.Lfunc_begin46
	.byte	1
	.uleb128 .Ltmp244-.Lfunc_begin46
	.uleb128 .Lfunc_end46-.Ltmp244
	.byte	0
	.byte	0
.Lcst_end9:
	.byte	127
	.byte	0
	.p2align	2, 0x0
.Lttbase7:
	.byte	0
	.p2align	2, 0x0

	.section	".text._ZN4core3ptr72drop_in_place$LT$alloc..raw_vec..RawVec$LT$alloc..string..String$GT$$GT$17he682380bfef29f06E","ax",@progbits
	.p2align	4
	.type	_ZN4core3ptr72drop_in_place$LT$alloc..raw_vec..RawVec$LT$alloc..string..String$GT$$GT$17he682380bfef29f06E,@function
_ZN4core3ptr72drop_in_place$LT$alloc..raw_vec..RawVec$LT$alloc..string..String$GT$$GT$17he682380bfef29f06E:
.Lfunc_begin47:
	.loc	28 524 0 is_stmt 1
	.cfi_startproc
	pushq	%rax
	.cfi_def_cfa_offset 16
	movq	%rdi, (%rsp)
.Ltmp248:
	.loc	28 524 1 prologue_end
	callq	_ZN77_$LT$alloc..raw_vec..RawVec$LT$T$C$A$GT$$u20$as$u20$core..ops..drop..Drop$GT$4drop17hea47ee0483169086E
	.loc	28 524 1 epilogue_begin is_stmt 0
	popq	%rax
	.cfi_def_cfa_offset 8
	retq
.Ltmp249:
.Lfunc_end47:
	.size	_ZN4core3ptr72drop_in_place$LT$alloc..raw_vec..RawVec$LT$alloc..string..String$GT$$GT$17he682380bfef29f06E, .Lfunc_end47-_ZN4core3ptr72drop_in_place$LT$alloc..raw_vec..RawVec$LT$alloc..string..String$GT$$GT$17he682380bfef29f06E
	.cfi_endproc

	.section	".text._ZN4core3ptr85drop_in_place$LT$std..rt..lang_start$LT$$LP$$RP$$GT$..$u7b$$u7b$closure$u7d$$u7d$$GT$17hc759818c838087d0E","ax",@progbits
	.p2align	4
	.type	_ZN4core3ptr85drop_in_place$LT$std..rt..lang_start$LT$$LP$$RP$$GT$..$u7b$$u7b$closure$u7d$$u7d$$GT$17hc759818c838087d0E,@function
_ZN4core3ptr85drop_in_place$LT$std..rt..lang_start$LT$$LP$$RP$$GT$..$u7b$$u7b$closure$u7d$$u7d$$GT$17hc759818c838087d0E:
.Lfunc_begin48:
	.loc	28 524 0 is_stmt 1
	.cfi_startproc
	movq	%rdi, -8(%rsp)
.Ltmp250:
	.loc	28 524 1 prologue_end
	retq
.Ltmp251:
.Lfunc_end48:
	.size	_ZN4core3ptr85drop_in_place$LT$std..rt..lang_start$LT$$LP$$RP$$GT$..$u7b$$u7b$closure$u7d$$u7d$$GT$17hc759818c838087d0E, .Lfunc_end48-_ZN4core3ptr85drop_in_place$LT$std..rt..lang_start$LT$$LP$$RP$$GT$..$u7b$$u7b$closure$u7d$$u7d$$GT$17hc759818c838087d0E
	.cfi_endproc

	.section	".text._ZN4core3ptr8non_null16NonNull$LT$T$GT$13new_unchecked18precondition_check17h8685598df8ae8022E","ax",@progbits
	.p2align	4
	.type	_ZN4core3ptr8non_null16NonNull$LT$T$GT$13new_unchecked18precondition_check17h8685598df8ae8022E,@function
_ZN4core3ptr8non_null16NonNull$LT$T$GT$13new_unchecked18precondition_check17h8685598df8ae8022E:
.Lfunc_begin49:
	.loc	2 66 0
	.cfi_startproc
	pushq	%rax
	.cfi_def_cfa_offset 16
	movq	%rdi, (%rsp)
.Ltmp252:
	.loc	19 225 53 prologue_end
	cmpq	$0, %rdi
	jne	.LBB49_2
	.loc	2 68 21
	leaq	.Lanon.60f91fde1ce0e38296af11bc775d42ab.18(%rip), %rdi
	movl	$210, %esi
	callq	*_ZN4core9panicking14panic_nounwind17h0c59dc9f7f043eadE@GOTPCREL(%rip)
.LBB49_2:
	.loc	2 72 14 epilogue_begin
	popq	%rax
	.cfi_def_cfa_offset 8
	retq
.Ltmp253:
.Lfunc_end49:
	.size	_ZN4core3ptr8non_null16NonNull$LT$T$GT$13new_unchecked18precondition_check17h8685598df8ae8022E, .Lfunc_end49-_ZN4core3ptr8non_null16NonNull$LT$T$GT$13new_unchecked18precondition_check17h8685598df8ae8022E
	.cfi_endproc

	.section	".text._ZN4core3ptr8non_null16NonNull$LT$T$GT$20offset_from_unsigned17ha4458222bf4ce327E","ax",@progbits
	.p2align	4
	.type	_ZN4core3ptr8non_null16NonNull$LT$T$GT$20offset_from_unsigned17ha4458222bf4ce327E,@function
_ZN4core3ptr8non_null16NonNull$LT$T$GT$20offset_from_unsigned17ha4458222bf4ce327E:
.Lfunc_begin50:
	.loc	19 905 0
	.cfi_startproc
	subq	$72, %rsp
	.cfi_def_cfa_offset 80
	movq	%rdi, (%rsp)
	movq	%rsi, 8(%rsp)
	movq	%rdi, 16(%rsp)
	movq	%rsi, 24(%rsp)
.Ltmp254:
	.loc	19 391 18 prologue_end
	movq	%rdi, 32(%rsp)
.Ltmp255:
	.loc	19 910 53
	movq	%rsi, 40(%rsp)
.Ltmp256:
	.loc	20 951 18
	movq	%rdi, 48(%rsp)
	.loc	20 0 18 is_stmt 0
	movq	8(%rsp), %rsi
	movq	(%rsp), %rdi
.Ltmp257:
	.loc	2 75 17 is_stmt 1
	callq	_ZN4core3ptr9const_ptr33_$LT$impl$u20$$BP$const$u20$T$GT$20offset_from_unsigned18precondition_check17h24112e5c0f36169dE
.Ltmp258:
	.file	29 "/home/ordyboii/.rustup/toolchains/stable-x86_64-unknown-linux-gnu/lib/rustlib/src/rust/library/core/src/mem" "mod.rs"
	.loc	29 305 5
	movq	$4, 56(%rsp)
.Ltmp259:
	.loc	23 798 37
	jmp	.LBB50_4
.LBB50_4:
	.loc	23 0 37 is_stmt 0
	movq	8(%rsp), %rcx
	movq	(%rsp), %rax
	.loc	23 800 18 is_stmt 1
	subq	%rcx, %rax
	shrq	$2, %rax
	movq	%rax, 64(%rsp)
	movq	64(%rsp), %rax
.Ltmp260:
	.loc	19 911 6 epilogue_begin
	addq	$72, %rsp
	.cfi_def_cfa_offset 8
	retq
.Ltmp261:
.Lfunc_end50:
	.size	_ZN4core3ptr8non_null16NonNull$LT$T$GT$20offset_from_unsigned17ha4458222bf4ce327E, .Lfunc_end50-_ZN4core3ptr8non_null16NonNull$LT$T$GT$20offset_from_unsigned17ha4458222bf4ce327E
	.cfi_endproc

	.section	".text._ZN4core3ptr8non_null16NonNull$LT$T$GT$20offset_from_unsigned17hcbd3a084cf281516E","ax",@progbits
	.p2align	4
	.type	_ZN4core3ptr8non_null16NonNull$LT$T$GT$20offset_from_unsigned17hcbd3a084cf281516E,@function
_ZN4core3ptr8non_null16NonNull$LT$T$GT$20offset_from_unsigned17hcbd3a084cf281516E:
.Lfunc_begin51:
	.loc	19 905 0
	.cfi_startproc
	subq	$72, %rsp
	.cfi_def_cfa_offset 80
	movq	%rdi, (%rsp)
	movq	%rsi, 8(%rsp)
	movq	%rdi, 16(%rsp)
	movq	%rsi, 24(%rsp)
.Ltmp262:
	.loc	19 391 18 prologue_end
	movq	%rdi, 32(%rsp)
.Ltmp263:
	.loc	19 910 53
	movq	%rsi, 40(%rsp)
.Ltmp264:
	.loc	20 951 18
	movq	%rdi, 48(%rsp)
	.loc	20 0 18 is_stmt 0
	movq	8(%rsp), %rsi
	movq	(%rsp), %rdi
.Ltmp265:
	.loc	2 75 17 is_stmt 1
	callq	_ZN4core3ptr9const_ptr33_$LT$impl$u20$$BP$const$u20$T$GT$20offset_from_unsigned18precondition_check17h24112e5c0f36169dE
.Ltmp266:
	.loc	29 305 5
	movq	$24, 56(%rsp)
.Ltmp267:
	.loc	23 798 37
	jmp	.LBB51_4
.LBB51_4:
	.loc	23 0 37 is_stmt 0
	movq	8(%rsp), %rcx
	movq	(%rsp), %rax
	.loc	23 800 18 is_stmt 1
	subq	%rcx, %rax
	movl	$24, %ecx
	xorl	%edx, %edx
	divq	%rcx
	movq	%rax, 64(%rsp)
	movq	64(%rsp), %rax
.Ltmp268:
	.loc	19 911 6 epilogue_begin
	addq	$72, %rsp
	.cfi_def_cfa_offset 8
	retq
.Ltmp269:
.Lfunc_end51:
	.size	_ZN4core3ptr8non_null16NonNull$LT$T$GT$20offset_from_unsigned17hcbd3a084cf281516E, .Lfunc_end51-_ZN4core3ptr8non_null16NonNull$LT$T$GT$20offset_from_unsigned17hcbd3a084cf281516E
	.cfi_endproc

	.section	".text._ZN4core3ptr9const_ptr33_$LT$impl$u20$$BP$const$u20$T$GT$20offset_from_unsigned18precondition_check17h24112e5c0f36169dE","ax",@progbits
	.p2align	4
	.type	_ZN4core3ptr9const_ptr33_$LT$impl$u20$$BP$const$u20$T$GT$20offset_from_unsigned18precondition_check17h24112e5c0f36169dE,@function
_ZN4core3ptr9const_ptr33_$LT$impl$u20$$BP$const$u20$T$GT$20offset_from_unsigned18precondition_check17h24112e5c0f36169dE:
.Lfunc_begin52:
	.loc	2 66 0
	.cfi_startproc
	subq	$24, %rsp
	.cfi_def_cfa_offset 32
	movq	%rdi, 8(%rsp)
	movq	%rsi, 16(%rsp)
.Ltmp270:
	.loc	23 783 21 prologue_end
	cmpq	%rsi, %rdi
.Ltmp271:
	.loc	23 794 18
	jae	.LBB52_2
	.loc	2 68 21
	leaq	.Lanon.60f91fde1ce0e38296af11bc775d42ab.21(%rip), %rdi
	movl	$201, %esi
	callq	*_ZN4core9panicking14panic_nounwind17h0c59dc9f7f043eadE@GOTPCREL(%rip)
.LBB52_2:
	.loc	2 72 14 epilogue_begin
	addq	$24, %rsp
	.cfi_def_cfa_offset 8
	retq
.Ltmp272:
.Lfunc_end52:
	.size	_ZN4core3ptr9const_ptr33_$LT$impl$u20$$BP$const$u20$T$GT$20offset_from_unsigned18precondition_check17h24112e5c0f36169dE, .Lfunc_end52-_ZN4core3ptr9const_ptr33_$LT$impl$u20$$BP$const$u20$T$GT$20offset_from_unsigned18precondition_check17h24112e5c0f36169dE
	.cfi_endproc

	.section	".text._ZN4core3str6traits99_$LT$impl$u20$core..slice..index..SliceIndex$LT$str$GT$$u20$for$u20$core..ops..range..RangeFull$GT$5index17hbd29c3fdf741db5eE","ax",@progbits
	.p2align	4
	.type	_ZN4core3str6traits99_$LT$impl$u20$core..slice..index..SliceIndex$LT$str$GT$$u20$for$u20$core..ops..range..RangeFull$GT$5index17hbd29c3fdf741db5eE,@function
_ZN4core3str6traits99_$LT$impl$u20$core..slice..index..SliceIndex$LT$str$GT$$u20$for$u20$core..ops..range..RangeFull$GT$5index17hbd29c3fdf741db5eE:
.Lfunc_begin53:
	.file	30 "/home/ordyboii/.rustup/toolchains/stable-x86_64-unknown-linux-gnu/lib/rustlib/src/rust/library/core/src/str" "traits.rs"
	.loc	30 114 0
	.cfi_startproc
	movq	%rdx, %rcx
	movq	%rsi, %rdx
	movq	%rdi, %rax
	movq	%rax, -16(%rsp)
	movq	%rdx, -8(%rsp)
.Ltmp273:
	.loc	30 116 6 prologue_end
	retq
.Ltmp274:
.Lfunc_end53:
	.size	_ZN4core3str6traits99_$LT$impl$u20$core..slice..index..SliceIndex$LT$str$GT$$u20$for$u20$core..ops..range..RangeFull$GT$5index17hbd29c3fdf741db5eE, .Lfunc_end53-_ZN4core3str6traits99_$LT$impl$u20$core..slice..index..SliceIndex$LT$str$GT$$u20$for$u20$core..ops..range..RangeFull$GT$5index17hbd29c3fdf741db5eE
	.cfi_endproc

	.section	".text._ZN4core3str74_$LT$impl$u20$core..convert..AsRef$LT$$u5b$u8$u5d$$GT$$u20$for$u20$str$GT$6as_ref17h71122c9018f4e328E","ax",@progbits
	.p2align	4
	.type	_ZN4core3str74_$LT$impl$u20$core..convert..AsRef$LT$$u5b$u8$u5d$$GT$$u20$for$u20$str$GT$6as_ref17h71122c9018f4e328E,@function
_ZN4core3str74_$LT$impl$u20$core..convert..AsRef$LT$$u5b$u8$u5d$$GT$$u20$for$u20$str$GT$6as_ref17h71122c9018f4e328E:
.Lfunc_begin54:
	.file	31 "/home/ordyboii/.rustup/toolchains/stable-x86_64-unknown-linux-gnu/lib/rustlib/src/rust/library/core/src/str" "mod.rs"
	.loc	31 2962 0
	.cfi_startproc
	movq	%rsi, %rdx
	movq	%rdi, %rax
	movq	%rax, -16(%rsp)
	movq	%rdx, -8(%rsp)
.Ltmp275:
	.loc	31 2964 6 prologue_end
	retq
.Ltmp276:
.Lfunc_end54:
	.size	_ZN4core3str74_$LT$impl$u20$core..convert..AsRef$LT$$u5b$u8$u5d$$GT$$u20$for$u20$str$GT$6as_ref17h71122c9018f4e328E, .Lfunc_end54-_ZN4core3str74_$LT$impl$u20$core..convert..AsRef$LT$$u5b$u8$u5d$$GT$$u20$for$u20$str$GT$6as_ref17h71122c9018f4e328E
	.cfi_endproc

	.section	.text._ZN4core4char7methods25encode_utf8_raw_unchecked17h04cf10591b4891f0E,"ax",@progbits
	.p2align	4
	.type	_ZN4core4char7methods25encode_utf8_raw_unchecked17h04cf10591b4891f0E,@function
_ZN4core4char7methods25encode_utf8_raw_unchecked17h04cf10591b4891f0E:
.Lfunc_begin55:
	.file	32 "/home/ordyboii/.rustup/toolchains/stable-x86_64-unknown-linux-gnu/lib/rustlib/src/rust/library/core/src/char" "methods.rs"
	.loc	32 1844 0
	.cfi_startproc
	movl	%edi, -84(%rsp)
	movq	%rsi, -80(%rsp)
	movl	%edi, -60(%rsp)
	movq	%rsi, -56(%rsp)
.Ltmp277:
	.loc	20 1022 35 prologue_end
	movq	$1, -48(%rsp)
.Ltmp278:
	.loc	20 1022 35 is_stmt 0
	movq	$1, -40(%rsp)
.Ltmp279:
	.loc	20 1022 35
	movq	$1, -32(%rsp)
.Ltmp280:
	.loc	20 1022 35
	movq	$2, -24(%rsp)
.Ltmp281:
	.loc	20 1022 35
	movq	$2, -16(%rsp)
.Ltmp282:
	.loc	20 1022 35
	movq	$3, -8(%rsp)
.Ltmp283:
	.loc	32 1778 9 is_stmt 1
	cmpl	$128, %edi
	jb	.LBB55_2
	.loc	32 0 9 is_stmt 0
	movl	-84(%rsp), %eax
	.loc	32 1779 9 is_stmt 1
	cmpl	$2048, %eax
	jb	.LBB55_4
	jmp	.LBB55_3
.LBB55_2:
	.loc	32 0 9 is_stmt 0
	movq	-80(%rsp), %rax
	movl	-84(%rsp), %ecx
	.loc	32 1778 24 is_stmt 1
	movq	$1, -72(%rsp)
.Ltmp284:
	.loc	32 1851 17
	movb	%cl, (%rax)
	.loc	32 1850 18
	jmp	.LBB55_7
.Ltmp285:
.LBB55_3:
	.loc	32 0 18 is_stmt 0
	movl	-84(%rsp), %eax
.Ltmp286:
	.loc	32 1780 9 is_stmt 1
	cmpl	$65536, %eax
	jb	.LBB55_6
	jmp	.LBB55_5
.LBB55_4:
	.loc	32 0 9 is_stmt 0
	movq	-80(%rsp), %rax
	movl	-84(%rsp), %ecx
	.loc	32 1779 24 is_stmt 1
	movq	$2, -72(%rsp)
.Ltmp287:
	.loc	32 1854 25
	movl	%ecx, %edx
	shrl	$6, %edx
	.loc	32 1854 24 is_stmt 0
	andl	$31, %edx
	.loc	32 1854 17
	orb	$-64, %dl
	movb	%dl, (%rax)
	.loc	32 1855 31 is_stmt 1
	andl	$63, %ecx
	.loc	32 1855 17 is_stmt 0
	orb	$-128, %cl
	movb	%cl, 1(%rax)
	.loc	32 1853 18 is_stmt 1
	jmp	.LBB55_7
.Ltmp288:
.LBB55_5:
	.loc	32 0 18 is_stmt 0
	movq	-80(%rsp), %rax
	movl	-84(%rsp), %ecx
.Ltmp289:
	.loc	32 1781 14 is_stmt 1
	movq	$4, -72(%rsp)
.Ltmp290:
	.loc	32 1863 25
	movl	%ecx, %edx
	shrl	$18, %edx
	.loc	32 1863 24 is_stmt 0
	andl	$7, %edx
	.loc	32 1863 17
	orb	$-16, %dl
	movb	%dl, (%rax)
	.loc	32 1864 32 is_stmt 1
	movl	%ecx, %edx
	shrl	$12, %edx
	.loc	32 1864 31 is_stmt 0
	andl	$63, %edx
	.loc	32 1864 17
	orb	$-128, %dl
	movb	%dl, 1(%rax)
	.loc	32 1865 32 is_stmt 1
	movl	%ecx, %edx
	shrl	$6, %edx
	.loc	32 1865 31 is_stmt 0
	andl	$63, %edx
	.loc	32 1865 17
	orb	$-128, %dl
	movb	%dl, 2(%rax)
	.loc	32 1866 31 is_stmt 1
	andl	$63, %ecx
	.loc	32 1866 17 is_stmt 0
	orb	$-128, %cl
	movb	%cl, 3(%rax)
	.loc	32 1862 18 is_stmt 1
	jmp	.LBB55_7
.Ltmp291:
.LBB55_6:
	.loc	32 0 18 is_stmt 0
	movq	-80(%rsp), %rax
	movl	-84(%rsp), %ecx
.Ltmp292:
	.loc	32 1780 26 is_stmt 1
	movq	$3, -72(%rsp)
.Ltmp293:
	.loc	32 1858 25
	movl	%ecx, %edx
	shrl	$12, %edx
	.loc	32 1858 24 is_stmt 0
	andl	$15, %edx
	.loc	32 1858 17
	orb	$-32, %dl
	movb	%dl, (%rax)
	.loc	32 1859 32 is_stmt 1
	movl	%ecx, %edx
	shrl	$6, %edx
	.loc	32 1859 31 is_stmt 0
	andl	$63, %edx
	.loc	32 1859 17
	orb	$-128, %dl
	movb	%dl, 1(%rax)
	.loc	32 1860 31 is_stmt 1
	andl	$63, %ecx
	.loc	32 1860 17 is_stmt 0
	orb	$-128, %cl
	movb	%cl, 2(%rax)
.Ltmp294:
.LBB55_7:
	.loc	32 1872 2 is_stmt 1
	retq
.Ltmp295:
.Lfunc_end55:
	.size	_ZN4core4char7methods25encode_utf8_raw_unchecked17h04cf10591b4891f0E, .Lfunc_end55-_ZN4core4char7methods25encode_utf8_raw_unchecked17h04cf10591b4891f0E
	.cfi_endproc

	.section	.text._ZN4core4hint16assert_unchecked18precondition_check17h6c4500abb4304a0aE,"ax",@progbits
	.p2align	4
	.type	_ZN4core4hint16assert_unchecked18precondition_check17h6c4500abb4304a0aE,@function
_ZN4core4hint16assert_unchecked18precondition_check17h6c4500abb4304a0aE:
.Lfunc_begin56:
	.loc	2 66 0
	.cfi_startproc
	pushq	%rax
	.cfi_def_cfa_offset 16
	movb	%dil, %al
	movb	%al, %cl
	andb	$1, %cl
	movb	%cl, 7(%rsp)
.Ltmp296:
	.loc	13 207 36 prologue_end
	testb	$1, %al
	jne	.LBB56_2
	.loc	2 68 21
	leaq	.Lanon.60f91fde1ce0e38296af11bc775d42ab.22(%rip), %rdi
	movl	$221, %esi
	callq	*_ZN4core9panicking14panic_nounwind17h0c59dc9f7f043eadE@GOTPCREL(%rip)
.LBB56_2:
	.loc	2 72 14 epilogue_begin
	popq	%rax
	.cfi_def_cfa_offset 8
	retq
.Ltmp297:
.Lfunc_end56:
	.size	_ZN4core4hint16assert_unchecked18precondition_check17h6c4500abb4304a0aE, .Lfunc_end56-_ZN4core4hint16assert_unchecked18precondition_check17h6c4500abb4304a0aE
	.cfi_endproc

	.section	".text._ZN4core4iter5range101_$LT$impl$u20$core..iter..traits..iterator..Iterator$u20$for$u20$core..ops..range..Range$LT$A$GT$$GT$4next17he35c67ed537ac736E","ax",@progbits
	.p2align	4
	.type	_ZN4core4iter5range101_$LT$impl$u20$core..iter..traits..iterator..Iterator$u20$for$u20$core..ops..range..Range$LT$A$GT$$GT$4next17he35c67ed537ac736E,@function
_ZN4core4iter5range101_$LT$impl$u20$core..iter..traits..iterator..Iterator$u20$for$u20$core..ops..range..Range$LT$A$GT$$GT$4next17he35c67ed537ac736E:
.Lfunc_begin57:
	.loc	16 848 0
	.cfi_startproc
	pushq	%rax
	.cfi_def_cfa_offset 16
	movq	%rdi, (%rsp)
.Ltmp298:
	.loc	16 849 9 prologue_end
	callq	_ZN89_$LT$core..ops..range..Range$LT$T$GT$$u20$as$u20$core..iter..range..RangeIteratorImpl$GT$9spec_next17ha0223fad9d4aac6cE
	.loc	16 850 6 epilogue_begin
	popq	%rcx
	.cfi_def_cfa_offset 8
	retq
.Ltmp299:
.Lfunc_end57:
	.size	_ZN4core4iter5range101_$LT$impl$u20$core..iter..traits..iterator..Iterator$u20$for$u20$core..ops..range..Range$LT$A$GT$$GT$4next17he35c67ed537ac736E, .Lfunc_end57-_ZN4core4iter5range101_$LT$impl$u20$core..iter..traits..iterator..Iterator$u20$for$u20$core..ops..range..Range$LT$A$GT$$GT$4next17he35c67ed537ac736E
	.cfi_endproc

	.section	.text._ZN4core4iter6traits8iterator8Iterator3map17h877e643b8f923229E,"ax",@progbits
	.p2align	4
	.type	_ZN4core4iter6traits8iterator8Iterator3map17h877e643b8f923229E,@function
_ZN4core4iter6traits8iterator8Iterator3map17h877e643b8f923229E:
.Lfunc_begin58:
	.file	33 "/home/ordyboii/.rustup/toolchains/stable-x86_64-unknown-linux-gnu/lib/rustlib/src/rust/library/core/src/iter/traits" "iterator.rs"
	.loc	33 746 0
	.cfi_startproc
	movq	%rsi, %rdx
	movq	%rdi, %rax
	movq	%rax, -24(%rsp)
	movq	%rdx, -16(%rsp)
.Ltmp300:
	.loc	33 752 6 prologue_end
	retq
.Ltmp301:
.Lfunc_end58:
	.size	_ZN4core4iter6traits8iterator8Iterator3map17h877e643b8f923229E, .Lfunc_end58-_ZN4core4iter6traits8iterator8Iterator3map17h877e643b8f923229E
	.cfi_endproc

	.section	.text._ZN4core4iter6traits8iterator8Iterator7collect17h1d3191f08037c02cE,"ax",@progbits
	.p2align	4
	.type	_ZN4core4iter6traits8iterator8Iterator7collect17h1d3191f08037c02cE,@function
_ZN4core4iter6traits8iterator8Iterator7collect17h1d3191f08037c02cE:
.Lfunc_begin59:
	.loc	33 1988 0
	.cfi_startproc
	.cfi_personality 155, DW.ref.rust_eh_personality
	.cfi_lsda 27, .Lexception10
	subq	$56, %rsp
	.cfi_def_cfa_offset 64
	movq	%rdi, %rax
	movq	%rax, 8(%rsp)
	movq	%rsi, 16(%rsp)
	movq	%rdx, 24(%rsp)
.Ltmp305:
	.loc	5 250 9 prologue_end
	leaq	.Lanon.60f91fde1ce0e38296af11bc775d42ab.24(%rip), %rax
	movq	%rax, 32(%rsp)
.Ltmp306:
.Ltmp302:
	.loc	33 2001 9
	leaq	.Lanon.60f91fde1ce0e38296af11bc775d42ab.26(%rip), %rcx
	callq	_ZN95_$LT$alloc..vec..Vec$LT$T$GT$$u20$as$u20$core..iter..traits..collect..FromIterator$LT$T$GT$$GT$9from_iter17h49f7dcdc528fee37E
.Ltmp303:
	jmp	.LBB59_3
.LBB59_1:
	.loc	33 2002 5
	jmp	.LBB59_4
.LBB59_2:
.Ltmp304:
	.loc	33 0 5 is_stmt 0
	movq	%rax, %rcx
	movl	%edx, %eax
	movq	%rcx, 40(%rsp)
	movl	%eax, 48(%rsp)
	jmp	.LBB59_1
.LBB59_3:
	movq	8(%rsp), %rax
	.loc	33 2002 6 epilogue_begin is_stmt 1
	addq	$56, %rsp
	.cfi_def_cfa_offset 8
	retq
.LBB59_4:
	.cfi_def_cfa_offset 64
	.loc	33 1988 5
	movq	40(%rsp), %rdi
	callq	_Unwind_Resume@PLT
.Ltmp307:
.Lfunc_end59:
	.size	_ZN4core4iter6traits8iterator8Iterator7collect17h1d3191f08037c02cE, .Lfunc_end59-_ZN4core4iter6traits8iterator8Iterator7collect17h1d3191f08037c02cE
	.cfi_endproc
	.section	.gcc_except_table._ZN4core4iter6traits8iterator8Iterator7collect17h1d3191f08037c02cE,"a",@progbits
	.p2align	2, 0x0
GCC_except_table59:
.Lexception10:
	.byte	255
	.byte	255
	.byte	1
	.uleb128 .Lcst_end10-.Lcst_begin10
.Lcst_begin10:
	.uleb128 .Ltmp302-.Lfunc_begin59
	.uleb128 .Ltmp303-.Ltmp302
	.uleb128 .Ltmp304-.Lfunc_begin59
	.byte	0
	.uleb128 .Ltmp303-.Lfunc_begin59
	.uleb128 .Lfunc_end59-.Ltmp303
	.byte	0
	.byte	0
.Lcst_end10:
	.p2align	2, 0x0

	.section	.text._ZN4core4iter6traits8iterator8Iterator8for_each17hef99ee47313b5ea3E,"ax",@progbits
	.p2align	4
	.type	_ZN4core4iter6traits8iterator8Iterator8for_each17hef99ee47313b5ea3E,@function
_ZN4core4iter6traits8iterator8Iterator8for_each17hef99ee47313b5ea3E:
.Lfunc_begin60:
	.loc	33 791 0
	.cfi_startproc
	subq	$40, %rsp
	.cfi_def_cfa_offset 48
	movq	%rdi, 24(%rsp)
	movq	%rsi, 32(%rsp)
.Ltmp308:
	.loc	33 798 13 prologue_end
	movq	(%rdx), %rax
	movq	%rax, (%rsp)
	movq	8(%rdx), %rax
	movq	%rax, 8(%rsp)
	movq	16(%rdx), %rax
	movq	%rax, 16(%rsp)
.Ltmp309:
	.loc	33 801 9
	movq	%rsp, %rdx
.Ltmp310:
	callq	_ZN102_$LT$core..iter..adapters..map..Map$LT$I$C$F$GT$$u20$as$u20$core..iter..traits..iterator..Iterator$GT$4fold17h7ddcd6cc84702cbbE
	.loc	33 802 6 epilogue_begin
	addq	$40, %rsp
	.cfi_def_cfa_offset 8
	retq
.Ltmp311:
.Lfunc_end60:
	.size	_ZN4core4iter6traits8iterator8Iterator8for_each17hef99ee47313b5ea3E, .Lfunc_end60-_ZN4core4iter6traits8iterator8Iterator8for_each17hef99ee47313b5ea3E
	.cfi_endproc

	.section	".text._ZN4core4iter6traits8iterator8Iterator8for_each4call28_$u7b$$u7b$closure$u7d$$u7d$17h269c78c52d4b5274E","ax",@progbits
	.p2align	4
	.type	_ZN4core4iter6traits8iterator8Iterator8for_each4call28_$u7b$$u7b$closure$u7d$$u7d$17h269c78c52d4b5274E,@function
_ZN4core4iter6traits8iterator8Iterator8for_each4call28_$u7b$$u7b$closure$u7d$$u7d$17h269c78c52d4b5274E:
.Lfunc_begin61:
	.loc	33 798 0
	.cfi_startproc
	subq	$40, %rsp
	.cfi_def_cfa_offset 48
	movq	%rdi, 24(%rsp)
.Ltmp312:
	.loc	33 798 29 prologue_end
	movq	(%rsi), %rax
	movq	%rax, (%rsp)
	movq	8(%rsi), %rax
	movq	%rax, 8(%rsp)
	movq	16(%rsi), %rax
	movq	%rax, 16(%rsp)
	movq	%rsp, %rsi
.Ltmp313:
	callq	_ZN5alloc3vec16Vec$LT$T$C$A$GT$14extend_trusted28_$u7b$$u7b$closure$u7d$$u7d$17h0e34822aec13d404E
	.loc	33 798 36 epilogue_begin is_stmt 0
	addq	$40, %rsp
	.cfi_def_cfa_offset 8
	retq
.Ltmp314:
.Lfunc_end61:
	.size	_ZN4core4iter6traits8iterator8Iterator8for_each4call28_$u7b$$u7b$closure$u7d$$u7d$17h269c78c52d4b5274E, .Lfunc_end61-_ZN4core4iter6traits8iterator8Iterator8for_each4call28_$u7b$$u7b$closure$u7d$$u7d$17h269c78c52d4b5274E
	.cfi_endproc

	.section	.text._ZN4core4iter6traits8iterator8Iterator8try_fold17hf7ef6b6ec9529151E,"ax",@progbits
	.p2align	4
	.type	_ZN4core4iter6traits8iterator8Iterator8try_fold17hf7ef6b6ec9529151E,@function
_ZN4core4iter6traits8iterator8Iterator8try_fold17hf7ef6b6ec9529151E:
.Lfunc_begin62:
	.loc	33 2392 0 is_stmt 1
	.cfi_startproc
	.cfi_personality 155, DW.ref.rust_eh_personality
	.cfi_lsda 27, .Lexception11
	subq	$200, %rsp
	.cfi_def_cfa_offset 208
	movq	%rdi, 72(%rsp)
	movq	%rdx, 80(%rsp)
	movq	%rdi, 144(%rsp)
	movq	%rsi, 152(%rsp)
.Ltmp326:
	.loc	33 2398 25 prologue_end
	movb	$1, 143(%rsp)
	movq	%rsi, 104(%rsp)
.LBB62_1:
.Ltmp315:
	.loc	33 0 25 is_stmt 0
	movq	72(%rsp), %rdi
.Ltmp327:
	.loc	33 2399 29 is_stmt 1
	callq	_ZN91_$LT$core..slice..iter..Iter$LT$T$GT$$u20$as$u20$core..iter..traits..iterator..Iterator$GT$4next17h7af0fbcb442ddb87E
.Ltmp316:
	movq	%rax, 64(%rsp)
	jmp	.LBB62_4
.Ltmp328:
.LBB62_2:
	.loc	33 2403 5
	testb	$1, 143(%rsp)
	jne	.LBB62_16
	jmp	.LBB62_15
.LBB62_3:
.Ltmp325:
	.loc	33 0 5 is_stmt 0
	movq	%rax, %rcx
	movl	%edx, %eax
	movq	%rcx, 168(%rsp)
	movl	%eax, 176(%rsp)
	jmp	.LBB62_2
.LBB62_4:
	movq	64(%rsp), %rax
.Ltmp329:
	.loc	33 2399 29 is_stmt 1
	movq	%rax, 112(%rsp)
	movq	112(%rsp), %rdx
	movl	$1, %eax
	xorl	%ecx, %ecx
	cmpq	$0, %rdx
	cmoveq	%rcx, %rax
	.loc	33 2399 19 is_stmt 0
	testq	$1, %rax
	je	.LBB62_6
	.loc	33 2399 24
	movq	112(%rsp), %rdx
	movq	%rdx, 184(%rsp)
	.loc	33 2400 23 is_stmt 1
	movb	$0, 143(%rsp)
	movq	104(%rsp), %rsi
.Ltmp319:
	leaq	80(%rsp), %rdi
	.loc	33 2400 21 is_stmt 0
	callq	_ZN4core4iter8adapters3map12map_try_fold28_$u7b$$u7b$closure$u7d$$u7d$17h1864a877c4d80d77E
.Ltmp320:
	movq	%rdx, 48(%rsp)
	movq	%rax, 56(%rsp)
	jmp	.LBB62_7
.Ltmp330:
.LBB62_6:
	.loc	33 2401 9 is_stmt 1
	jmp	.LBB62_13
.LBB62_7:
.Ltmp321:
	.loc	33 0 9 is_stmt 0
	movq	48(%rsp), %rsi
	movq	56(%rsp), %rdi
.Ltmp331:
	.loc	33 2400 21 is_stmt 1
	callq	_ZN75_$LT$core..option..Option$LT$T$GT$$u20$as$u20$core..ops..try_trait..Try$GT$6branch17h87679cd9f9961d81E
.Ltmp322:
	movq	%rdx, 32(%rsp)
	movq	%rax, 40(%rsp)
	jmp	.LBB62_8
.LBB62_8:
	.loc	33 0 21 is_stmt 0
	movq	32(%rsp), %rax
	movq	40(%rsp), %rcx
	.loc	33 2400 21
	movq	%rcx, 120(%rsp)
	movq	%rax, 128(%rsp)
	testq	$1, 120(%rsp)
	je	.LBB62_10
.Ltmp323:
.Ltmp332:
	.loc	33 2400 21
	callq	_ZN145_$LT$core..option..Option$LT$T$GT$$u20$as$u20$core..ops..try_trait..FromResidual$LT$core..option..Option$LT$core..convert..Infallible$GT$$GT$$GT$13from_residual17h60ff51a2c2ccc921E
.Ltmp324:
	movq	%rdx, 16(%rsp)
	movq	%rax, 24(%rsp)
	jmp	.LBB62_11
.Ltmp333:
.LBB62_10:
	.loc	33 2400 21
	movq	128(%rsp), %rax
	movq	%rax, 192(%rsp)
	.loc	33 2400 13
	movb	$1, 143(%rsp)
	movq	%rax, 104(%rsp)
.Ltmp334:
	.loc	33 2399 9 is_stmt 1
	jmp	.LBB62_1
.LBB62_11:
	.loc	33 0 9 is_stmt 0
	movq	16(%rsp), %rax
	movq	24(%rsp), %rcx
.Ltmp335:
	.loc	33 2400 21 is_stmt 1
	movq	%rcx, 88(%rsp)
	movq	%rax, 96(%rsp)
.Ltmp336:
.LBB62_12:
	.loc	33 2403 6
	movq	88(%rsp), %rax
	movq	96(%rsp), %rdx
	.loc	33 2403 6 epilogue_begin is_stmt 0
	addq	$200, %rsp
	.cfi_def_cfa_offset 8
	retq
.LBB62_13:
	.cfi_def_cfa_offset 208
.Ltmp337:
	.loc	33 2402 15 is_stmt 1
	movb	$0, 143(%rsp)
	movq	104(%rsp), %rdi
.Ltmp317:
	callq	_ZN75_$LT$core..option..Option$LT$T$GT$$u20$as$u20$core..ops..try_trait..Try$GT$11from_output17hd32445ccf91095ceE
.Ltmp318:
	movq	%rdx, (%rsp)
	movq	%rax, 8(%rsp)
	jmp	.LBB62_14
.LBB62_14:
	.loc	33 0 15 is_stmt 0
	movq	(%rsp), %rax
	movq	8(%rsp), %rcx
	.loc	33 2402 15
	movq	%rcx, 88(%rsp)
	movq	%rax, 96(%rsp)
.Ltmp338:
	.loc	33 2403 5 is_stmt 1
	jmp	.LBB62_12
.LBB62_15:
	.loc	33 2392 5
	movq	168(%rsp), %rdi
	callq	_Unwind_Resume@PLT
.LBB62_16:
	.loc	33 2403 5
	jmp	.LBB62_15
.Ltmp339:
.Lfunc_end62:
	.size	_ZN4core4iter6traits8iterator8Iterator8try_fold17hf7ef6b6ec9529151E, .Lfunc_end62-_ZN4core4iter6traits8iterator8Iterator8try_fold17hf7ef6b6ec9529151E
	.cfi_endproc
	.section	.gcc_except_table._ZN4core4iter6traits8iterator8Iterator8try_fold17hf7ef6b6ec9529151E,"a",@progbits
	.p2align	2, 0x0
GCC_except_table62:
.Lexception11:
	.byte	255
	.byte	255
	.byte	1
	.uleb128 .Lcst_end11-.Lcst_begin11
.Lcst_begin11:
	.uleb128 .Ltmp315-.Lfunc_begin62
	.uleb128 .Ltmp318-.Ltmp315
	.uleb128 .Ltmp325-.Lfunc_begin62
	.byte	0
	.uleb128 .Ltmp318-.Lfunc_begin62
	.uleb128 .Lfunc_end62-.Ltmp318
	.byte	0
	.byte	0
.Lcst_end11:
	.p2align	2, 0x0

	.section	".text._ZN4core4iter8adapters3map12map_try_fold28_$u7b$$u7b$closure$u7d$$u7d$17h1864a877c4d80d77E","ax",@progbits
	.p2align	4
	.type	_ZN4core4iter8adapters3map12map_try_fold28_$u7b$$u7b$closure$u7d$$u7d$17h1864a877c4d80d77E,@function
_ZN4core4iter8adapters3map12map_try_fold28_$u7b$$u7b$closure$u7d$$u7d$17h1864a877c4d80d77E:
.Lfunc_begin63:
	.loc	1 95 0
	.cfi_startproc
	.cfi_personality 155, DW.ref.rust_eh_personality
	.cfi_lsda 27, .Lexception12
	subq	$104, %rsp
	.cfi_def_cfa_offset 112
	movq	%rdx, 24(%rsp)
	movq	%rsi, %rax
	movq	24(%rsp), %rsi
	movq	%rax, 32(%rsp)
	movq	%rdi, 64(%rsp)
	movq	%rax, 72(%rsp)
	movq	%rsi, 80(%rsp)
.Ltmp345:
	.loc	1 95 21 prologue_end
	movq	%rdi, %rax
	addq	$8, %rax
	movq	%rax, 40(%rsp)
	.loc	1 95 23 is_stmt 0
	movb	$1, 63(%rsp)
	.loc	1 95 28
	movq	(%rdi), %rdi
.Ltmp340:
	callq	_ZN5alloc3str17join_generic_copy28_$u7b$$u7b$closure$u7d$$u7d$28_$u7b$$u7b$closure$u7d$$u7d$17h6e73de9decd2f227E
.Ltmp341:
	movq	%rax, 48(%rsp)
	jmp	.LBB63_3
.LBB63_1:
	.loc	1 95 34 is_stmt 1
	testb	$1, 63(%rsp)
	jne	.LBB63_6
	jmp	.LBB63_5
.LBB63_2:
.Ltmp344:
	.loc	1 0 34 is_stmt 0
	movq	%rax, %rcx
	movl	%edx, %eax
	movq	%rcx, 88(%rsp)
	movl	%eax, 96(%rsp)
	jmp	.LBB63_1
.LBB63_3:
	movq	48(%rsp), %rdx
	movq	32(%rsp), %rsi
	movq	40(%rsp), %rdi
	.loc	1 95 21
	movb	$0, 63(%rsp)
.Ltmp342:
	callq	_ZN4core3ops8function5FnMut8call_mut17h65bb3e4f9c8cdaefE
.Ltmp343:
	movq	%rdx, 8(%rsp)
	movq	%rax, 16(%rsp)
	jmp	.LBB63_4
.LBB63_4:
	.loc	1 0 21
	movq	8(%rsp), %rdx
	movq	16(%rsp), %rax
	.loc	1 95 35 epilogue_begin
	addq	$104, %rsp
	.cfi_def_cfa_offset 8
	retq
.LBB63_5:
	.cfi_def_cfa_offset 112
	.loc	1 95 5
	movq	88(%rsp), %rdi
	callq	_Unwind_Resume@PLT
.LBB63_6:
	.loc	1 95 34
	jmp	.LBB63_5
.Ltmp346:
.Lfunc_end63:
	.size	_ZN4core4iter8adapters3map12map_try_fold28_$u7b$$u7b$closure$u7d$$u7d$17h1864a877c4d80d77E, .Lfunc_end63-_ZN4core4iter8adapters3map12map_try_fold28_$u7b$$u7b$closure$u7d$$u7d$17h1864a877c4d80d77E
	.cfi_endproc
	.section	".gcc_except_table._ZN4core4iter8adapters3map12map_try_fold28_$u7b$$u7b$closure$u7d$$u7d$17h1864a877c4d80d77E","a",@progbits
	.p2align	2, 0x0
GCC_except_table63:
.Lexception12:
	.byte	255
	.byte	255
	.byte	1
	.uleb128 .Lcst_end12-.Lcst_begin12
.Lcst_begin12:
	.uleb128 .Ltmp340-.Lfunc_begin63
	.uleb128 .Ltmp343-.Ltmp340
	.uleb128 .Ltmp344-.Lfunc_begin63
	.byte	0
	.uleb128 .Ltmp343-.Lfunc_begin63
	.uleb128 .Lfunc_end63-.Ltmp343
	.byte	0
	.byte	0
.Lcst_end12:
	.p2align	2, 0x0

	.section	".text._ZN4core4iter8adapters3map8map_fold28_$u7b$$u7b$closure$u7d$$u7d$17hb5599f03e89b5cb5E","ax",@progbits
	.p2align	4
	.type	_ZN4core4iter8adapters3map8map_fold28_$u7b$$u7b$closure$u7d$$u7d$17hb5599f03e89b5cb5E,@function
_ZN4core4iter8adapters3map8map_fold28_$u7b$$u7b$closure$u7d$$u7d$17hb5599f03e89b5cb5E:
.Lfunc_begin64:
	.loc	1 88 0 is_stmt 1
	.cfi_startproc
	.cfi_personality 155, DW.ref.rust_eh_personality
	.cfi_lsda 27, .Lexception13
	subq	$120, %rsp
	.cfi_def_cfa_offset 128
	movq	%rsi, %rdx
	movq	%rdi, %rsi
	movq	%rsi, 8(%rsp)
	movq	%rsi, 80(%rsp)
	movq	%rdx, 96(%rsp)
.Ltmp352:
	.loc	1 88 23 prologue_end
	movb	$1, 79(%rsp)
	.loc	1 88 28 is_stmt 0
	addq	$24, %rsi
.Ltmp347:
	leaq	48(%rsp), %rdi
	callq	_ZN9variables18fibonacci_sequence28_$u7b$$u7b$closure$u7d$$u7d$17he8b43739014e79d5E
.Ltmp348:
	jmp	.LBB64_3
.LBB64_1:
	.loc	1 88 34 is_stmt 1
	testb	$1, 79(%rsp)
	jne	.LBB64_6
	jmp	.LBB64_5
.LBB64_2:
.Ltmp351:
	.loc	1 0 34 is_stmt 0
	movq	%rax, %rcx
	movl	%edx, %eax
	movq	%rcx, 104(%rsp)
	movl	%eax, 112(%rsp)
	jmp	.LBB64_1
.LBB64_3:
	movq	8(%rsp), %rdi
	.loc	1 88 21
	movb	$0, 79(%rsp)
	movq	64(%rsp), %rax
	movq	%rax, 32(%rsp)
	movups	48(%rsp), %xmm0
	movaps	%xmm0, 16(%rsp)
.Ltmp349:
	leaq	16(%rsp), %rsi
	callq	_ZN4core4iter6traits8iterator8Iterator8for_each4call28_$u7b$$u7b$closure$u7d$$u7d$17h269c78c52d4b5274E
.Ltmp350:
	jmp	.LBB64_4
.LBB64_4:
	.loc	1 88 35 epilogue_begin
	addq	$120, %rsp
	.cfi_def_cfa_offset 8
	retq
.LBB64_5:
	.cfi_def_cfa_offset 128
	.loc	1 88 5
	movq	104(%rsp), %rdi
	callq	_Unwind_Resume@PLT
.LBB64_6:
	.loc	1 88 34
	jmp	.LBB64_5
.Ltmp353:
.Lfunc_end64:
	.size	_ZN4core4iter8adapters3map8map_fold28_$u7b$$u7b$closure$u7d$$u7d$17hb5599f03e89b5cb5E, .Lfunc_end64-_ZN4core4iter8adapters3map8map_fold28_$u7b$$u7b$closure$u7d$$u7d$17hb5599f03e89b5cb5E
	.cfi_endproc
	.section	".gcc_except_table._ZN4core4iter8adapters3map8map_fold28_$u7b$$u7b$closure$u7d$$u7d$17hb5599f03e89b5cb5E","a",@progbits
	.p2align	2, 0x0
GCC_except_table64:
.Lexception13:
	.byte	255
	.byte	255
	.byte	1
	.uleb128 .Lcst_end13-.Lcst_begin13
.Lcst_begin13:
	.uleb128 .Ltmp347-.Lfunc_begin64
	.uleb128 .Ltmp350-.Ltmp347
	.uleb128 .Ltmp351-.Lfunc_begin64
	.byte	0
	.uleb128 .Ltmp350-.Lfunc_begin64
	.uleb128 .Lfunc_end64-.Ltmp350
	.byte	0
	.byte	0
.Lcst_end13:
	.p2align	2, 0x0

	.section	.text._ZN4core5alloc6layout6Layout25from_size_align_unchecked18precondition_check17h53072e6af1582a53E,"ax",@progbits
	.p2align	4
	.type	_ZN4core5alloc6layout6Layout25from_size_align_unchecked18precondition_check17h53072e6af1582a53E,@function
_ZN4core5alloc6layout6Layout25from_size_align_unchecked18precondition_check17h53072e6af1582a53E:
.Lfunc_begin65:
	.loc	2 66 0 is_stmt 1
	.cfi_startproc
	.cfi_personality 155, DW.ref.rust_eh_personality
	.cfi_lsda 27, .Lexception14
	subq	$24, %rsp
	.cfi_def_cfa_offset 32
	movq	%rdi, 8(%rsp)
	movq	%rsi, 16(%rsp)
.Ltmp354:
.Ltmp357:
	.file	34 "/home/ordyboii/.rustup/toolchains/stable-x86_64-unknown-linux-gnu/lib/rustlib/src/rust/library/core/src/alloc" "layout.rs"
	.loc	34 137 18 prologue_end
	movq	_ZN4core5alloc6layout6Layout19is_size_align_valid17h31bb701b0d172f18E@GOTPCREL(%rip), %rax
	callq	*%rax
.Ltmp355:
	movb	%al, 7(%rsp)
	jmp	.LBB65_2
.LBB65_1:
.Ltmp356:
	.loc	2 66 13
	callq	*_ZN4core9panicking19panic_cannot_unwind17hb8732afd89555502E@GOTPCREL(%rip)
.LBB65_2:
	.loc	2 0 13 is_stmt 0
	movb	7(%rsp), %al
	.loc	34 137 18 is_stmt 1
	testb	$1, %al
	jne	.LBB65_4
	jmp	.LBB65_3
.LBB65_3:
	.loc	2 68 21
	leaq	.Lanon.60f91fde1ce0e38296af11bc775d42ab.27(%rip), %rdi
	movl	$281, %esi
	callq	*_ZN4core9panicking14panic_nounwind17h0c59dc9f7f043eadE@GOTPCREL(%rip)
.LBB65_4:
	.loc	2 72 14 epilogue_begin
	addq	$24, %rsp
	.cfi_def_cfa_offset 8
	retq
.Ltmp358:
.Lfunc_end65:
	.size	_ZN4core5alloc6layout6Layout25from_size_align_unchecked18precondition_check17h53072e6af1582a53E, .Lfunc_end65-_ZN4core5alloc6layout6Layout25from_size_align_unchecked18precondition_check17h53072e6af1582a53E
	.cfi_endproc
	.section	.gcc_except_table._ZN4core5alloc6layout6Layout25from_size_align_unchecked18precondition_check17h53072e6af1582a53E,"a",@progbits
	.p2align	2, 0x0
GCC_except_table65:
.Lexception14:
	.byte	255
	.byte	155
	.uleb128 .Lttbase8-.Lttbaseref8
.Lttbaseref8:
	.byte	1
	.uleb128 .Lcst_end14-.Lcst_begin14
.Lcst_begin14:
	.uleb128 .Ltmp354-.Lfunc_begin65
	.uleb128 .Ltmp355-.Ltmp354
	.uleb128 .Ltmp356-.Lfunc_begin65
	.byte	1
.Lcst_end14:
	.byte	127
	.byte	0
	.p2align	2, 0x0
.Lttbase8:
	.byte	0
	.p2align	2, 0x0

	.section	".text._ZN4core5slice29_$LT$impl$u20$$u5b$T$u5d$$GT$15copy_from_slice17h506442b2f1ca0c87E","ax",@progbits
	.p2align	4
	.type	_ZN4core5slice29_$LT$impl$u20$$u5b$T$u5d$$GT$15copy_from_slice17h506442b2f1ca0c87E,@function
_ZN4core5slice29_$LT$impl$u20$$u5b$T$u5d$$GT$15copy_from_slice17h506442b2f1ca0c87E:
.Lfunc_begin66:
	.loc	21 3801 0
	.cfi_startproc
	subq	$104, %rsp
	.cfi_def_cfa_offset 112
	movq	%rdi, 8(%rsp)
	movq	%rsi, 16(%rsp)
	movq	%rdx, 24(%rsp)
	movq	%rcx, 32(%rsp)
	movq	%r8, 40(%rsp)
	movq	%rdi, 48(%rsp)
	movq	%rsi, 56(%rsp)
	movq	%rdx, 64(%rsp)
	movq	%rcx, 72(%rsp)
.Ltmp359:
	.loc	21 3819 12 prologue_end
	movq	%rsi, 80(%rsp)
	cmpq	%rcx, %rsi
	jne	.LBB66_2
	.loc	21 0 12 is_stmt 0
	movq	8(%rsp), %rax
	movq	24(%rsp), %rcx
.Ltmp360:
	.loc	21 720 9 is_stmt 1
	movq	%rcx, 88(%rsp)
.Ltmp361:
	.loc	21 751 9
	movq	%rax, 96(%rsp)
.Ltmp362:
	.loc	2 74 35
	jmp	.LBB66_3
.Ltmp363:
.LBB66_2:
	.loc	2 0 35 is_stmt 0
	movq	40(%rsp), %rdx
	movq	32(%rsp), %rsi
	movq	16(%rsp), %rdi
	.loc	21 3820 13 is_stmt 1
	callq	*_ZN4core5slice29_$LT$impl$u20$$u5b$T$u5d$$GT$15copy_from_slice17len_mismatch_fail17hcb07c599de0a38a3E@GOTPCREL(%rip)
.LBB66_3:
	.loc	21 0 13 is_stmt 0
	movq	16(%rsp), %r8
	movq	8(%rsp), %rsi
	movq	24(%rsp), %rdi
.Ltmp364:
	.loc	2 75 17 is_stmt 1
	movl	$1, %ecx
	movq	%rcx, %rdx
	callq	_ZN4core10intrinsics19copy_nonoverlapping18precondition_check17hc81675b7eb28c56aE
	.loc	2 0 17 is_stmt 0
	movq	24(%rsp), %rsi
	movq	8(%rsp), %rdi
	movq	16(%rsp), %rdx
	.loc	22 3753 14 is_stmt 1
	shlq	$0, %rdx
	callq	memcpy@PLT
.Ltmp365:
	.loc	21 3829 6 epilogue_begin
	addq	$104, %rsp
	.cfi_def_cfa_offset 8
	retq
.Ltmp366:
.Lfunc_end66:
	.size	_ZN4core5slice29_$LT$impl$u20$$u5b$T$u5d$$GT$15copy_from_slice17h506442b2f1ca0c87E, .Lfunc_end66-_ZN4core5slice29_$LT$impl$u20$$u5b$T$u5d$$GT$15copy_from_slice17h506442b2f1ca0c87E
	.cfi_endproc

	.section	".text._ZN4core5slice29_$LT$impl$u20$$u5b$T$u5d$$GT$22split_at_mut_unchecked17hf356a30103ff69fbE","ax",@progbits
	.p2align	4
	.type	_ZN4core5slice29_$LT$impl$u20$$u5b$T$u5d$$GT$22split_at_mut_unchecked17hf356a30103ff69fbE,@function
_ZN4core5slice29_$LT$impl$u20$$u5b$T$u5d$$GT$22split_at_mut_unchecked17hf356a30103ff69fbE:
.Lfunc_begin67:
	.loc	21 2117 0
	.cfi_startproc
	subq	$152, %rsp
	.cfi_def_cfa_offset 160
	movq	%rcx, 8(%rsp)
	movq	%rdx, 16(%rsp)
	movq	%rsi, 24(%rsp)
	movq	%rdi, 32(%rsp)
	movq	%rdi, 40(%rsp)
	movq	%rsi, 80(%rsp)
	movq	%rdx, 88(%rsp)
	movq	%rcx, 96(%rsp)
.Ltmp367:
	.loc	21 2118 19 prologue_end
	movq	%rdx, 104(%rsp)
.Ltmp368:
	.loc	21 751 9
	movq	%rsi, 112(%rsp)
.Ltmp369:
	.loc	21 0 9 is_stmt 0
	movq	8(%rsp), %rdi
	movq	16(%rsp), %rsi
.Ltmp370:
	.loc	2 75 17 is_stmt 1
	callq	_ZN4core5slice29_$LT$impl$u20$$u5b$T$u5d$$GT$22split_at_mut_unchecked18precondition_check17h166830a5a6189009E
	movq	24(%rsp), %rcx
	movq	8(%rsp), %rax
	.loc	21 2133 36
	movq	%rcx, 120(%rsp)
	.loc	21 2133 41 is_stmt 0
	movq	%rax, 128(%rsp)
	.loc	21 0 41
	movq	8(%rsp), %rcx
	movq	24(%rsp), %rdi
.Ltmp371:
	.loc	2 75 17 is_stmt 1
	movl	$1, %edx
	movq	%rdx, %rsi
	callq	_ZN4core5slice3raw18from_raw_parts_mut18precondition_check17h2e7ee05c764771a0E
	movq	24(%rsp), %rdx
	movq	16(%rsp), %rax
	movq	8(%rsp), %rcx
	.file	35 "/home/ordyboii/.rustup/toolchains/stable-x86_64-unknown-linux-gnu/lib/rustlib/src/rust/library/core/src/slice" "raw.rs"
	.loc	35 192 9
	movq	%rdx, 48(%rsp)
	movq	%rcx, 56(%rsp)
.Ltmp372:
	.loc	21 2134 36
	movq	%rdx, 136(%rsp)
	.loc	21 2134 44 is_stmt 0
	movq	%rcx, 144(%rsp)
.Ltmp373:
	.loc	20 1056 18 is_stmt 1
	addq	%rcx, %rdx
	movq	%rdx, 64(%rsp)
.Ltmp374:
	.loc	21 2134 50
	subq	%rcx, %rax
	movq	%rax, 72(%rsp)
.Ltmp375:
	.loc	35 184 33
	movq	64(%rsp), %rdi
	.loc	2 75 17
	movq	72(%rsp), %rcx
	movl	$1, %edx
	movq	%rdx, %rsi
	callq	_ZN4core5slice3raw18from_raw_parts_mut18precondition_check17h2e7ee05c764771a0E
	.loc	2 0 17 is_stmt 0
	movq	40(%rsp), %rax
	movq	32(%rsp), %rcx
.Ltmp376:
	.file	36 "/home/ordyboii/.rustup/toolchains/stable-x86_64-unknown-linux-gnu/lib/rustlib/src/rust/library/core/src/ptr" "metadata.rs"
	.loc	36 129 5 is_stmt 1
	movq	64(%rsp), %rsi
	movq	72(%rsp), %rdx
.Ltmp377:
	.loc	21 2132 13
	movq	48(%rsp), %r8
	movq	56(%rsp), %rdi
	movq	%r8, (%rcx)
	movq	%rdi, 8(%rcx)
	movq	%rsi, 16(%rcx)
	movq	%rdx, 24(%rcx)
.Ltmp378:
	.loc	21 2137 6 epilogue_begin
	addq	$152, %rsp
	.cfi_def_cfa_offset 8
	retq
.Ltmp379:
.Lfunc_end67:
	.size	_ZN4core5slice29_$LT$impl$u20$$u5b$T$u5d$$GT$22split_at_mut_unchecked17hf356a30103ff69fbE, .Lfunc_end67-_ZN4core5slice29_$LT$impl$u20$$u5b$T$u5d$$GT$22split_at_mut_unchecked17hf356a30103ff69fbE
	.cfi_endproc

	.section	".text._ZN4core5slice29_$LT$impl$u20$$u5b$T$u5d$$GT$22split_at_mut_unchecked18precondition_check17h166830a5a6189009E","ax",@progbits
	.p2align	4
	.type	_ZN4core5slice29_$LT$impl$u20$$u5b$T$u5d$$GT$22split_at_mut_unchecked18precondition_check17h166830a5a6189009E,@function
_ZN4core5slice29_$LT$impl$u20$$u5b$T$u5d$$GT$22split_at_mut_unchecked18precondition_check17h166830a5a6189009E:
.Lfunc_begin68:
	.loc	2 66 0
	.cfi_startproc
	subq	$24, %rsp
	.cfi_def_cfa_offset 32
	movq	%rdi, 8(%rsp)
	movq	%rsi, 16(%rsp)
.Ltmp380:
	.loc	21 2124 53 prologue_end
	cmpq	%rsi, %rdi
	jbe	.LBB68_2
	.loc	2 68 21
	leaq	.Lanon.60f91fde1ce0e38296af11bc775d42ab.28(%rip), %rdi
	movl	$221, %esi
	callq	*_ZN4core9panicking14panic_nounwind17h0c59dc9f7f043eadE@GOTPCREL(%rip)
.LBB68_2:
	.loc	2 72 14 epilogue_begin
	addq	$24, %rsp
	.cfi_def_cfa_offset 8
	retq
.Ltmp381:
.Lfunc_end68:
	.size	_ZN4core5slice29_$LT$impl$u20$$u5b$T$u5d$$GT$22split_at_mut_unchecked18precondition_check17h166830a5a6189009E, .Lfunc_end68-_ZN4core5slice29_$LT$impl$u20$$u5b$T$u5d$$GT$22split_at_mut_unchecked18precondition_check17h166830a5a6189009E
	.cfi_endproc

	.section	".text._ZN4core5slice29_$LT$impl$u20$$u5b$T$u5d$$GT$4iter17hb480f097a730ea76E","ax",@progbits
	.p2align	4
	.type	_ZN4core5slice29_$LT$impl$u20$$u5b$T$u5d$$GT$4iter17hb480f097a730ea76E,@function
_ZN4core5slice29_$LT$impl$u20$$u5b$T$u5d$$GT$4iter17hb480f097a730ea76E:
.Lfunc_begin69:
	.loc	21 1029 0
	.cfi_startproc
	subq	$24, %rsp
	.cfi_def_cfa_offset 32
	movq	%rdi, 8(%rsp)
	movq	%rsi, 16(%rsp)
.Ltmp382:
	.loc	21 1030 9 prologue_end
	callq	_ZN4core5slice4iter13Iter$LT$T$GT$3new17h119db15be3a66387E
	.loc	21 1031 6 epilogue_begin
	addq	$24, %rsp
	.cfi_def_cfa_offset 8
	retq
.Ltmp383:
.Lfunc_end69:
	.size	_ZN4core5slice29_$LT$impl$u20$$u5b$T$u5d$$GT$4iter17hb480f097a730ea76E, .Lfunc_end69-_ZN4core5slice29_$LT$impl$u20$$u5b$T$u5d$$GT$4iter17hb480f097a730ea76E
	.cfi_endproc

	.section	.text._ZN4core5slice3raw14from_raw_parts18precondition_check17hfa653467a729f925E,"ax",@progbits
	.p2align	4
	.type	_ZN4core5slice3raw14from_raw_parts18precondition_check17hfa653467a729f925E,@function
_ZN4core5slice3raw14from_raw_parts18precondition_check17hfa653467a729f925E:
.Lfunc_begin70:
	.loc	2 66 0
	.cfi_startproc
	.cfi_personality 155, DW.ref.rust_eh_personality
	.cfi_lsda 27, .Lexception15
	subq	$168, %rsp
	.cfi_def_cfa_offset 176
	movq	%rcx, %rax
	movq	%rdx, %rcx
	movq	%rdi, 16(%rsp)
	movq	%rsi, 24(%rsp)
	movq	%rcx, 32(%rsp)
	movq	%rax, 40(%rsp)
	movq	%rdi, 104(%rsp)
	movq	%rsi, 112(%rsp)
	movq	%rcx, 120(%rsp)
	movq	%rax, 128(%rsp)
.Ltmp389:
	.loc	2 119 5 prologue_end
	movb	$0, 142(%rsp)
.Ltmp390:
	.loc	22 3184 40
	movb	$0, 143(%rsp)
.Ltmp391:
	.loc	5 234 44
	leaq	.Lanon.60f91fde1ce0e38296af11bc775d42ab.10(%rip), %rax
	movq	%rax, 144(%rsp)
.Ltmp392:
	.loc	35 135 54
	movq	%rdi, 152(%rsp)
.Ltmp393:
	.loc	17 85 20
	movq	%rcx, %rax
	shrq	%rax
	movabsq	$6148914691236517205, %rdx
	andq	%rdx, %rax
	subq	%rax, %rcx
	movabsq	$3689348814741910323, %rdx
	movq	%rcx, %rax
	andq	%rdx, %rax
	shrq	$2, %rcx
	andq	%rdx, %rcx
	addq	%rcx, %rax
	movq	%rax, %rcx
	shrq	$4, %rcx
	addq	%rcx, %rax
	movabsq	$1085102592571150095, %rcx
	andq	%rcx, %rax
	movabsq	$72340172838076673, %rcx
	imulq	%rcx, %rax
	shrq	$56, %rax
	movl	%eax, 164(%rsp)
.Ltmp394:
	.loc	23 1475 13
	cmpl	$1, 164(%rsp)
	jne	.LBB70_2
	.loc	23 0 13 is_stmt 0
	movq	16(%rsp), %rax
	movq	32(%rsp), %rcx
	.loc	23 1479 23 is_stmt 1
	subq	$1, %rcx
	.loc	23 1479 9 is_stmt 0
	andq	%rcx, %rax
.Ltmp395:
	.loc	2 127 13 is_stmt 1
	cmpq	$0, %rax
	je	.LBB70_3
	jmp	.LBB70_4
.LBB70_2:
.Ltmp396:
	.loc	5 236 9
	leaq	.Lanon.60f91fde1ce0e38296af11bc775d42ab.10(%rip), %rax
	movq	%rax, 48(%rsp)
	movq	$1, 56(%rsp)
	movq	.Lanon.60f91fde1ce0e38296af11bc775d42ab.3(%rip), %rcx
	movq	.Lanon.60f91fde1ce0e38296af11bc775d42ab.3+8(%rip), %rax
	movq	%rcx, 80(%rsp)
	movq	%rax, 88(%rsp)
	movq	$8, 64(%rsp)
	movq	$0, 72(%rsp)
.Ltmp397:
.Ltmp384:
	.loc	23 1476 13
	leaq	.Lanon.60f91fde1ce0e38296af11bc775d42ab.12(%rip), %rsi
	movq	_ZN4core9panicking9panic_fmt17hc8737e8cca20a7c8E@GOTPCREL(%rip), %rax
	leaq	48(%rsp), %rdi
	callq	*%rax
.Ltmp385:
	jmp	.LBB70_13
.Ltmp398:
.LBB70_3:
	.loc	23 0 13 is_stmt 0
	movq	16(%rsp), %rax
.Ltmp399:
	.loc	23 55 17 is_stmt 1
	cmpq	$0, %rax
	sete	%al
.Ltmp400:
	.loc	2 127 52
	xorb	$-1, %al
.Ltmp401:
	.loc	35 135 13
	testb	$1, %al
	jne	.LBB70_6
	jmp	.LBB70_5
.LBB70_4:
	.loc	35 135 13
	jmp	.LBB70_5
.LBB70_5:
	.loc	24 0 0 is_stmt 0
	jmp	.LBB70_16
.LBB70_6:
	movq	24(%rsp), %rax
.Ltmp402:
	.loc	2 134 22 is_stmt 1
	cmpq	$0, %rax
	sete	%cl
	movb	%cl, 15(%rsp)
	cmpq	$0, %rax
	jne	.LBB70_8
	.loc	2 134 34 is_stmt 0
	movq	$-1, 96(%rsp)
	.loc	2 134 19
	jmp	.LBB70_9
.LBB70_8:
	.loc	2 0 19
	movb	15(%rsp), %al
	.loc	2 134 54
	testb	$1, %al
	jne	.LBB70_11
	jmp	.LBB70_10
.LBB70_9:
	.loc	2 0 54
	movq	40(%rsp), %rax
.Ltmp403:
	.loc	2 135 5 is_stmt 1
	cmpq	96(%rsp), %rax
.Ltmp404:
	.loc	35 136 20
	jbe	.LBB70_15
	jmp	.LBB70_14
.LBB70_10:
	.loc	35 0 20 is_stmt 0
	movq	24(%rsp), %rcx
.Ltmp405:
	.loc	2 134 54 is_stmt 1
	movabsq	$9223372036854775807, %rax
	xorl	%edx, %edx
	divq	%rcx
	movq	%rax, 96(%rsp)
	.loc	2 134 19 is_stmt 0
	jmp	.LBB70_9
.LBB70_11:
.Ltmp386:
	.loc	2 134 54
	leaq	.Lanon.60f91fde1ce0e38296af11bc775d42ab.30(%rip), %rdi
	movq	_ZN4core9panicking11panic_const23panic_const_div_by_zero17h1a56129937414368E@GOTPCREL(%rip), %rax
	callq	*%rax
.Ltmp387:
	jmp	.LBB70_13
.Ltmp406:
.LBB70_12:
.Ltmp388:
	.loc	2 66 13 is_stmt 1
	callq	*_ZN4core9panicking19panic_cannot_unwind17hb8732afd89555502E@GOTPCREL(%rip)
.LBB70_13:
	.loc	2 0 13 is_stmt 0
	ud2
.LBB70_14:
	jmp	.LBB70_16
.LBB70_15:
	.loc	2 72 14 epilogue_begin is_stmt 1
	addq	$168, %rsp
	.cfi_def_cfa_offset 8
	retq
.LBB70_16:
	.cfi_def_cfa_offset 176
	.loc	2 68 21
	leaq	.Lanon.60f91fde1ce0e38296af11bc775d42ab.31(%rip), %rdi
	movl	$279, %esi
	callq	*_ZN4core9panicking14panic_nounwind17h0c59dc9f7f043eadE@GOTPCREL(%rip)
.Ltmp407:
.Lfunc_end70:
	.size	_ZN4core5slice3raw14from_raw_parts18precondition_check17hfa653467a729f925E, .Lfunc_end70-_ZN4core5slice3raw14from_raw_parts18precondition_check17hfa653467a729f925E
	.cfi_endproc
	.section	.gcc_except_table._ZN4core5slice3raw14from_raw_parts18precondition_check17hfa653467a729f925E,"a",@progbits
	.p2align	2, 0x0
GCC_except_table70:
.Lexception15:
	.byte	255
	.byte	155
	.uleb128 .Lttbase9-.Lttbaseref9
.Lttbaseref9:
	.byte	1
	.uleb128 .Lcst_end15-.Lcst_begin15
.Lcst_begin15:
	.uleb128 .Ltmp384-.Lfunc_begin70
	.uleb128 .Ltmp387-.Ltmp384
	.uleb128 .Ltmp388-.Lfunc_begin70
	.byte	1
.Lcst_end15:
	.byte	127
	.byte	0
	.p2align	2, 0x0
.Lttbase9:
	.byte	0
	.p2align	2, 0x0

	.section	.text._ZN4core5slice3raw18from_raw_parts_mut18precondition_check17h2e7ee05c764771a0E,"ax",@progbits
	.p2align	4
	.type	_ZN4core5slice3raw18from_raw_parts_mut18precondition_check17h2e7ee05c764771a0E,@function
_ZN4core5slice3raw18from_raw_parts_mut18precondition_check17h2e7ee05c764771a0E:
.Lfunc_begin71:
	.loc	2 66 0
	.cfi_startproc
	.cfi_personality 155, DW.ref.rust_eh_personality
	.cfi_lsda 27, .Lexception16
	subq	$168, %rsp
	.cfi_def_cfa_offset 176
	movq	%rcx, %rax
	movq	%rdx, %rcx
	movq	%rdi, 16(%rsp)
	movq	%rsi, 24(%rsp)
	movq	%rcx, 32(%rsp)
	movq	%rax, 40(%rsp)
	movq	%rdi, 104(%rsp)
	movq	%rsi, 112(%rsp)
	movq	%rcx, 120(%rsp)
	movq	%rax, 128(%rsp)
.Ltmp413:
	.loc	2 119 5 prologue_end
	movb	$0, 142(%rsp)
.Ltmp414:
	.loc	22 3184 40
	movb	$0, 143(%rsp)
.Ltmp415:
	.loc	5 234 44
	leaq	.Lanon.60f91fde1ce0e38296af11bc775d42ab.10(%rip), %rax
	movq	%rax, 144(%rsp)
.Ltmp416:
	.loc	35 189 54
	movq	%rdi, 152(%rsp)
.Ltmp417:
	.loc	17 85 20
	movq	%rcx, %rax
	shrq	%rax
	movabsq	$6148914691236517205, %rdx
	andq	%rdx, %rax
	subq	%rax, %rcx
	movabsq	$3689348814741910323, %rdx
	movq	%rcx, %rax
	andq	%rdx, %rax
	shrq	$2, %rcx
	andq	%rdx, %rcx
	addq	%rcx, %rax
	movq	%rax, %rcx
	shrq	$4, %rcx
	addq	%rcx, %rax
	movabsq	$1085102592571150095, %rcx
	andq	%rcx, %rax
	movabsq	$72340172838076673, %rcx
	imulq	%rcx, %rax
	shrq	$56, %rax
	movl	%eax, 164(%rsp)
.Ltmp418:
	.loc	23 1475 13
	cmpl	$1, 164(%rsp)
	jne	.LBB71_2
	.loc	23 0 13 is_stmt 0
	movq	16(%rsp), %rax
	movq	32(%rsp), %rcx
	.loc	23 1479 23 is_stmt 1
	subq	$1, %rcx
	.loc	23 1479 9 is_stmt 0
	andq	%rcx, %rax
.Ltmp419:
	.loc	2 127 13 is_stmt 1
	cmpq	$0, %rax
	je	.LBB71_3
	jmp	.LBB71_4
.LBB71_2:
.Ltmp420:
	.loc	5 236 9
	leaq	.Lanon.60f91fde1ce0e38296af11bc775d42ab.10(%rip), %rax
	movq	%rax, 48(%rsp)
	movq	$1, 56(%rsp)
	movq	.Lanon.60f91fde1ce0e38296af11bc775d42ab.3(%rip), %rcx
	movq	.Lanon.60f91fde1ce0e38296af11bc775d42ab.3+8(%rip), %rax
	movq	%rcx, 80(%rsp)
	movq	%rax, 88(%rsp)
	movq	$8, 64(%rsp)
	movq	$0, 72(%rsp)
.Ltmp421:
.Ltmp408:
	.loc	23 1476 13
	leaq	.Lanon.60f91fde1ce0e38296af11bc775d42ab.12(%rip), %rsi
	movq	_ZN4core9panicking9panic_fmt17hc8737e8cca20a7c8E@GOTPCREL(%rip), %rax
	leaq	48(%rsp), %rdi
	callq	*%rax
.Ltmp409:
	jmp	.LBB71_13
.Ltmp422:
.LBB71_3:
	.loc	23 0 13 is_stmt 0
	movq	16(%rsp), %rax
.Ltmp423:
	.loc	23 55 17 is_stmt 1
	cmpq	$0, %rax
	sete	%al
.Ltmp424:
	.loc	2 127 52
	xorb	$-1, %al
.Ltmp425:
	.loc	35 189 13
	testb	$1, %al
	jne	.LBB71_6
	jmp	.LBB71_5
.LBB71_4:
	.loc	35 189 13
	jmp	.LBB71_5
.LBB71_5:
	.loc	24 0 0 is_stmt 0
	jmp	.LBB71_16
.LBB71_6:
	movq	24(%rsp), %rax
.Ltmp426:
	.loc	2 134 22 is_stmt 1
	cmpq	$0, %rax
	sete	%cl
	movb	%cl, 15(%rsp)
	cmpq	$0, %rax
	jne	.LBB71_8
	.loc	2 134 34 is_stmt 0
	movq	$-1, 96(%rsp)
	.loc	2 134 19
	jmp	.LBB71_9
.LBB71_8:
	.loc	2 0 19
	movb	15(%rsp), %al
	.loc	2 134 54
	testb	$1, %al
	jne	.LBB71_11
	jmp	.LBB71_10
.LBB71_9:
	.loc	2 0 54
	movq	40(%rsp), %rax
.Ltmp427:
	.loc	2 135 5 is_stmt 1
	cmpq	96(%rsp), %rax
.Ltmp428:
	.loc	35 190 20
	jbe	.LBB71_15
	jmp	.LBB71_14
.LBB71_10:
	.loc	35 0 20 is_stmt 0
	movq	24(%rsp), %rcx
.Ltmp429:
	.loc	2 134 54 is_stmt 1
	movabsq	$9223372036854775807, %rax
	xorl	%edx, %edx
	divq	%rcx
	movq	%rax, 96(%rsp)
	.loc	2 134 19 is_stmt 0
	jmp	.LBB71_9
.LBB71_11:
.Ltmp410:
	.loc	2 134 54
	leaq	.Lanon.60f91fde1ce0e38296af11bc775d42ab.30(%rip), %rdi
	movq	_ZN4core9panicking11panic_const23panic_const_div_by_zero17h1a56129937414368E@GOTPCREL(%rip), %rax
	callq	*%rax
.Ltmp411:
	jmp	.LBB71_13
.Ltmp430:
.LBB71_12:
.Ltmp412:
	.loc	2 66 13 is_stmt 1
	callq	*_ZN4core9panicking19panic_cannot_unwind17hb8732afd89555502E@GOTPCREL(%rip)
.LBB71_13:
	.loc	2 0 13 is_stmt 0
	ud2
.LBB71_14:
	jmp	.LBB71_16
.LBB71_15:
	.loc	2 72 14 epilogue_begin is_stmt 1
	addq	$168, %rsp
	.cfi_def_cfa_offset 8
	retq
.LBB71_16:
	.cfi_def_cfa_offset 176
	.loc	2 68 21
	leaq	.Lanon.60f91fde1ce0e38296af11bc775d42ab.32(%rip), %rdi
	movl	$283, %esi
	callq	*_ZN4core9panicking14panic_nounwind17h0c59dc9f7f043eadE@GOTPCREL(%rip)
.Ltmp431:
.Lfunc_end71:
	.size	_ZN4core5slice3raw18from_raw_parts_mut18precondition_check17h2e7ee05c764771a0E, .Lfunc_end71-_ZN4core5slice3raw18from_raw_parts_mut18precondition_check17h2e7ee05c764771a0E
	.cfi_endproc
	.section	.gcc_except_table._ZN4core5slice3raw18from_raw_parts_mut18precondition_check17h2e7ee05c764771a0E,"a",@progbits
	.p2align	2, 0x0
GCC_except_table71:
.Lexception16:
	.byte	255
	.byte	155
	.uleb128 .Lttbase10-.Lttbaseref10
.Lttbaseref10:
	.byte	1
	.uleb128 .Lcst_end16-.Lcst_begin16
.Lcst_begin16:
	.uleb128 .Ltmp408-.Lfunc_begin71
	.uleb128 .Ltmp411-.Ltmp408
	.uleb128 .Ltmp412-.Lfunc_begin71
	.byte	1
.Lcst_end16:
	.byte	127
	.byte	0
	.p2align	2, 0x0
.Lttbase10:
	.byte	0
	.p2align	2, 0x0

	.section	".text._ZN4core5slice4iter13Iter$LT$T$GT$3new17h119db15be3a66387E","ax",@progbits
	.p2align	4
	.type	_ZN4core5slice4iter13Iter$LT$T$GT$3new17h119db15be3a66387E,@function
_ZN4core5slice4iter13Iter$LT$T$GT$3new17h119db15be3a66387E:
.Lfunc_begin72:
	.loc	18 96 0
	.cfi_startproc
	movq	%rdi, -80(%rsp)
	movq	%rsi, -72(%rsp)
	movq	%rdi, -56(%rsp)
	movq	%rsi, -48(%rsp)
.Ltmp432:
	.loc	18 97 19 prologue_end
	movq	%rsi, -40(%rsp)
.Ltmp433:
	.loc	19 269 18
	movq	%rdi, -32(%rsp)
	movq	%rsi, -24(%rsp)
.Ltmp434:
	.loc	19 488 18
	movq	%rdi, -16(%rsp)
.Ltmp435:
	.loc	19 0 18 is_stmt 0
	movq	-80(%rsp), %rax
	movq	-72(%rsp), %rcx
.Ltmp436:
	.loc	19 391 18 is_stmt 1
	movq	%rax, -8(%rsp)
.Ltmp437:
	.loc	20 1056 18
	shlq	$2, %rcx
	addq	%rcx, %rax
.Ltmp438:
	.loc	18 102 63
	movq	%rax, -64(%rsp)
	.loc	18 0 63 is_stmt 0
	movq	-80(%rsp), %rax
.Ltmp439:
	.loc	18 104 25 is_stmt 1
	movq	-64(%rsp), %rdx
.Ltmp440:
	.loc	18 106 6
	retq
.Ltmp441:
.Lfunc_end72:
	.size	_ZN4core5slice4iter13Iter$LT$T$GT$3new17h119db15be3a66387E, .Lfunc_end72-_ZN4core5slice4iter13Iter$LT$T$GT$3new17h119db15be3a66387E
	.cfi_endproc

	.section	".text._ZN4core6result19Result$LT$T$C$E$GT$6expect17h5f6b71b3d785523fE","ax",@progbits
	.p2align	4
	.type	_ZN4core6result19Result$LT$T$C$E$GT$6expect17h5f6b71b3d785523fE,@function
_ZN4core6result19Result$LT$T$C$E$GT$6expect17h5f6b71b3d785523fE:
.Lfunc_begin73:
	.file	37 "/home/ordyboii/.rustup/toolchains/stable-x86_64-unknown-linux-gnu/lib/rustlib/src/rust/library/core/src" "result.rs"
	.loc	37 1083 0
	.cfi_startproc
	.cfi_personality 155, DW.ref.rust_eh_personality
	.cfi_lsda 27, .Lexception17
	subq	$72, %rsp
	.cfi_def_cfa_offset 80
	movq	%rcx, 8(%rsp)
	movq	%rdx, 16(%rsp)
	movq	%rsi, 24(%rsp)
	movb	%dil, %al
	movb	%al, %cl
	andb	$1, %cl
	movb	%cl, 39(%rsp)
	movq	%rsi, 40(%rsp)
	movq	%rdx, 48(%rsp)
.Ltmp445:
	.loc	37 1087 15 prologue_end
	andb	$1, %al
	movzbl	%al, %eax
	.loc	37 1087 9 is_stmt 0
	testq	$1, %rax
	je	.LBB73_2
.Ltmp442:
	.loc	37 0 9
	movq	8(%rsp), %r8
	movq	16(%rsp), %rsi
	movq	24(%rsp), %rdi
.Ltmp446:
	.loc	37 1089 23 is_stmt 1
	leaq	.Lanon.60f91fde1ce0e38296af11bc775d42ab.33(%rip), %rcx
	movq	_ZN4core6result13unwrap_failed17h727108008d9f4c9bE@GOTPCREL(%rip), %rax
	leaq	37(%rsp), %rdx
	callq	*%rax
.Ltmp443:
	jmp	.LBB73_5
.Ltmp447:
.LBB73_2:
	.loc	37 1091 6 epilogue_begin
	addq	$72, %rsp
	.cfi_def_cfa_offset 8
	retq
.LBB73_3:
	.cfi_def_cfa_offset 80
	.loc	37 1083 5
	movq	56(%rsp), %rdi
	callq	_Unwind_Resume@PLT
.Ltmp448:
.LBB73_4:
.Ltmp444:
	.loc	37 0 5 is_stmt 0
	movq	%rax, %rcx
	movl	%edx, %eax
	movq	%rcx, 56(%rsp)
	movl	%eax, 64(%rsp)
	jmp	.LBB73_3
.LBB73_5:
	ud2
.Lfunc_end73:
	.size	_ZN4core6result19Result$LT$T$C$E$GT$6expect17h5f6b71b3d785523fE, .Lfunc_end73-_ZN4core6result19Result$LT$T$C$E$GT$6expect17h5f6b71b3d785523fE
	.cfi_endproc
	.section	".gcc_except_table._ZN4core6result19Result$LT$T$C$E$GT$6expect17h5f6b71b3d785523fE","a",@progbits
	.p2align	2, 0x0
GCC_except_table73:
.Lexception17:
	.byte	255
	.byte	255
	.byte	1
	.uleb128 .Lcst_end17-.Lcst_begin17
.Lcst_begin17:
	.uleb128 .Ltmp442-.Lfunc_begin73
	.uleb128 .Ltmp443-.Ltmp442
	.uleb128 .Ltmp444-.Lfunc_begin73
	.byte	0
	.uleb128 .Ltmp443-.Lfunc_begin73
	.uleb128 .Lfunc_end73-.Ltmp443
	.byte	0
	.byte	0
.Lcst_end17:
	.p2align	2, 0x0

	.section	.text._ZN4core9ub_checks23maybe_is_nonoverlapping7runtime17hebb4019edb443973E,"ax",@progbits
	.p2align	4
	.type	_ZN4core9ub_checks23maybe_is_nonoverlapping7runtime17hebb4019edb443973E,@function
_ZN4core9ub_checks23maybe_is_nonoverlapping7runtime17hebb4019edb443973E:
.Lfunc_begin74:
	.loc	22 3184 0 is_stmt 1
	.cfi_startproc
	subq	$136, %rsp
	.cfi_def_cfa_offset 144
	movq	%rdx, %rax
	movq	%rdi, 16(%rsp)
	movq	%rsi, 24(%rsp)
	movq	%rdi, 64(%rsp)
	movq	%rsi, 72(%rsp)
	movq	%rax, 80(%rsp)
	movq	%rcx, 88(%rsp)
.Ltmp449:
	.loc	23 171 18 prologue_end
	movq	%rdi, 96(%rsp)
.Ltmp450:
	.loc	23 171 18 is_stmt 0
	movq	%rsi, 104(%rsp)
.Ltmp451:
	.loc	17 2630 26 is_stmt 1
	mulq	%rcx
	movq	%rax, %rcx
	movq	%rcx, 32(%rsp)
	seto	%al
	.loc	17 2630 21 is_stmt 0
	movb	%al, %dl
	andb	$1, %dl
	movb	%dl, 119(%rsp)
	.loc	17 2631 14 is_stmt 1
	movq	%rcx, 120(%rsp)
.Ltmp452:
	.loc	22 1310 8
	testb	$1, %al
	jne	.LBB74_2
.Ltmp453:
	.loc	22 0 8 is_stmt 0
	movq	16(%rsp), %rax
	movq	24(%rsp), %rcx
	movq	32(%rsp), %rdx
	.loc	17 917 56 is_stmt 1
	movq	%rdx, 48(%rsp)
	movq	$1, 40(%rsp)
.Ltmp454:
	.loc	2 159 22
	movq	48(%rsp), %rdx
	movq	%rdx, 8(%rsp)
	movq	%rdx, 128(%rsp)
.Ltmp455:
	.loc	17 2599 20
	cmpq	%rcx, %rax
	jb	.LBB74_4
	jmp	.LBB74_3
.Ltmp456:
.LBB74_2:
	.loc	2 160 17
	leaq	.Lanon.60f91fde1ce0e38296af11bc775d42ab.34(%rip), %rdi
	movl	$61, %esi
	callq	*_ZN4core9panicking14panic_nounwind17h0c59dc9f7f043eadE@GOTPCREL(%rip)
.LBB74_3:
	.loc	2 0 17 is_stmt 0
	movq	24(%rsp), %rcx
	movq	16(%rsp), %rax
.Ltmp457:
	.loc	17 2602 21 is_stmt 1
	subq	%rcx, %rax
	movq	%rax, 56(%rsp)
	.loc	17 2599 17
	jmp	.LBB74_5
.LBB74_4:
	.loc	17 0 17 is_stmt 0
	movq	16(%rsp), %rcx
	movq	24(%rsp), %rax
	.loc	17 2600 21 is_stmt 1
	subq	%rcx, %rax
	movq	%rax, 56(%rsp)
.Ltmp458:
.LBB74_5:
	.loc	17 0 21 is_stmt 0
	movq	8(%rsp), %rax
.Ltmp459:
	.loc	2 167 13 is_stmt 1
	cmpq	%rax, 56(%rsp)
	setae	%al
.Ltmp460:
	.loc	22 3186 10
	andb	$1, %al
	.loc	22 3186 10 epilogue_begin is_stmt 0
	addq	$136, %rsp
	.cfi_def_cfa_offset 8
	retq
.Ltmp461:
.Lfunc_end74:
	.size	_ZN4core9ub_checks23maybe_is_nonoverlapping7runtime17hebb4019edb443973E, .Lfunc_end74-_ZN4core9ub_checks23maybe_is_nonoverlapping7runtime17hebb4019edb443973E
	.cfi_endproc

	.section	".text._ZN53_$LT$core..fmt..Error$u20$as$u20$core..fmt..Debug$GT$3fmt17hb54a22f9e2e24d6fE","ax",@progbits
	.p2align	4
	.type	_ZN53_$LT$core..fmt..Error$u20$as$u20$core..fmt..Debug$GT$3fmt17hb54a22f9e2e24d6fE,@function
_ZN53_$LT$core..fmt..Error$u20$as$u20$core..fmt..Debug$GT$3fmt17hb54a22f9e2e24d6fE:
.Lfunc_begin75:
	.loc	14 102 0 is_stmt 1
	.cfi_startproc
	subq	$24, %rsp
	.cfi_def_cfa_offset 32
	movq	%rsi, (%rsp)
	movq	%rdi, %rax
	movq	(%rsp), %rdi
	movq	%rax, 8(%rsp)
	movq	%rdi, 16(%rsp)
.Ltmp462:
	.loc	14 102 23 prologue_end
	leaq	.Lanon.60f91fde1ce0e38296af11bc775d42ab.35(%rip), %rsi
	movl	$5, %edx
	callq	*_ZN4core3fmt9Formatter9write_str17hf87901323e3d7ac9E@GOTPCREL(%rip)
	.loc	14 102 28 is_stmt 0
	andb	$1, %al
	.loc	14 102 28 epilogue_begin
	addq	$24, %rsp
	.cfi_def_cfa_offset 8
	retq
.Ltmp463:
.Lfunc_end75:
	.size	_ZN53_$LT$core..fmt..Error$u20$as$u20$core..fmt..Debug$GT$3fmt17hb54a22f9e2e24d6fE, .Lfunc_end75-_ZN53_$LT$core..fmt..Error$u20$as$u20$core..fmt..Debug$GT$3fmt17hb54a22f9e2e24d6fE
	.cfi_endproc

	.section	".text._ZN54_$LT$$LP$$RP$$u20$as$u20$std..process..Termination$GT$6report17hc0bfbf9625380bc6E","ax",@progbits
	.p2align	4
	.type	_ZN54_$LT$$LP$$RP$$u20$as$u20$std..process..Termination$GT$6report17hc0bfbf9625380bc6E,@function
_ZN54_$LT$$LP$$RP$$u20$as$u20$std..process..Termination$GT$6report17hc0bfbf9625380bc6E:
.Lfunc_begin76:
	.cfi_startproc
	.loc	11 2549 6 prologue_end is_stmt 1
	xorl	%eax, %eax
	retq
.Ltmp464:
.Lfunc_end76:
	.size	_ZN54_$LT$$LP$$RP$$u20$as$u20$std..process..Termination$GT$6report17hc0bfbf9625380bc6E, .Lfunc_end76-_ZN54_$LT$$LP$$RP$$u20$as$u20$std..process..Termination$GT$6report17hc0bfbf9625380bc6E
	.cfi_endproc

	.section	".text._ZN58_$LT$alloc..string..String$u20$as$u20$core..fmt..Write$GT$10write_char17h06b31811cc254cb9E","ax",@progbits
	.p2align	4
	.type	_ZN58_$LT$alloc..string..String$u20$as$u20$core..fmt..Write$GT$10write_char17h06b31811cc254cb9E,@function
_ZN58_$LT$alloc..string..String$u20$as$u20$core..fmt..Write$GT$10write_char17h06b31811cc254cb9E:
.Lfunc_begin77:
	.loc	15 3202 0
	.cfi_startproc
	subq	$24, %rsp
	.cfi_def_cfa_offset 32
	movq	%rdi, 8(%rsp)
	movl	%esi, 20(%rsp)
.Ltmp465:
	.loc	15 3203 9 prologue_end
	callq	_ZN5alloc6string6String4push17h6ee01c0fd9cca3aeE
	.loc	15 3205 6
	xorl	%eax, %eax
	andb	$1, %al
	.loc	15 3205 6 epilogue_begin is_stmt 0
	addq	$24, %rsp
	.cfi_def_cfa_offset 8
	retq
.Ltmp466:
.Lfunc_end77:
	.size	_ZN58_$LT$alloc..string..String$u20$as$u20$core..fmt..Write$GT$10write_char17h06b31811cc254cb9E, .Lfunc_end77-_ZN58_$LT$alloc..string..String$u20$as$u20$core..fmt..Write$GT$10write_char17h06b31811cc254cb9E
	.cfi_endproc

	.section	".text._ZN58_$LT$alloc..string..String$u20$as$u20$core..fmt..Write$GT$9write_str17hac7aa2f1a1a9c098E","ax",@progbits
	.p2align	4
	.type	_ZN58_$LT$alloc..string..String$u20$as$u20$core..fmt..Write$GT$9write_str17hac7aa2f1a1a9c098E,@function
_ZN58_$LT$alloc..string..String$u20$as$u20$core..fmt..Write$GT$9write_str17hac7aa2f1a1a9c098E:
.Lfunc_begin78:
	.loc	15 3196 0 is_stmt 1
	.cfi_startproc
	subq	$24, %rsp
	.cfi_def_cfa_offset 32
	movq	%rdi, (%rsp)
	movq	%rsi, 8(%rsp)
	movq	%rdx, 16(%rsp)
.Ltmp467:
	.loc	15 3197 9 prologue_end
	callq	_ZN5alloc6string6String8push_str17h0793ebec31cbe42cE
	.loc	15 3199 6
	xorl	%eax, %eax
	andb	$1, %al
	.loc	15 3199 6 epilogue_begin is_stmt 0
	addq	$24, %rsp
	.cfi_def_cfa_offset 8
	retq
.Ltmp468:
.Lfunc_end78:
	.size	_ZN58_$LT$alloc..string..String$u20$as$u20$core..fmt..Write$GT$9write_str17hac7aa2f1a1a9c098E, .Lfunc_end78-_ZN58_$LT$alloc..string..String$u20$as$u20$core..fmt..Write$GT$9write_str17hac7aa2f1a1a9c098E
	.cfi_endproc

	.section	.text._ZN5alloc3str17join_generic_copy17h5a36b1ab8c7ab0a5E,"ax",@progbits
	.p2align	4
	.type	_ZN5alloc3str17join_generic_copy17h5a36b1ab8c7ab0a5E,@function
_ZN5alloc3str17join_generic_copy17h5a36b1ab8c7ab0a5E:
.Lfunc_begin79:
	.file	38 "/home/ordyboii/.rustup/toolchains/stable-x86_64-unknown-linux-gnu/lib/rustlib/src/rust/library/alloc/src" "str.rs"
	.loc	38 130 0 is_stmt 1
	.cfi_startproc
	.cfi_personality 155, DW.ref.rust_eh_personality
	.cfi_lsda 27, .Lexception18
	subq	$3768, %rsp
	.cfi_def_cfa_offset 3776
	movq	%r8, 800(%rsp)
	movq	%rcx, 808(%rsp)
	movq	%rdx, 816(%rsp)
	movq	%rsi, 824(%rsp)
	movq	%rdi, 832(%rsp)
	movq	%rdi, 840(%rsp)
	movq	%rsi, 2200(%rsp)
	movq	%rdx, 2208(%rsp)
	movq	%rcx, 2216(%rsp)
	movq	%r8, 2224(%rsp)
.Ltmp575:
	.loc	8 955 31 prologue_end
	leaq	.Lanon.60f91fde1ce0e38296af11bc775d42ab.36(%rip), %rax
	movq	%rax, 2240(%rsp)
	movq	$53, 2248(%rsp)
.Ltmp576:
	.loc	3 413 33
	movq	$0, 2264(%rsp)
.Ltmp577:
	.loc	3 114 5
	movq	$0, 2272(%rsp)
.Ltmp578:
	.loc	5 234 44
	leaq	.Lanon.60f91fde1ce0e38296af11bc775d42ab.38(%rip), %rax
	movq	%rax, 2288(%rsp)
.Ltmp579:
	.loc	5 234 44 is_stmt 0
	leaq	.Lanon.60f91fde1ce0e38296af11bc775d42ab.38(%rip), %rax
	movq	%rax, 2296(%rsp)
.Ltmp580:
	.loc	5 234 44
	leaq	.Lanon.60f91fde1ce0e38296af11bc775d42ab.38(%rip), %rax
	movq	%rax, 2304(%rsp)
.Ltmp581:
	.loc	5 234 44
	leaq	.Lanon.60f91fde1ce0e38296af11bc775d42ab.38(%rip), %rax
	movq	%rax, 2312(%rsp)
.Ltmp582:
	.loc	5 234 44
	leaq	.Lanon.60f91fde1ce0e38296af11bc775d42ab.38(%rip), %rax
	movq	%rax, 2320(%rsp)
.Ltmp583:
	.loc	5 234 44
	leaq	.Lanon.60f91fde1ce0e38296af11bc775d42ab.38(%rip), %rax
	movq	%rax, 2328(%rsp)
.Ltmp584:
	.loc	5 234 44
	leaq	.Lanon.60f91fde1ce0e38296af11bc775d42ab.38(%rip), %rax
	movq	%rax, 2336(%rsp)
.Ltmp585:
	.loc	5 234 44
	leaq	.Lanon.60f91fde1ce0e38296af11bc775d42ab.38(%rip), %rax
	movq	%rax, 2344(%rsp)
.Ltmp586:
	.loc	5 234 44
	leaq	.Lanon.60f91fde1ce0e38296af11bc775d42ab.38(%rip), %rax
	movq	%rax, 2352(%rsp)
.Ltmp587:
	.loc	5 234 44
	leaq	.Lanon.60f91fde1ce0e38296af11bc775d42ab.38(%rip), %rax
	movq	%rax, 2360(%rsp)
.Ltmp588:
	.loc	5 234 44
	leaq	.Lanon.60f91fde1ce0e38296af11bc775d42ab.38(%rip), %rax
	movq	%rax, 2368(%rsp)
.Ltmp589:
	.loc	5 234 44
	leaq	.Lanon.60f91fde1ce0e38296af11bc775d42ab.38(%rip), %rax
	movq	%rax, 2376(%rsp)
.Ltmp590:
	.loc	38 136 19 is_stmt 1
	movq	%r8, 2384(%rsp)
.Ltmp591:
	.loc	18 97 19
	movq	%rdx, 2392(%rsp)
.Ltmp592:
	.loc	19 269 18
	movq	%rsi, 2400(%rsp)
	movq	%rdx, 2408(%rsp)
.Ltmp593:
	.loc	19 488 18
	movq	%rsi, 2416(%rsp)
.Ltmp594:
	.loc	19 0 18 is_stmt 0
	movq	824(%rsp), %rax
	movq	816(%rsp), %rcx
.Ltmp595:
	.loc	19 391 18 is_stmt 1
	movq	%rax, 2424(%rsp)
.Ltmp596:
	.loc	20 1056 18
	imulq	$24, %rcx, %rcx
	addq	%rcx, %rax
.Ltmp597:
	.loc	18 102 63
	movq	%rax, 1144(%rsp)
	.loc	18 0 63 is_stmt 0
	movq	824(%rsp), %rcx
.Ltmp598:
	.loc	18 104 25 is_stmt 1
	movq	1144(%rsp), %rax
	.loc	18 104 13 is_stmt 0
	movq	%rcx, 848(%rsp)
	movq	%rax, 856(%rsp)
.Ltmp599:
	.loc	38 140 23 is_stmt 1
	leaq	848(%rsp), %rdi
	callq	_ZN91_$LT$core..slice..iter..Iter$LT$T$GT$$u20$as$u20$core..iter..traits..iterator..Iterator$GT$4next17h7af0fbcb442ddb87E
	movq	%rax, 864(%rsp)
	movq	864(%rsp), %rdx
	movl	$1, %eax
	xorl	%ecx, %ecx
	cmpq	$0, %rdx
	cmoveq	%rcx, %rax
	.loc	38 140 17 is_stmt 0
	testq	$1, %rax
	je	.LBB79_4
	.loc	38 141 14 is_stmt 1
	movq	864(%rsp), %rax
	movq	%rax, 792(%rsp)
	movq	%rax, 2432(%rsp)
.Ltmp600:
	.loc	38 150 22
	leaq	848(%rsp), %rax
	movq	%rax, 2440(%rsp)
.Ltmp601:
	.file	39 "/home/ordyboii/.rustup/toolchains/stable-x86_64-unknown-linux-gnu/lib/rustlib/src/rust/library/core/src/slice/iter" "macros.rs"
	.loc	39 28 12
	jmp	.LBB79_6
.Ltmp602:
.LBB79_4:
	.loc	39 0 12 is_stmt 0
	movq	832(%rsp), %rax
.Ltmp603:
	.loc	7 435 9 is_stmt 1
	movq	$0, (%rax)
	xorl	%ecx, %ecx
	addq	$1, %rcx
	movq	%rcx, 8(%rax)
	movq	$0, 16(%rax)
.Ltmp604:
.LBB79_5:
	.loc	7 0 9 is_stmt 0
	movq	840(%rsp), %rax
	.loc	38 186 2 epilogue_begin is_stmt 1
	addq	$3768, %rsp
	.cfi_def_cfa_offset 8
	retq
.LBB79_6:
	.cfi_def_cfa_offset 3776
.Ltmp605:
	.loc	39 33 72
	movq	856(%rsp), %rdi
	.loc	39 33 33 is_stmt 0
	movq	%rdi, 2448(%rsp)
.Ltmp606:
	.loc	39 57 51 is_stmt 1
	movq	848(%rsp), %rsi
	.loc	39 57 26 is_stmt 0
	callq	_ZN4core3ptr8non_null16NonNull$LT$T$GT$20offset_from_unsigned17hcbd3a084cf281516E
	movq	%rax, 904(%rsp)
.Ltmp607:
	.loc	39 0 26
	movq	800(%rsp), %rax
.Ltmp608:
	.loc	17 2630 26 is_stmt 1
	mulq	904(%rsp)
	movq	%rax, %rcx
	movq	%rcx, 784(%rsp)
	seto	%al
	.loc	17 2630 21 is_stmt 0
	movb	%al, %dl
	andb	$1, %dl
	movb	%dl, 2463(%rsp)
	.loc	17 2631 14 is_stmt 1
	movq	%rcx, 2464(%rsp)
.Ltmp609:
	.loc	22 1310 8
	testb	$1, %al
	jne	.LBB79_9
.Ltmp610:
	.loc	22 0 8 is_stmt 0
	movq	784(%rsp), %rax
	.loc	17 917 56 is_stmt 1
	movq	%rax, 896(%rsp)
	movq	$1, 888(%rsp)
	.loc	17 917 13 is_stmt 0
	jmp	.LBB79_10
.LBB79_9:
	.loc	17 917 42 is_stmt 1
	movq	.Lanon.60f91fde1ce0e38296af11bc775d42ab.3(%rip), %rcx
	movq	.Lanon.60f91fde1ce0e38296af11bc775d42ab.3+8(%rip), %rax
	movq	%rcx, 888(%rsp)
	movq	%rax, 896(%rsp)
.Ltmp611:
.LBB79_10:
	.loc	8 1476 9
	testq	$1, 888(%rsp)
	je	.LBB79_12
	.loc	8 0 9 is_stmt 0
	movq	824(%rsp), %rax
	movq	816(%rsp), %rcx
	.loc	8 1477 18 is_stmt 1
	movq	896(%rsp), %rdx
	movq	%rdx, 776(%rsp)
	movq	%rdx, 2472(%rsp)
.Ltmp612:
	.loc	19 269 18
	movq	%rax, 2480(%rsp)
	movq	%rcx, 2488(%rsp)
.Ltmp613:
	.loc	19 488 18
	movq	%rax, 2496(%rsp)
.Ltmp614:
	.loc	18 102 20
	jmp	.LBB79_14
.Ltmp615:
.LBB79_12:
	.loc	8 1478 21
	movq	.Lanon.60f91fde1ce0e38296af11bc775d42ab.3(%rip), %rcx
	movq	.Lanon.60f91fde1ce0e38296af11bc775d42ab.3+8(%rip), %rax
	movq	%rcx, 872(%rsp)
	movq	%rax, 880(%rsp)
.Ltmp616:
.LBB79_13:
	.loc	8 956 9
	testq	$1, 872(%rsp)
	jne	.LBB79_16
	jmp	.LBB79_17
.Ltmp617:
.LBB79_14:
	.loc	8 0 9 is_stmt 0
	movq	824(%rsp), %rax
	movq	816(%rsp), %rcx
.Ltmp618:
	.loc	19 391 18 is_stmt 1
	movq	%rax, 2504(%rsp)
.Ltmp619:
	.loc	20 1056 18
	imulq	$24, %rcx, %rcx
	addq	%rcx, %rax
.Ltmp620:
	.loc	18 102 63
	movq	%rax, 1168(%rsp)
	.loc	18 0 63 is_stmt 0
	movq	776(%rsp), %rsi
	movq	824(%rsp), %rcx
.Ltmp621:
	.loc	18 104 25 is_stmt 1
	movq	1168(%rsp), %rax
	.loc	18 104 13 is_stmt 0
	movq	%rcx, 2512(%rsp)
	movq	%rax, 2520(%rsp)
.Ltmp622:
	.loc	1 69 9 is_stmt 1
	movq	%rcx, 1152(%rsp)
	movq	%rax, 1160(%rsp)
.Ltmp623:
	.loc	38 152 13
	leaq	1152(%rsp), %rax
	movq	%rax, 2528(%rsp)
.Ltmp624:
	.loc	1 121 47
	leaq	1152(%rsp), %rdx
	addq	$16, %rdx
	movq	%rdx, 2536(%rsp)
	.loc	1 121 9 is_stmt 0
	leaq	1152(%rsp), %rdi
	callq	_ZN4core4iter6traits8iterator8Iterator8try_fold17hf7ef6b6ec9529151E
	movq	%rax, 872(%rsp)
	movq	%rdx, 880(%rsp)
.Ltmp625:
	.loc	8 1477 27 is_stmt 1
	jmp	.LBB79_13
.Ltmp626:
.LBB79_16:
	.loc	8 957 18
	movq	880(%rsp), %rdi
	movq	%rdi, 752(%rsp)
	movq	%rdi, 2544(%rsp)
.Ltmp627:
	.loc	6 190 20
	leaq	.Lanon.60f91fde1ce0e38296af11bc775d42ab.41(%rip), %rcx
	movl	$1, %edx
	movq	%rdx, %rsi
	callq	_ZN5alloc7raw_vec20RawVecInner$LT$A$GT$16with_capacity_in17h05a0957b7809f1a2E
	movq	792(%rsp), %rdi
.Ltmp628:
	.loc	7 815 9
	movq	%rax, 912(%rsp)
	movq	%rdx, 920(%rsp)
	movq	$0, 928(%rsp)
	leaq	912(%rsp), %rax
.Ltmp629:
	.loc	38 160 5
	movq	%rax, 2552(%rsp)
.Ltmp469:
	.loc	38 160 30 is_stmt 0
	callq	_ZN5alloc3str83_$LT$impl$u20$core..borrow..Borrow$LT$str$GT$$u20$for$u20$alloc..string..String$GT$6borrow17h63f4a7a909b9a8f6E
.Ltmp470:
	movq	%rdx, 760(%rsp)
	movq	%rax, 768(%rsp)
	jmp	.LBB79_20
.Ltmp630:
.LBB79_17:
	.loc	8 958 21 is_stmt 1
	leaq	.Lanon.60f91fde1ce0e38296af11bc775d42ab.36(%rip), %rdi
	movl	$53, %esi
	leaq	.Lanon.60f91fde1ce0e38296af11bc775d42ab.40(%rip), %rdx
	callq	*_ZN4core6option13expect_failed17h1fcc4e32848a6083E@GOTPCREL(%rip)
.Ltmp631:
.LBB79_18:
.Ltmp572:
	.loc	8 0 21 is_stmt 0
	leaq	912(%rsp), %rdi
.Ltmp632:
	.loc	38 186 1 is_stmt 1
	callq	_ZN4core3ptr46drop_in_place$LT$alloc..vec..Vec$LT$u8$GT$$GT$17hce2efa0d0f5cfee9E
.Ltmp573:
	jmp	.LBB79_138
.LBB79_19:
.Ltmp571:
	.loc	38 0 1 is_stmt 0
	movq	%rax, %rcx
	movl	%edx, %eax
	movq	%rcx, 2560(%rsp)
	movl	%eax, 2568(%rsp)
	jmp	.LBB79_18
.LBB79_20:
.Ltmp471:
	movq	760(%rsp), %rsi
	movq	768(%rsp), %rdi
.Ltmp633:
	.loc	38 160 30 is_stmt 1
	callq	_ZN4core3str74_$LT$impl$u20$core..convert..AsRef$LT$$u5b$u8$u5d$$GT$$u20$for$u20$str$GT$6as_ref17h71122c9018f4e328E
.Ltmp472:
	movq	%rdx, 736(%rsp)
	movq	%rax, 744(%rsp)
	jmp	.LBB79_21
.LBB79_21:
	.loc	38 0 30 is_stmt 0
	movq	744(%rsp), %rax
	movq	736(%rsp), %rcx
	.loc	38 160 30
	movq	%rax, 2576(%rsp)
	movq	%rcx, 2584(%rsp)
.Ltmp634:
	.loc	18 97 19 is_stmt 1
	movq	%rcx, 2592(%rsp)
.Ltmp635:
	.loc	19 269 18
	movq	%rax, 2600(%rsp)
	movq	%rcx, 2608(%rsp)
.Ltmp636:
	.loc	19 488 18
	movq	%rax, 2616(%rsp)
.Ltmp637:
	.loc	19 0 18 is_stmt 0
	movq	736(%rsp), %rcx
	movq	744(%rsp), %rax
.Ltmp638:
	.loc	19 391 18 is_stmt 1
	movq	%rax, 2624(%rsp)
.Ltmp639:
	.loc	20 1056 18
	addq	%rcx, %rax
.Ltmp640:
	.loc	18 102 63
	movq	%rax, 1176(%rsp)
	.loc	18 0 63 is_stmt 0
	movq	744(%rsp), %rsi
.Ltmp641:
	.loc	18 104 25 is_stmt 1
	movq	1176(%rsp), %rdx
.Ltmp642:
.Ltmp473:
	.loc	7 3067 9
	leaq	.Lanon.60f91fde1ce0e38296af11bc775d42ab.42(%rip), %rcx
	movq	_ZN132_$LT$alloc..vec..Vec$LT$T$C$A$GT$$u20$as$u20$alloc..vec..spec_extend..SpecExtend$LT$$RF$T$C$core..slice..iter..Iter$LT$T$GT$$GT$$GT$11spec_extend17hcf5ccbed4852be19E@GOTPCREL(%rip), %rax
	leaq	912(%rsp), %rdi
	callq	*%rax
.Ltmp474:
	jmp	.LBB79_24
.Ltmp643:
.LBB79_24:
	.loc	38 163 19
	leaq	912(%rsp), %rax
	movq	%rax, 2632(%rsp)
.Ltmp644:
	.loc	7 2706 19
	movq	928(%rsp), %rax
	movq	%rax, 720(%rsp)
	movq	%rax, 2640(%rsp)
.Ltmp645:
	.loc	38 164 22
	leaq	912(%rsp), %rax
	movq	%rax, 2648(%rsp)
.Ltmp646:
	.loc	6 512 9
	movq	920(%rsp), %rax
.Ltmp647:
	.loc	19 391 18
	movq	%rax, 2656(%rsp)
.Ltmp648:
	.loc	7 2911 39
	movq	928(%rsp), %rcx
	movq	%rcx, 2664(%rsp)
.Ltmp649:
	.loc	20 1056 18
	addq	%rcx, %rax
	movq	%rax, 728(%rsp)
.Ltmp650:
	.loc	7 2911 17
	movq	%rax, 2672(%rsp)
	.loc	7 2912 17
	leaq	912(%rsp), %rax
	movq	%rax, 2680(%rsp)
.Ltmp651:
	.loc	6 299 9
	leaq	912(%rsp), %rax
	movq	%rax, 2688(%rsp)
.Ltmp652:
	.loc	29 305 5
	movq	$1, 2696(%rsp)
.Ltmp653:
	.loc	6 517 49
	movq	912(%rsp), %rax
	movq	%rax, 2704(%rsp)
.Ltmp654:
	.file	40 "/home/ordyboii/.rustup/toolchains/stable-x86_64-unknown-linux-gnu/lib/rustlib/src/rust/library/core/src/num" "niche_types.rs"
	.loc	40 61 26
	movq	%rax, 1184(%rsp)
.Ltmp655:
	.loc	7 2912 39
	movq	928(%rsp), %rcx
	.loc	7 2912 17 is_stmt 0
	movq	1184(%rsp), %rax
	subq	%rcx, %rax
	movq	%rax, 712(%rsp)
	movq	%rax, 2712(%rsp)
	.loc	7 0 17
	movq	712(%rsp), %rcx
	movq	728(%rsp), %rdi
.Ltmp656:
	.loc	2 75 17 is_stmt 1
	movl	$1, %edx
	movq	%rdx, %rsi
	callq	_ZN4core5slice3raw18from_raw_parts_mut18precondition_check17h2e7ee05c764771a0E
	.loc	2 0 17 is_stmt 0
	movq	720(%rsp), %rcx
	movq	752(%rsp), %rax
	movq	712(%rsp), %rdx
	movq	728(%rsp), %rsi
.Ltmp657:
	.loc	36 129 5 is_stmt 1
	movq	%rsi, 2720(%rsp)
	movq	%rdx, 2728(%rsp)
.Ltmp658:
	.loc	38 164 70
	subq	%rcx, %rax
	movq	%rax, 704(%rsp)
	movq	%rax, 2736(%rsp)
	.loc	38 0 70 is_stmt 0
	movq	712(%rsp), %rdx
	movq	704(%rsp), %rsi
.Ltmp659:
	.loc	2 75 17 is_stmt 1
	xorl	%eax, %eax
	movl	%eax, %edi
	callq	_ZN106_$LT$core..ops..range..Range$LT$usize$GT$$u20$as$u20$core..slice..index..SliceIndex$LT$$u5b$T$u5d$$GT$$GT$17get_unchecked_mut18precondition_check17h9361b567bc89acc4E
.Ltmp660:
	.loc	2 0 17 is_stmt 0
	movq	808(%rsp), %rax
	movq	704(%rsp), %rcx
	movq	728(%rsp), %rdx
	.loc	21 684 18 is_stmt 1
	movq	%rdx, 2744(%rsp)
	movq	%rcx, 2752(%rsp)
.Ltmp661:
	.loc	21 720 9
	movq	%rax, 2760(%rsp)
.Ltmp662:
	.loc	23 66 9
	movq	%rax, 2768(%rsp)
.Ltmp663:
	.loc	23 0 9 is_stmt 0
	movq	800(%rsp), %rcx
	movq	808(%rsp), %rdi
.Ltmp664:
	.loc	2 75 17 is_stmt 1
	movl	$1, %edx
	movq	%rdx, %rsi
	callq	_ZN4core5slice3raw14from_raw_parts18precondition_check17hfa653467a729f925E
	.loc	2 0 17 is_stmt 0
	movq	800(%rsp), %rax
	movq	704(%rsp), %rcx
	movq	728(%rsp), %rdx
	movq	808(%rsp), %rsi
.Ltmp665:
	.loc	36 116 5 is_stmt 1
	movq	%rsi, 2776(%rsp)
	movq	%rax, 2784(%rsp)
.Ltmp666:
	.loc	38 169 27
	movq	848(%rsp), %rdi
	movq	%rdi, 680(%rsp)
	movq	856(%rsp), %rsi
	movq	%rsi, 688(%rsp)
	movq	%rdi, 2792(%rsp)
	movq	%rsi, 2800(%rsp)
.Ltmp667:
	.loc	1 69 9
	movq	%rdi, 2808(%rsp)
	movq	%rsi, 2816(%rsp)
.Ltmp668:
	.loc	38 177 58
	movq	%rdx, 936(%rsp)
	movq	%rcx, 944(%rsp)
.Ltmp669:
	.loc	38 86 9
	movq	%rax, %rcx
	movq	%rcx, 696(%rsp)
	subq	$4, %rax
	ja	.LBB79_33
	.loc	38 0 9 is_stmt 0
	movq	696(%rsp), %rax
	leaq	.LJTI79_0(%rip), %rcx
	.loc	38 86 9
	movslq	(%rcx,%rax,4), %rax
	addq	%rcx, %rax
	jmpq	*%rax
.LBB79_33:
	.loc	38 0 9
	movq	688(%rsp), %rax
	movq	680(%rsp), %rcx
	.loc	38 100 26 is_stmt 1
	movq	%rcx, 1112(%rsp)
	movq	%rax, 1120(%rsp)
.Ltmp670:
	.loc	38 100 17 is_stmt 0
	jmp	.LBB79_121
.Ltmp671:
.LBB79_34:
	.loc	38 0 17
	movq	688(%rsp), %rax
	movq	680(%rsp), %rcx
	.loc	38 91 30 is_stmt 1
	movq	%rcx, 952(%rsp)
	movq	%rax, 960(%rsp)
.Ltmp672:
	.loc	38 91 21 is_stmt 0
	jmp	.LBB79_39
.Ltmp673:
.LBB79_35:
	.loc	38 0 21
	movq	688(%rsp), %rax
	movq	680(%rsp), %rcx
	.loc	38 91 30 is_stmt 1
	movq	%rcx, 984(%rsp)
	movq	%rax, 992(%rsp)
.Ltmp674:
	.loc	38 91 21 is_stmt 0
	jmp	.LBB79_57
.Ltmp675:
.LBB79_36:
	.loc	38 0 21
	movq	688(%rsp), %rax
	movq	680(%rsp), %rcx
	.loc	38 91 30 is_stmt 1
	movq	%rcx, 1016(%rsp)
	movq	%rax, 1024(%rsp)
.Ltmp676:
	.loc	38 91 21 is_stmt 0
	jmp	.LBB79_73
.Ltmp677:
.LBB79_37:
	.loc	38 0 21
	movq	688(%rsp), %rax
	movq	680(%rsp), %rcx
	.loc	38 91 30 is_stmt 1
	movq	%rcx, 1048(%rsp)
	movq	%rax, 1056(%rsp)
.Ltmp678:
	.loc	38 91 21 is_stmt 0
	jmp	.LBB79_89
.Ltmp679:
.LBB79_38:
	.loc	38 0 21
	movq	688(%rsp), %rax
	movq	680(%rsp), %rcx
	.loc	38 91 30 is_stmt 1
	movq	%rcx, 1080(%rsp)
	movq	%rax, 1088(%rsp)
.Ltmp680:
	.loc	38 91 21 is_stmt 0
	jmp	.LBB79_105
.Ltmp681:
.LBB79_39:
	.loc	38 0 21
	leaq	952(%rsp), %rdi
.Ltmp682:
	.loc	38 91 30
	movq	%rdi, 2824(%rsp)
.Ltmp539:
.Ltmp683:
	.loc	1 107 9 is_stmt 1
	callq	_ZN91_$LT$core..slice..iter..Iter$LT$T$GT$$u20$as$u20$core..iter..traits..iterator..Iterator$GT$4next17h7af0fbcb442ddb87E
.Ltmp540:
	movq	%rax, 672(%rsp)
	jmp	.LBB79_40
.LBB79_40:
	.loc	1 0 9 is_stmt 0
	movq	672(%rsp), %rax
	.loc	1 107 9
	movq	%rax, 1192(%rsp)
	.loc	1 107 30
	leaq	952(%rsp), %rax
	addq	$16, %rax
	movq	%rax, 664(%rsp)
	movq	%rax, 2832(%rsp)
.Ltmp684:
	.loc	8 1143 15 is_stmt 1
	movq	1192(%rsp), %rdx
	movl	$1, %eax
	xorl	%ecx, %ecx
	cmpq	$0, %rdx
	cmoveq	%rcx, %rax
	.loc	8 1143 9 is_stmt 0
	testq	$1, %rax
	je	.LBB79_42
	.loc	8 0 9
	movq	664(%rsp), %rdi
	.loc	8 1144 18 is_stmt 1
	movq	1192(%rsp), %rsi
	movq	%rsi, 2840(%rsp)
.Ltmp685:
	.loc	8 1144 29 is_stmt 0
	movq	%rsi, 2848(%rsp)
.Ltmp541:
.Ltmp686:
	.loc	27 305 13 is_stmt 1
	callq	_ZN5alloc3str17join_generic_copy28_$u7b$$u7b$closure$u7d$$u7d$17he5dd1b03df1432edE
.Ltmp542:
	movq	%rdx, 648(%rsp)
	movq	%rax, 656(%rsp)
	jmp	.LBB79_44
.Ltmp687:
.LBB79_42:
	.loc	8 1145 21
	movq	.Lanon.60f91fde1ce0e38296af11bc775d42ab.3(%rip), %rcx
	movq	.Lanon.60f91fde1ce0e38296af11bc775d42ab.3+8(%rip), %rax
	movq	%rcx, 968(%rsp)
	movq	%rax, 976(%rsp)
.Ltmp688:
.LBB79_43:
	.loc	38 91 30
	movq	968(%rsp), %rdx
	movl	$1, %eax
	xorl	%ecx, %ecx
	cmpq	$0, %rdx
	cmoveq	%rcx, %rax
	testq	$1, %rax
	jne	.LBB79_45
	jmp	.LBB79_46
.LBB79_44:
	.loc	38 0 30 is_stmt 0
	movq	648(%rsp), %rax
	movq	656(%rsp), %rcx
.Ltmp689:
	.loc	8 1144 24 is_stmt 1
	movq	%rcx, 968(%rsp)
	movq	%rax, 976(%rsp)
.Ltmp690:
	.loc	8 1144 33 is_stmt 0
	jmp	.LBB79_43
.Ltmp691:
.LBB79_45:
	.loc	8 0 33
	movq	800(%rsp), %rax
	.loc	38 91 25 is_stmt 1
	movq	968(%rsp), %rdx
	movq	%rdx, 616(%rsp)
	movq	976(%rsp), %rcx
	movq	%rcx, 624(%rsp)
	movq	%rdx, 2856(%rsp)
	movq	%rcx, 2864(%rsp)
.Ltmp692:
	.loc	38 92 49
	movq	936(%rsp), %rdx
	movq	%rdx, 632(%rsp)
	movq	944(%rsp), %rcx
	movq	%rcx, 640(%rsp)
	movq	%rdx, 2872(%rsp)
	movq	%rcx, 2880(%rsp)
.Ltmp693:
	.loc	21 2218 12
	cmpq	%rcx, %rax
	jbe	.LBB79_49
	jmp	.LBB79_48
.Ltmp694:
.LBB79_46:
	.loc	38 95 21
	jmp	.LBB79_47
.LBB79_47:
	.loc	38 0 21 is_stmt 0
	movq	832(%rsp), %rax
	movq	752(%rsp), %rcx
	.loc	38 107 9 is_stmt 1
	movq	936(%rsp), %rsi
	movq	944(%rsp), %rdx
	movq	%rsi, 3616(%rsp)
	movq	%rdx, 3624(%rsp)
.Ltmp695:
	.loc	38 182 26
	subq	%rdx, %rcx
	movq	%rcx, 3632(%rsp)
.Ltmp696:
	.loc	38 183 9
	leaq	912(%rsp), %rdx
	movq	%rdx, 3640(%rsp)
.Ltmp697:
	.loc	7 1923 9
	movq	%rcx, 928(%rsp)
.Ltmp698:
	.loc	38 185 5
	movq	912(%rsp), %rcx
	movq	%rcx, (%rax)
	movq	920(%rsp), %rcx
	movq	%rcx, 8(%rax)
	movq	928(%rsp), %rcx
	movq	%rcx, 16(%rax)
.Ltmp699:
	.loc	38 186 2
	jmp	.LBB79_5
.LBB79_48:
.Ltmp700:
	.loc	5 236 9
	leaq	.Lanon.60f91fde1ce0e38296af11bc775d42ab.38(%rip), %rax
	movq	%rax, 1200(%rsp)
	movq	$1, 1208(%rsp)
	movq	.Lanon.60f91fde1ce0e38296af11bc775d42ab.3(%rip), %rcx
	movq	.Lanon.60f91fde1ce0e38296af11bc775d42ab.3+8(%rip), %rax
	movq	%rcx, 1232(%rsp)
	movq	%rax, 1240(%rsp)
	movq	$8, 1216(%rsp)
	movq	$0, 1224(%rsp)
.Ltmp701:
.Ltmp543:
	.loc	21 2016 21
	leaq	.Lanon.60f91fde1ce0e38296af11bc775d42ab.43(%rip), %rsi
	movq	_ZN4core9panicking9panic_fmt17hc8737e8cca20a7c8E@GOTPCREL(%rip), %rax
	leaq	1200(%rsp), %rdi
	callq	*%rax
.Ltmp544:
	jmp	.LBB79_50
.LBB79_49:
.Ltmp545:
	.loc	21 0 21 is_stmt 0
	movq	800(%rsp), %rcx
	movq	640(%rsp), %rdx
	movq	632(%rsp), %rsi
	leaq	1248(%rsp), %rdi
.Ltmp702:
	.loc	21 2221 27 is_stmt 1
	callq	_ZN4core5slice29_$LT$impl$u20$$u5b$T$u5d$$GT$22split_at_mut_unchecked17hf356a30103ff69fbE
.Ltmp546:
	jmp	.LBB79_51
.Ltmp703:
.LBB79_50:
	.loc	21 0 27 is_stmt 0
	ud2
.LBB79_51:
	movq	800(%rsp), %rcx
	movq	808(%rsp), %rdx
	.loc	21 2015 18 is_stmt 1
	movq	1248(%rsp), %rdi
	movq	1256(%rsp), %rsi
	movq	%rdi, 2888(%rsp)
	movq	%rsi, 2896(%rsp)
	movq	1264(%rsp), %r8
	movq	%r8, 600(%rsp)
	movq	1272(%rsp), %rax
	movq	%rax, 608(%rsp)
	movq	%r8, 2904(%rsp)
	movq	%rax, 2912(%rsp)
.Ltmp704:
.Ltmp547:
	.loc	38 116 9
	leaq	.Lanon.60f91fde1ce0e38296af11bc775d42ab.43(%rip), %r8
	callq	_ZN4core5slice29_$LT$impl$u20$$u5b$T$u5d$$GT$15copy_from_slice17h506442b2f1ca0c87E
.Ltmp548:
	jmp	.LBB79_52
.LBB79_52:
	.loc	38 0 9 is_stmt 0
	movq	624(%rsp), %rax
	movq	608(%rsp), %rcx
	movq	600(%rsp), %rdx
	.loc	38 117 9 is_stmt 1
	movq	%rdx, 936(%rsp)
	movq	%rcx, 944(%rsp)
.Ltmp705:
	.loc	38 114 19
	movq	%rax, 2920(%rsp)
.Ltmp706:
	.loc	38 94 49
	movq	936(%rsp), %rdx
	movq	%rdx, 584(%rsp)
	movq	944(%rsp), %rcx
	movq	%rcx, 592(%rsp)
	movq	%rdx, 2928(%rsp)
	movq	%rcx, 2936(%rsp)
.Ltmp707:
	.loc	21 2218 12
	cmpq	%rcx, %rax
	jbe	.LBB79_54
.Ltmp708:
	.loc	5 236 9
	leaq	.Lanon.60f91fde1ce0e38296af11bc775d42ab.38(%rip), %rax
	movq	%rax, 1280(%rsp)
	movq	$1, 1288(%rsp)
	movq	.Lanon.60f91fde1ce0e38296af11bc775d42ab.3(%rip), %rcx
	movq	.Lanon.60f91fde1ce0e38296af11bc775d42ab.3+8(%rip), %rax
	movq	%rcx, 1312(%rsp)
	movq	%rax, 1320(%rsp)
	movq	$8, 1296(%rsp)
	movq	$0, 1304(%rsp)
.Ltmp709:
.Ltmp549:
	.loc	21 2016 21
	leaq	.Lanon.60f91fde1ce0e38296af11bc775d42ab.43(%rip), %rsi
	movq	_ZN4core9panicking9panic_fmt17hc8737e8cca20a7c8E@GOTPCREL(%rip), %rax
	leaq	1280(%rsp), %rdi
	callq	*%rax
.Ltmp550:
	jmp	.LBB79_50
.LBB79_54:
.Ltmp551:
	.loc	21 0 21 is_stmt 0
	movq	624(%rsp), %rcx
	movq	592(%rsp), %rdx
	movq	584(%rsp), %rsi
	leaq	1328(%rsp), %rdi
.Ltmp710:
	.loc	21 2221 27 is_stmt 1
	callq	_ZN4core5slice29_$LT$impl$u20$$u5b$T$u5d$$GT$22split_at_mut_unchecked17hf356a30103ff69fbE
.Ltmp552:
	jmp	.LBB79_55
.Ltmp711:
.LBB79_55:
	.loc	21 0 27 is_stmt 0
	movq	624(%rsp), %rcx
	movq	616(%rsp), %rdx
	.loc	21 2015 18 is_stmt 1
	movq	1328(%rsp), %rdi
	movq	1336(%rsp), %rsi
	movq	%rdi, 2944(%rsp)
	movq	%rsi, 2952(%rsp)
	movq	1344(%rsp), %r8
	movq	%r8, 568(%rsp)
	movq	1352(%rsp), %rax
	movq	%rax, 576(%rsp)
	movq	%r8, 2960(%rsp)
	movq	%rax, 2968(%rsp)
.Ltmp712:
.Ltmp553:
	.loc	38 116 9
	leaq	.Lanon.60f91fde1ce0e38296af11bc775d42ab.43(%rip), %r8
	callq	_ZN4core5slice29_$LT$impl$u20$$u5b$T$u5d$$GT$15copy_from_slice17h506442b2f1ca0c87E
.Ltmp554:
	jmp	.LBB79_56
.LBB79_56:
	.loc	38 0 9 is_stmt 0
	movq	576(%rsp), %rax
	movq	568(%rsp), %rcx
	.loc	38 117 9 is_stmt 1
	movq	%rcx, 936(%rsp)
	movq	%rax, 944(%rsp)
.Ltmp713:
	.loc	38 91 21
	jmp	.LBB79_39
.Ltmp714:
.LBB79_57:
	.loc	38 0 21 is_stmt 0
	leaq	984(%rsp), %rdi
.Ltmp715:
	.loc	38 91 30
	movq	%rdi, 2976(%rsp)
.Ltmp523:
.Ltmp716:
	.loc	1 107 9 is_stmt 1
	callq	_ZN91_$LT$core..slice..iter..Iter$LT$T$GT$$u20$as$u20$core..iter..traits..iterator..Iterator$GT$4next17h7af0fbcb442ddb87E
.Ltmp524:
	movq	%rax, 560(%rsp)
	jmp	.LBB79_58
.LBB79_58:
	.loc	1 0 9 is_stmt 0
	movq	560(%rsp), %rax
	.loc	1 107 9
	movq	%rax, 1360(%rsp)
	.loc	1 107 30
	leaq	984(%rsp), %rax
	addq	$16, %rax
	movq	%rax, 552(%rsp)
	movq	%rax, 2984(%rsp)
.Ltmp717:
	.loc	8 1143 15 is_stmt 1
	movq	1360(%rsp), %rdx
	movl	$1, %eax
	xorl	%ecx, %ecx
	cmpq	$0, %rdx
	cmoveq	%rcx, %rax
	.loc	8 1143 9 is_stmt 0
	testq	$1, %rax
	je	.LBB79_60
	.loc	8 0 9
	movq	552(%rsp), %rdi
	.loc	8 1144 18 is_stmt 1
	movq	1360(%rsp), %rsi
	movq	%rsi, 2992(%rsp)
.Ltmp718:
	.loc	8 1144 29 is_stmt 0
	movq	%rsi, 3000(%rsp)
.Ltmp525:
.Ltmp719:
	.loc	27 305 13 is_stmt 1
	callq	_ZN5alloc3str17join_generic_copy28_$u7b$$u7b$closure$u7d$$u7d$17he5dd1b03df1432edE
.Ltmp526:
	movq	%rdx, 536(%rsp)
	movq	%rax, 544(%rsp)
	jmp	.LBB79_62
.Ltmp720:
.LBB79_60:
	.loc	8 1145 21
	movq	.Lanon.60f91fde1ce0e38296af11bc775d42ab.3(%rip), %rcx
	movq	.Lanon.60f91fde1ce0e38296af11bc775d42ab.3+8(%rip), %rax
	movq	%rcx, 1000(%rsp)
	movq	%rax, 1008(%rsp)
.Ltmp721:
.LBB79_61:
	.loc	38 91 30
	movq	1000(%rsp), %rdx
	movl	$1, %eax
	xorl	%ecx, %ecx
	cmpq	$0, %rdx
	cmoveq	%rcx, %rax
	testq	$1, %rax
	jne	.LBB79_63
	jmp	.LBB79_64
.LBB79_62:
	.loc	38 0 30 is_stmt 0
	movq	536(%rsp), %rax
	movq	544(%rsp), %rcx
.Ltmp722:
	.loc	8 1144 24 is_stmt 1
	movq	%rcx, 1000(%rsp)
	movq	%rax, 1008(%rsp)
.Ltmp723:
	.loc	8 1144 33 is_stmt 0
	jmp	.LBB79_61
.Ltmp724:
.LBB79_63:
	.loc	8 0 33
	movq	800(%rsp), %rax
	.loc	38 91 25 is_stmt 1
	movq	1000(%rsp), %rdx
	movq	%rdx, 504(%rsp)
	movq	1008(%rsp), %rcx
	movq	%rcx, 512(%rsp)
	movq	%rdx, 3008(%rsp)
	movq	%rcx, 3016(%rsp)
.Ltmp725:
	.loc	38 92 49
	movq	936(%rsp), %rdx
	movq	%rdx, 520(%rsp)
	movq	944(%rsp), %rcx
	movq	%rcx, 528(%rsp)
	movq	%rdx, 3024(%rsp)
	movq	%rcx, 3032(%rsp)
.Ltmp726:
	.loc	21 2218 12
	cmpq	%rcx, %rax
	jbe	.LBB79_66
	jmp	.LBB79_65
.Ltmp727:
.LBB79_64:
	.loc	38 95 21
	jmp	.LBB79_47
.LBB79_65:
.Ltmp728:
	.loc	5 236 9
	leaq	.Lanon.60f91fde1ce0e38296af11bc775d42ab.38(%rip), %rax
	movq	%rax, 1368(%rsp)
	movq	$1, 1376(%rsp)
	movq	.Lanon.60f91fde1ce0e38296af11bc775d42ab.3(%rip), %rcx
	movq	.Lanon.60f91fde1ce0e38296af11bc775d42ab.3+8(%rip), %rax
	movq	%rcx, 1400(%rsp)
	movq	%rax, 1408(%rsp)
	movq	$8, 1384(%rsp)
	movq	$0, 1392(%rsp)
.Ltmp729:
.Ltmp527:
	.loc	21 2016 21
	leaq	.Lanon.60f91fde1ce0e38296af11bc775d42ab.43(%rip), %rsi
	movq	_ZN4core9panicking9panic_fmt17hc8737e8cca20a7c8E@GOTPCREL(%rip), %rax
	leaq	1368(%rsp), %rdi
	callq	*%rax
.Ltmp528:
	jmp	.LBB79_50
.LBB79_66:
.Ltmp529:
	.loc	21 0 21 is_stmt 0
	movq	800(%rsp), %rcx
	movq	528(%rsp), %rdx
	movq	520(%rsp), %rsi
	leaq	1416(%rsp), %rdi
.Ltmp730:
	.loc	21 2221 27 is_stmt 1
	callq	_ZN4core5slice29_$LT$impl$u20$$u5b$T$u5d$$GT$22split_at_mut_unchecked17hf356a30103ff69fbE
.Ltmp530:
	jmp	.LBB79_67
.Ltmp731:
.LBB79_67:
	.loc	21 0 27 is_stmt 0
	movq	800(%rsp), %rcx
	movq	808(%rsp), %rdx
	.loc	21 2015 18 is_stmt 1
	movq	1416(%rsp), %rdi
	movq	1424(%rsp), %rsi
	movq	%rdi, 3040(%rsp)
	movq	%rsi, 3048(%rsp)
	movq	1432(%rsp), %r8
	movq	%r8, 488(%rsp)
	movq	1440(%rsp), %rax
	movq	%rax, 496(%rsp)
	movq	%r8, 3056(%rsp)
	movq	%rax, 3064(%rsp)
.Ltmp732:
.Ltmp531:
	.loc	38 116 9
	leaq	.Lanon.60f91fde1ce0e38296af11bc775d42ab.43(%rip), %r8
	callq	_ZN4core5slice29_$LT$impl$u20$$u5b$T$u5d$$GT$15copy_from_slice17h506442b2f1ca0c87E
.Ltmp532:
	jmp	.LBB79_68
.LBB79_68:
	.loc	38 0 9 is_stmt 0
	movq	512(%rsp), %rax
	movq	496(%rsp), %rcx
	movq	488(%rsp), %rdx
	.loc	38 117 9 is_stmt 1
	movq	%rdx, 936(%rsp)
	movq	%rcx, 944(%rsp)
.Ltmp733:
	.loc	38 114 19
	movq	%rax, 3072(%rsp)
.Ltmp734:
	.loc	38 94 49
	movq	936(%rsp), %rdx
	movq	%rdx, 472(%rsp)
	movq	944(%rsp), %rcx
	movq	%rcx, 480(%rsp)
	movq	%rdx, 3080(%rsp)
	movq	%rcx, 3088(%rsp)
.Ltmp735:
	.loc	21 2218 12
	cmpq	%rcx, %rax
	jbe	.LBB79_70
.Ltmp736:
	.loc	5 236 9
	leaq	.Lanon.60f91fde1ce0e38296af11bc775d42ab.38(%rip), %rax
	movq	%rax, 1448(%rsp)
	movq	$1, 1456(%rsp)
	movq	.Lanon.60f91fde1ce0e38296af11bc775d42ab.3(%rip), %rcx
	movq	.Lanon.60f91fde1ce0e38296af11bc775d42ab.3+8(%rip), %rax
	movq	%rcx, 1480(%rsp)
	movq	%rax, 1488(%rsp)
	movq	$8, 1464(%rsp)
	movq	$0, 1472(%rsp)
.Ltmp737:
.Ltmp533:
	.loc	21 2016 21
	leaq	.Lanon.60f91fde1ce0e38296af11bc775d42ab.43(%rip), %rsi
	movq	_ZN4core9panicking9panic_fmt17hc8737e8cca20a7c8E@GOTPCREL(%rip), %rax
	leaq	1448(%rsp), %rdi
	callq	*%rax
.Ltmp534:
	jmp	.LBB79_50
.LBB79_70:
.Ltmp535:
	.loc	21 0 21 is_stmt 0
	movq	512(%rsp), %rcx
	movq	480(%rsp), %rdx
	movq	472(%rsp), %rsi
	leaq	1496(%rsp), %rdi
.Ltmp738:
	.loc	21 2221 27 is_stmt 1
	callq	_ZN4core5slice29_$LT$impl$u20$$u5b$T$u5d$$GT$22split_at_mut_unchecked17hf356a30103ff69fbE
.Ltmp536:
	jmp	.LBB79_71
.Ltmp739:
.LBB79_71:
	.loc	21 0 27 is_stmt 0
	movq	512(%rsp), %rcx
	movq	504(%rsp), %rdx
	.loc	21 2015 18 is_stmt 1
	movq	1496(%rsp), %rdi
	movq	1504(%rsp), %rsi
	movq	%rdi, 3096(%rsp)
	movq	%rsi, 3104(%rsp)
	movq	1512(%rsp), %r8
	movq	%r8, 456(%rsp)
	movq	1520(%rsp), %rax
	movq	%rax, 464(%rsp)
	movq	%r8, 3112(%rsp)
	movq	%rax, 3120(%rsp)
.Ltmp740:
.Ltmp537:
	.loc	38 116 9
	leaq	.Lanon.60f91fde1ce0e38296af11bc775d42ab.43(%rip), %r8
	callq	_ZN4core5slice29_$LT$impl$u20$$u5b$T$u5d$$GT$15copy_from_slice17h506442b2f1ca0c87E
.Ltmp538:
	jmp	.LBB79_72
.LBB79_72:
	.loc	38 0 9 is_stmt 0
	movq	464(%rsp), %rax
	movq	456(%rsp), %rcx
	.loc	38 117 9 is_stmt 1
	movq	%rcx, 936(%rsp)
	movq	%rax, 944(%rsp)
.Ltmp741:
	.loc	38 91 21
	jmp	.LBB79_57
.Ltmp742:
.LBB79_73:
	.loc	38 0 21 is_stmt 0
	leaq	1016(%rsp), %rdi
.Ltmp743:
	.loc	38 91 30
	movq	%rdi, 3128(%rsp)
.Ltmp507:
.Ltmp744:
	.loc	1 107 9 is_stmt 1
	callq	_ZN91_$LT$core..slice..iter..Iter$LT$T$GT$$u20$as$u20$core..iter..traits..iterator..Iterator$GT$4next17h7af0fbcb442ddb87E
.Ltmp508:
	movq	%rax, 448(%rsp)
	jmp	.LBB79_74
.LBB79_74:
	.loc	1 0 9 is_stmt 0
	movq	448(%rsp), %rax
	.loc	1 107 9
	movq	%rax, 1528(%rsp)
	.loc	1 107 30
	leaq	1016(%rsp), %rax
	addq	$16, %rax
	movq	%rax, 440(%rsp)
	movq	%rax, 3136(%rsp)
.Ltmp745:
	.loc	8 1143 15 is_stmt 1
	movq	1528(%rsp), %rdx
	movl	$1, %eax
	xorl	%ecx, %ecx
	cmpq	$0, %rdx
	cmoveq	%rcx, %rax
	.loc	8 1143 9 is_stmt 0
	testq	$1, %rax
	je	.LBB79_76
	.loc	8 0 9
	movq	440(%rsp), %rdi
	.loc	8 1144 18 is_stmt 1
	movq	1528(%rsp), %rsi
	movq	%rsi, 3144(%rsp)
.Ltmp746:
	.loc	8 1144 29 is_stmt 0
	movq	%rsi, 3152(%rsp)
.Ltmp509:
.Ltmp747:
	.loc	27 305 13 is_stmt 1
	callq	_ZN5alloc3str17join_generic_copy28_$u7b$$u7b$closure$u7d$$u7d$17he5dd1b03df1432edE
.Ltmp510:
	movq	%rdx, 424(%rsp)
	movq	%rax, 432(%rsp)
	jmp	.LBB79_78
.Ltmp748:
.LBB79_76:
	.loc	8 1145 21
	movq	.Lanon.60f91fde1ce0e38296af11bc775d42ab.3(%rip), %rcx
	movq	.Lanon.60f91fde1ce0e38296af11bc775d42ab.3+8(%rip), %rax
	movq	%rcx, 1032(%rsp)
	movq	%rax, 1040(%rsp)
.Ltmp749:
.LBB79_77:
	.loc	38 91 30
	movq	1032(%rsp), %rdx
	movl	$1, %eax
	xorl	%ecx, %ecx
	cmpq	$0, %rdx
	cmoveq	%rcx, %rax
	testq	$1, %rax
	jne	.LBB79_79
	jmp	.LBB79_80
.LBB79_78:
	.loc	38 0 30 is_stmt 0
	movq	424(%rsp), %rax
	movq	432(%rsp), %rcx
.Ltmp750:
	.loc	8 1144 24 is_stmt 1
	movq	%rcx, 1032(%rsp)
	movq	%rax, 1040(%rsp)
.Ltmp751:
	.loc	8 1144 33 is_stmt 0
	jmp	.LBB79_77
.Ltmp752:
.LBB79_79:
	.loc	8 0 33
	movq	800(%rsp), %rax
	.loc	38 91 25 is_stmt 1
	movq	1032(%rsp), %rdx
	movq	%rdx, 392(%rsp)
	movq	1040(%rsp), %rcx
	movq	%rcx, 400(%rsp)
	movq	%rdx, 3160(%rsp)
	movq	%rcx, 3168(%rsp)
.Ltmp753:
	.loc	38 92 49
	movq	936(%rsp), %rdx
	movq	%rdx, 408(%rsp)
	movq	944(%rsp), %rcx
	movq	%rcx, 416(%rsp)
	movq	%rdx, 3176(%rsp)
	movq	%rcx, 3184(%rsp)
.Ltmp754:
	.loc	21 2218 12
	cmpq	%rcx, %rax
	jbe	.LBB79_82
	jmp	.LBB79_81
.Ltmp755:
.LBB79_80:
	.loc	38 95 21
	jmp	.LBB79_47
.LBB79_81:
.Ltmp756:
	.loc	5 236 9
	leaq	.Lanon.60f91fde1ce0e38296af11bc775d42ab.38(%rip), %rax
	movq	%rax, 1536(%rsp)
	movq	$1, 1544(%rsp)
	movq	.Lanon.60f91fde1ce0e38296af11bc775d42ab.3(%rip), %rcx
	movq	.Lanon.60f91fde1ce0e38296af11bc775d42ab.3+8(%rip), %rax
	movq	%rcx, 1568(%rsp)
	movq	%rax, 1576(%rsp)
	movq	$8, 1552(%rsp)
	movq	$0, 1560(%rsp)
.Ltmp757:
.Ltmp511:
	.loc	21 2016 21
	leaq	.Lanon.60f91fde1ce0e38296af11bc775d42ab.43(%rip), %rsi
	movq	_ZN4core9panicking9panic_fmt17hc8737e8cca20a7c8E@GOTPCREL(%rip), %rax
	leaq	1536(%rsp), %rdi
	callq	*%rax
.Ltmp512:
	jmp	.LBB79_50
.LBB79_82:
.Ltmp513:
	.loc	21 0 21 is_stmt 0
	movq	800(%rsp), %rcx
	movq	416(%rsp), %rdx
	movq	408(%rsp), %rsi
	leaq	1584(%rsp), %rdi
.Ltmp758:
	.loc	21 2221 27 is_stmt 1
	callq	_ZN4core5slice29_$LT$impl$u20$$u5b$T$u5d$$GT$22split_at_mut_unchecked17hf356a30103ff69fbE
.Ltmp514:
	jmp	.LBB79_83
.Ltmp759:
.LBB79_83:
	.loc	21 0 27 is_stmt 0
	movq	800(%rsp), %rcx
	movq	808(%rsp), %rdx
	.loc	21 2015 18 is_stmt 1
	movq	1584(%rsp), %rdi
	movq	1592(%rsp), %rsi
	movq	%rdi, 3192(%rsp)
	movq	%rsi, 3200(%rsp)
	movq	1600(%rsp), %r8
	movq	%r8, 376(%rsp)
	movq	1608(%rsp), %rax
	movq	%rax, 384(%rsp)
	movq	%r8, 3208(%rsp)
	movq	%rax, 3216(%rsp)
.Ltmp760:
.Ltmp515:
	.loc	38 116 9
	leaq	.Lanon.60f91fde1ce0e38296af11bc775d42ab.43(%rip), %r8
	callq	_ZN4core5slice29_$LT$impl$u20$$u5b$T$u5d$$GT$15copy_from_slice17h506442b2f1ca0c87E
.Ltmp516:
	jmp	.LBB79_84
.LBB79_84:
	.loc	38 0 9 is_stmt 0
	movq	400(%rsp), %rax
	movq	384(%rsp), %rcx
	movq	376(%rsp), %rdx
	.loc	38 117 9 is_stmt 1
	movq	%rdx, 936(%rsp)
	movq	%rcx, 944(%rsp)
.Ltmp761:
	.loc	38 114 19
	movq	%rax, 3224(%rsp)
.Ltmp762:
	.loc	38 94 49
	movq	936(%rsp), %rdx
	movq	%rdx, 360(%rsp)
	movq	944(%rsp), %rcx
	movq	%rcx, 368(%rsp)
	movq	%rdx, 3232(%rsp)
	movq	%rcx, 3240(%rsp)
.Ltmp763:
	.loc	21 2218 12
	cmpq	%rcx, %rax
	jbe	.LBB79_86
.Ltmp764:
	.loc	5 236 9
	leaq	.Lanon.60f91fde1ce0e38296af11bc775d42ab.38(%rip), %rax
	movq	%rax, 1616(%rsp)
	movq	$1, 1624(%rsp)
	movq	.Lanon.60f91fde1ce0e38296af11bc775d42ab.3(%rip), %rcx
	movq	.Lanon.60f91fde1ce0e38296af11bc775d42ab.3+8(%rip), %rax
	movq	%rcx, 1648(%rsp)
	movq	%rax, 1656(%rsp)
	movq	$8, 1632(%rsp)
	movq	$0, 1640(%rsp)
.Ltmp765:
.Ltmp517:
	.loc	21 2016 21
	leaq	.Lanon.60f91fde1ce0e38296af11bc775d42ab.43(%rip), %rsi
	movq	_ZN4core9panicking9panic_fmt17hc8737e8cca20a7c8E@GOTPCREL(%rip), %rax
	leaq	1616(%rsp), %rdi
	callq	*%rax
.Ltmp518:
	jmp	.LBB79_50
.LBB79_86:
.Ltmp519:
	.loc	21 0 21 is_stmt 0
	movq	400(%rsp), %rcx
	movq	368(%rsp), %rdx
	movq	360(%rsp), %rsi
	leaq	1664(%rsp), %rdi
.Ltmp766:
	.loc	21 2221 27 is_stmt 1
	callq	_ZN4core5slice29_$LT$impl$u20$$u5b$T$u5d$$GT$22split_at_mut_unchecked17hf356a30103ff69fbE
.Ltmp520:
	jmp	.LBB79_87
.Ltmp767:
.LBB79_87:
	.loc	21 0 27 is_stmt 0
	movq	400(%rsp), %rcx
	movq	392(%rsp), %rdx
	.loc	21 2015 18 is_stmt 1
	movq	1664(%rsp), %rdi
	movq	1672(%rsp), %rsi
	movq	%rdi, 3248(%rsp)
	movq	%rsi, 3256(%rsp)
	movq	1680(%rsp), %r8
	movq	%r8, 344(%rsp)
	movq	1688(%rsp), %rax
	movq	%rax, 352(%rsp)
	movq	%r8, 3264(%rsp)
	movq	%rax, 3272(%rsp)
.Ltmp768:
.Ltmp521:
	.loc	38 116 9
	leaq	.Lanon.60f91fde1ce0e38296af11bc775d42ab.43(%rip), %r8
	callq	_ZN4core5slice29_$LT$impl$u20$$u5b$T$u5d$$GT$15copy_from_slice17h506442b2f1ca0c87E
.Ltmp522:
	jmp	.LBB79_88
.LBB79_88:
	.loc	38 0 9 is_stmt 0
	movq	352(%rsp), %rax
	movq	344(%rsp), %rcx
	.loc	38 117 9 is_stmt 1
	movq	%rcx, 936(%rsp)
	movq	%rax, 944(%rsp)
.Ltmp769:
	.loc	38 91 21
	jmp	.LBB79_73
.Ltmp770:
.LBB79_89:
	.loc	38 0 21 is_stmt 0
	leaq	1048(%rsp), %rdi
.Ltmp771:
	.loc	38 91 30
	movq	%rdi, 3280(%rsp)
.Ltmp491:
.Ltmp772:
	.loc	1 107 9 is_stmt 1
	callq	_ZN91_$LT$core..slice..iter..Iter$LT$T$GT$$u20$as$u20$core..iter..traits..iterator..Iterator$GT$4next17h7af0fbcb442ddb87E
.Ltmp492:
	movq	%rax, 336(%rsp)
	jmp	.LBB79_90
.LBB79_90:
	.loc	1 0 9 is_stmt 0
	movq	336(%rsp), %rax
	.loc	1 107 9
	movq	%rax, 1696(%rsp)
	.loc	1 107 30
	leaq	1048(%rsp), %rax
	addq	$16, %rax
	movq	%rax, 328(%rsp)
	movq	%rax, 3288(%rsp)
.Ltmp773:
	.loc	8 1143 15 is_stmt 1
	movq	1696(%rsp), %rdx
	movl	$1, %eax
	xorl	%ecx, %ecx
	cmpq	$0, %rdx
	cmoveq	%rcx, %rax
	.loc	8 1143 9 is_stmt 0
	testq	$1, %rax
	je	.LBB79_92
	.loc	8 0 9
	movq	328(%rsp), %rdi
	.loc	8 1144 18 is_stmt 1
	movq	1696(%rsp), %rsi
	movq	%rsi, 3296(%rsp)
.Ltmp774:
	.loc	8 1144 29 is_stmt 0
	movq	%rsi, 3304(%rsp)
.Ltmp493:
.Ltmp775:
	.loc	27 305 13 is_stmt 1
	callq	_ZN5alloc3str17join_generic_copy28_$u7b$$u7b$closure$u7d$$u7d$17he5dd1b03df1432edE
.Ltmp494:
	movq	%rdx, 312(%rsp)
	movq	%rax, 320(%rsp)
	jmp	.LBB79_94
.Ltmp776:
.LBB79_92:
	.loc	8 1145 21
	movq	.Lanon.60f91fde1ce0e38296af11bc775d42ab.3(%rip), %rcx
	movq	.Lanon.60f91fde1ce0e38296af11bc775d42ab.3+8(%rip), %rax
	movq	%rcx, 1064(%rsp)
	movq	%rax, 1072(%rsp)
.Ltmp777:
.LBB79_93:
	.loc	38 91 30
	movq	1064(%rsp), %rdx
	movl	$1, %eax
	xorl	%ecx, %ecx
	cmpq	$0, %rdx
	cmoveq	%rcx, %rax
	testq	$1, %rax
	jne	.LBB79_95
	jmp	.LBB79_96
.LBB79_94:
	.loc	38 0 30 is_stmt 0
	movq	312(%rsp), %rax
	movq	320(%rsp), %rcx
.Ltmp778:
	.loc	8 1144 24 is_stmt 1
	movq	%rcx, 1064(%rsp)
	movq	%rax, 1072(%rsp)
.Ltmp779:
	.loc	8 1144 33 is_stmt 0
	jmp	.LBB79_93
.Ltmp780:
.LBB79_95:
	.loc	8 0 33
	movq	800(%rsp), %rax
	.loc	38 91 25 is_stmt 1
	movq	1064(%rsp), %rdx
	movq	%rdx, 280(%rsp)
	movq	1072(%rsp), %rcx
	movq	%rcx, 288(%rsp)
	movq	%rdx, 3312(%rsp)
	movq	%rcx, 3320(%rsp)
.Ltmp781:
	.loc	38 92 49
	movq	936(%rsp), %rdx
	movq	%rdx, 296(%rsp)
	movq	944(%rsp), %rcx
	movq	%rcx, 304(%rsp)
	movq	%rdx, 3328(%rsp)
	movq	%rcx, 3336(%rsp)
.Ltmp782:
	.loc	21 2218 12
	cmpq	%rcx, %rax
	jbe	.LBB79_98
	jmp	.LBB79_97
.Ltmp783:
.LBB79_96:
	.loc	38 95 21
	jmp	.LBB79_47
.LBB79_97:
.Ltmp784:
	.loc	5 236 9
	leaq	.Lanon.60f91fde1ce0e38296af11bc775d42ab.38(%rip), %rax
	movq	%rax, 1704(%rsp)
	movq	$1, 1712(%rsp)
	movq	.Lanon.60f91fde1ce0e38296af11bc775d42ab.3(%rip), %rcx
	movq	.Lanon.60f91fde1ce0e38296af11bc775d42ab.3+8(%rip), %rax
	movq	%rcx, 1736(%rsp)
	movq	%rax, 1744(%rsp)
	movq	$8, 1720(%rsp)
	movq	$0, 1728(%rsp)
.Ltmp785:
.Ltmp495:
	.loc	21 2016 21
	leaq	.Lanon.60f91fde1ce0e38296af11bc775d42ab.43(%rip), %rsi
	movq	_ZN4core9panicking9panic_fmt17hc8737e8cca20a7c8E@GOTPCREL(%rip), %rax
	leaq	1704(%rsp), %rdi
	callq	*%rax
.Ltmp496:
	jmp	.LBB79_50
.LBB79_98:
.Ltmp497:
	.loc	21 0 21 is_stmt 0
	movq	800(%rsp), %rcx
	movq	304(%rsp), %rdx
	movq	296(%rsp), %rsi
	leaq	1752(%rsp), %rdi
.Ltmp786:
	.loc	21 2221 27 is_stmt 1
	callq	_ZN4core5slice29_$LT$impl$u20$$u5b$T$u5d$$GT$22split_at_mut_unchecked17hf356a30103ff69fbE
.Ltmp498:
	jmp	.LBB79_99
.Ltmp787:
.LBB79_99:
	.loc	21 0 27 is_stmt 0
	movq	800(%rsp), %rcx
	movq	808(%rsp), %rdx
	.loc	21 2015 18 is_stmt 1
	movq	1752(%rsp), %rdi
	movq	1760(%rsp), %rsi
	movq	%rdi, 3344(%rsp)
	movq	%rsi, 3352(%rsp)
	movq	1768(%rsp), %r8
	movq	%r8, 264(%rsp)
	movq	1776(%rsp), %rax
	movq	%rax, 272(%rsp)
	movq	%r8, 3360(%rsp)
	movq	%rax, 3368(%rsp)
.Ltmp788:
.Ltmp499:
	.loc	38 116 9
	leaq	.Lanon.60f91fde1ce0e38296af11bc775d42ab.43(%rip), %r8
	callq	_ZN4core5slice29_$LT$impl$u20$$u5b$T$u5d$$GT$15copy_from_slice17h506442b2f1ca0c87E
.Ltmp500:
	jmp	.LBB79_100
.LBB79_100:
	.loc	38 0 9 is_stmt 0
	movq	288(%rsp), %rax
	movq	272(%rsp), %rcx
	movq	264(%rsp), %rdx
	.loc	38 117 9 is_stmt 1
	movq	%rdx, 936(%rsp)
	movq	%rcx, 944(%rsp)
.Ltmp789:
	.loc	38 114 19
	movq	%rax, 3376(%rsp)
.Ltmp790:
	.loc	38 94 49
	movq	936(%rsp), %rdx
	movq	%rdx, 248(%rsp)
	movq	944(%rsp), %rcx
	movq	%rcx, 256(%rsp)
	movq	%rdx, 3384(%rsp)
	movq	%rcx, 3392(%rsp)
.Ltmp791:
	.loc	21 2218 12
	cmpq	%rcx, %rax
	jbe	.LBB79_102
.Ltmp792:
	.loc	5 236 9
	leaq	.Lanon.60f91fde1ce0e38296af11bc775d42ab.38(%rip), %rax
	movq	%rax, 1784(%rsp)
	movq	$1, 1792(%rsp)
	movq	.Lanon.60f91fde1ce0e38296af11bc775d42ab.3(%rip), %rcx
	movq	.Lanon.60f91fde1ce0e38296af11bc775d42ab.3+8(%rip), %rax
	movq	%rcx, 1816(%rsp)
	movq	%rax, 1824(%rsp)
	movq	$8, 1800(%rsp)
	movq	$0, 1808(%rsp)
.Ltmp793:
.Ltmp501:
	.loc	21 2016 21
	leaq	.Lanon.60f91fde1ce0e38296af11bc775d42ab.43(%rip), %rsi
	movq	_ZN4core9panicking9panic_fmt17hc8737e8cca20a7c8E@GOTPCREL(%rip), %rax
	leaq	1784(%rsp), %rdi
	callq	*%rax
.Ltmp502:
	jmp	.LBB79_50
.LBB79_102:
.Ltmp503:
	.loc	21 0 21 is_stmt 0
	movq	288(%rsp), %rcx
	movq	256(%rsp), %rdx
	movq	248(%rsp), %rsi
	leaq	1832(%rsp), %rdi
.Ltmp794:
	.loc	21 2221 27 is_stmt 1
	callq	_ZN4core5slice29_$LT$impl$u20$$u5b$T$u5d$$GT$22split_at_mut_unchecked17hf356a30103ff69fbE
.Ltmp504:
	jmp	.LBB79_103
.Ltmp795:
.LBB79_103:
	.loc	21 0 27 is_stmt 0
	movq	288(%rsp), %rcx
	movq	280(%rsp), %rdx
	.loc	21 2015 18 is_stmt 1
	movq	1832(%rsp), %rdi
	movq	1840(%rsp), %rsi
	movq	%rdi, 3400(%rsp)
	movq	%rsi, 3408(%rsp)
	movq	1848(%rsp), %r8
	movq	%r8, 232(%rsp)
	movq	1856(%rsp), %rax
	movq	%rax, 240(%rsp)
	movq	%r8, 3416(%rsp)
	movq	%rax, 3424(%rsp)
.Ltmp796:
.Ltmp505:
	.loc	38 116 9
	leaq	.Lanon.60f91fde1ce0e38296af11bc775d42ab.43(%rip), %r8
	callq	_ZN4core5slice29_$LT$impl$u20$$u5b$T$u5d$$GT$15copy_from_slice17h506442b2f1ca0c87E
.Ltmp506:
	jmp	.LBB79_104
.LBB79_104:
	.loc	38 0 9 is_stmt 0
	movq	240(%rsp), %rax
	movq	232(%rsp), %rcx
	.loc	38 117 9 is_stmt 1
	movq	%rcx, 936(%rsp)
	movq	%rax, 944(%rsp)
.Ltmp797:
	.loc	38 91 21
	jmp	.LBB79_89
.Ltmp798:
.LBB79_105:
	.loc	38 0 21 is_stmt 0
	leaq	1080(%rsp), %rdi
.Ltmp799:
	.loc	38 91 30
	movq	%rdi, 3432(%rsp)
.Ltmp475:
.Ltmp800:
	.loc	1 107 9 is_stmt 1
	callq	_ZN91_$LT$core..slice..iter..Iter$LT$T$GT$$u20$as$u20$core..iter..traits..iterator..Iterator$GT$4next17h7af0fbcb442ddb87E
.Ltmp476:
	movq	%rax, 224(%rsp)
	jmp	.LBB79_106
.LBB79_106:
	.loc	1 0 9 is_stmt 0
	movq	224(%rsp), %rax
	.loc	1 107 9
	movq	%rax, 1864(%rsp)
	.loc	1 107 30
	leaq	1080(%rsp), %rax
	addq	$16, %rax
	movq	%rax, 216(%rsp)
	movq	%rax, 3440(%rsp)
.Ltmp801:
	.loc	8 1143 15 is_stmt 1
	movq	1864(%rsp), %rdx
	movl	$1, %eax
	xorl	%ecx, %ecx
	cmpq	$0, %rdx
	cmoveq	%rcx, %rax
	.loc	8 1143 9 is_stmt 0
	testq	$1, %rax
	je	.LBB79_108
	.loc	8 0 9
	movq	216(%rsp), %rdi
	.loc	8 1144 18 is_stmt 1
	movq	1864(%rsp), %rsi
	movq	%rsi, 3448(%rsp)
.Ltmp802:
	.loc	8 1144 29 is_stmt 0
	movq	%rsi, 3456(%rsp)
.Ltmp477:
.Ltmp803:
	.loc	27 305 13 is_stmt 1
	callq	_ZN5alloc3str17join_generic_copy28_$u7b$$u7b$closure$u7d$$u7d$17he5dd1b03df1432edE
.Ltmp478:
	movq	%rdx, 200(%rsp)
	movq	%rax, 208(%rsp)
	jmp	.LBB79_110
.Ltmp804:
.LBB79_108:
	.loc	8 1145 21
	movq	.Lanon.60f91fde1ce0e38296af11bc775d42ab.3(%rip), %rcx
	movq	.Lanon.60f91fde1ce0e38296af11bc775d42ab.3+8(%rip), %rax
	movq	%rcx, 1096(%rsp)
	movq	%rax, 1104(%rsp)
.Ltmp805:
.LBB79_109:
	.loc	38 91 30
	movq	1096(%rsp), %rdx
	movl	$1, %eax
	xorl	%ecx, %ecx
	cmpq	$0, %rdx
	cmoveq	%rcx, %rax
	testq	$1, %rax
	jne	.LBB79_111
	jmp	.LBB79_112
.LBB79_110:
	.loc	38 0 30 is_stmt 0
	movq	200(%rsp), %rax
	movq	208(%rsp), %rcx
.Ltmp806:
	.loc	8 1144 24 is_stmt 1
	movq	%rcx, 1096(%rsp)
	movq	%rax, 1104(%rsp)
.Ltmp807:
	.loc	8 1144 33 is_stmt 0
	jmp	.LBB79_109
.Ltmp808:
.LBB79_111:
	.loc	8 0 33
	movq	800(%rsp), %rax
	.loc	38 91 25 is_stmt 1
	movq	1096(%rsp), %rdx
	movq	%rdx, 168(%rsp)
	movq	1104(%rsp), %rcx
	movq	%rcx, 176(%rsp)
	movq	%rdx, 3464(%rsp)
	movq	%rcx, 3472(%rsp)
.Ltmp809:
	.loc	38 92 49
	movq	936(%rsp), %rdx
	movq	%rdx, 184(%rsp)
	movq	944(%rsp), %rcx
	movq	%rcx, 192(%rsp)
	movq	%rdx, 3480(%rsp)
	movq	%rcx, 3488(%rsp)
.Ltmp810:
	.loc	21 2218 12
	cmpq	%rcx, %rax
	jbe	.LBB79_114
	jmp	.LBB79_113
.Ltmp811:
.LBB79_112:
	.loc	38 95 21
	jmp	.LBB79_47
.LBB79_113:
.Ltmp812:
	.loc	5 236 9
	leaq	.Lanon.60f91fde1ce0e38296af11bc775d42ab.38(%rip), %rax
	movq	%rax, 1872(%rsp)
	movq	$1, 1880(%rsp)
	movq	.Lanon.60f91fde1ce0e38296af11bc775d42ab.3(%rip), %rcx
	movq	.Lanon.60f91fde1ce0e38296af11bc775d42ab.3+8(%rip), %rax
	movq	%rcx, 1904(%rsp)
	movq	%rax, 1912(%rsp)
	movq	$8, 1888(%rsp)
	movq	$0, 1896(%rsp)
.Ltmp813:
.Ltmp479:
	.loc	21 2016 21
	leaq	.Lanon.60f91fde1ce0e38296af11bc775d42ab.43(%rip), %rsi
	movq	_ZN4core9panicking9panic_fmt17hc8737e8cca20a7c8E@GOTPCREL(%rip), %rax
	leaq	1872(%rsp), %rdi
	callq	*%rax
.Ltmp480:
	jmp	.LBB79_50
.LBB79_114:
.Ltmp481:
	.loc	21 0 21 is_stmt 0
	movq	800(%rsp), %rcx
	movq	192(%rsp), %rdx
	movq	184(%rsp), %rsi
	leaq	1920(%rsp), %rdi
.Ltmp814:
	.loc	21 2221 27 is_stmt 1
	callq	_ZN4core5slice29_$LT$impl$u20$$u5b$T$u5d$$GT$22split_at_mut_unchecked17hf356a30103ff69fbE
.Ltmp482:
	jmp	.LBB79_115
.Ltmp815:
.LBB79_115:
	.loc	21 0 27 is_stmt 0
	movq	800(%rsp), %rcx
	movq	808(%rsp), %rdx
	.loc	21 2015 18 is_stmt 1
	movq	1920(%rsp), %rdi
	movq	1928(%rsp), %rsi
	movq	%rdi, 3496(%rsp)
	movq	%rsi, 3504(%rsp)
	movq	1936(%rsp), %r8
	movq	%r8, 152(%rsp)
	movq	1944(%rsp), %rax
	movq	%rax, 160(%rsp)
	movq	%r8, 3512(%rsp)
	movq	%rax, 3520(%rsp)
.Ltmp816:
.Ltmp483:
	.loc	38 116 9
	leaq	.Lanon.60f91fde1ce0e38296af11bc775d42ab.43(%rip), %r8
	callq	_ZN4core5slice29_$LT$impl$u20$$u5b$T$u5d$$GT$15copy_from_slice17h506442b2f1ca0c87E
.Ltmp484:
	jmp	.LBB79_116
.LBB79_116:
	.loc	38 0 9 is_stmt 0
	movq	176(%rsp), %rax
	movq	160(%rsp), %rcx
	movq	152(%rsp), %rdx
	.loc	38 117 9 is_stmt 1
	movq	%rdx, 936(%rsp)
	movq	%rcx, 944(%rsp)
.Ltmp817:
	.loc	38 114 19
	movq	%rax, 3528(%rsp)
.Ltmp818:
	.loc	38 94 49
	movq	936(%rsp), %rdx
	movq	%rdx, 136(%rsp)
	movq	944(%rsp), %rcx
	movq	%rcx, 144(%rsp)
	movq	%rdx, 3536(%rsp)
	movq	%rcx, 3544(%rsp)
.Ltmp819:
	.loc	21 2218 12
	cmpq	%rcx, %rax
	jbe	.LBB79_118
.Ltmp820:
	.loc	5 236 9
	leaq	.Lanon.60f91fde1ce0e38296af11bc775d42ab.38(%rip), %rax
	movq	%rax, 1952(%rsp)
	movq	$1, 1960(%rsp)
	movq	.Lanon.60f91fde1ce0e38296af11bc775d42ab.3(%rip), %rcx
	movq	.Lanon.60f91fde1ce0e38296af11bc775d42ab.3+8(%rip), %rax
	movq	%rcx, 1984(%rsp)
	movq	%rax, 1992(%rsp)
	movq	$8, 1968(%rsp)
	movq	$0, 1976(%rsp)
.Ltmp821:
.Ltmp485:
	.loc	21 2016 21
	leaq	.Lanon.60f91fde1ce0e38296af11bc775d42ab.43(%rip), %rsi
	movq	_ZN4core9panicking9panic_fmt17hc8737e8cca20a7c8E@GOTPCREL(%rip), %rax
	leaq	1952(%rsp), %rdi
	callq	*%rax
.Ltmp486:
	jmp	.LBB79_50
.LBB79_118:
.Ltmp487:
	.loc	21 0 21 is_stmt 0
	movq	176(%rsp), %rcx
	movq	144(%rsp), %rdx
	movq	136(%rsp), %rsi
	leaq	2000(%rsp), %rdi
.Ltmp822:
	.loc	21 2221 27 is_stmt 1
	callq	_ZN4core5slice29_$LT$impl$u20$$u5b$T$u5d$$GT$22split_at_mut_unchecked17hf356a30103ff69fbE
.Ltmp488:
	jmp	.LBB79_119
.Ltmp823:
.LBB79_119:
	.loc	21 0 27 is_stmt 0
	movq	176(%rsp), %rcx
	movq	168(%rsp), %rdx
	.loc	21 2015 18 is_stmt 1
	movq	2000(%rsp), %rdi
	movq	2008(%rsp), %rsi
	movq	%rdi, 3552(%rsp)
	movq	%rsi, 3560(%rsp)
	movq	2016(%rsp), %r8
	movq	%r8, 120(%rsp)
	movq	2024(%rsp), %rax
	movq	%rax, 128(%rsp)
	movq	%r8, 3568(%rsp)
	movq	%rax, 3576(%rsp)
.Ltmp824:
.Ltmp489:
	.loc	38 116 9
	leaq	.Lanon.60f91fde1ce0e38296af11bc775d42ab.43(%rip), %r8
	callq	_ZN4core5slice29_$LT$impl$u20$$u5b$T$u5d$$GT$15copy_from_slice17h506442b2f1ca0c87E
.Ltmp490:
	jmp	.LBB79_120
.LBB79_120:
	.loc	38 0 9 is_stmt 0
	movq	128(%rsp), %rax
	movq	120(%rsp), %rcx
	.loc	38 117 9 is_stmt 1
	movq	%rcx, 936(%rsp)
	movq	%rax, 944(%rsp)
.Ltmp825:
	.loc	38 91 21
	jmp	.LBB79_105
.Ltmp826:
.LBB79_121:
	.loc	38 0 21 is_stmt 0
	leaq	1112(%rsp), %rdi
.Ltmp827:
	.loc	38 100 26 is_stmt 1
	movq	%rdi, 3584(%rsp)
.Ltmp555:
.Ltmp828:
	.loc	1 107 9
	callq	_ZN91_$LT$core..slice..iter..Iter$LT$T$GT$$u20$as$u20$core..iter..traits..iterator..Iterator$GT$4next17h7af0fbcb442ddb87E
.Ltmp556:
	movq	%rax, 112(%rsp)
	jmp	.LBB79_122
.LBB79_122:
	.loc	1 0 9 is_stmt 0
	movq	112(%rsp), %rax
	.loc	1 107 9
	movq	%rax, 2032(%rsp)
	.loc	1 107 30
	leaq	1112(%rsp), %rax
	addq	$16, %rax
	movq	%rax, 104(%rsp)
	movq	%rax, 3592(%rsp)
.Ltmp829:
	.loc	8 1143 15 is_stmt 1
	movq	2032(%rsp), %rdx
	movl	$1, %eax
	xorl	%ecx, %ecx
	cmpq	$0, %rdx
	cmoveq	%rcx, %rax
	.loc	8 1143 9 is_stmt 0
	testq	$1, %rax
	je	.LBB79_124
	.loc	8 0 9
	movq	104(%rsp), %rdi
	.loc	8 1144 18 is_stmt 1
	movq	2032(%rsp), %rsi
	movq	%rsi, 3600(%rsp)
.Ltmp830:
	.loc	8 1144 29 is_stmt 0
	movq	%rsi, 3608(%rsp)
.Ltmp557:
.Ltmp831:
	.loc	27 305 13 is_stmt 1
	callq	_ZN5alloc3str17join_generic_copy28_$u7b$$u7b$closure$u7d$$u7d$17he5dd1b03df1432edE
.Ltmp558:
	movq	%rdx, 88(%rsp)
	movq	%rax, 96(%rsp)
	jmp	.LBB79_126
.Ltmp832:
.LBB79_124:
	.loc	8 1145 21
	movq	.Lanon.60f91fde1ce0e38296af11bc775d42ab.3(%rip), %rcx
	movq	.Lanon.60f91fde1ce0e38296af11bc775d42ab.3+8(%rip), %rax
	movq	%rcx, 1128(%rsp)
	movq	%rax, 1136(%rsp)
.Ltmp833:
.LBB79_125:
	.loc	38 100 26
	movq	1128(%rsp), %rdx
	movl	$1, %eax
	xorl	%ecx, %ecx
	cmpq	$0, %rdx
	cmoveq	%rcx, %rax
	testq	$1, %rax
	jne	.LBB79_127
	jmp	.LBB79_128
.LBB79_126:
	.loc	38 0 26 is_stmt 0
	movq	88(%rsp), %rax
	movq	96(%rsp), %rcx
.Ltmp834:
	.loc	8 1144 24 is_stmt 1
	movq	%rcx, 1128(%rsp)
	movq	%rax, 1136(%rsp)
.Ltmp835:
	.loc	8 1144 33 is_stmt 0
	jmp	.LBB79_125
.Ltmp836:
.LBB79_127:
	.loc	8 0 33
	movq	800(%rsp), %rax
	.loc	38 100 21 is_stmt 1
	movq	1128(%rsp), %rdx
	movq	%rdx, 56(%rsp)
	movq	1136(%rsp), %rcx
	movq	%rcx, 64(%rsp)
	movq	%rdx, 3648(%rsp)
	movq	%rcx, 3656(%rsp)
.Ltmp837:
	.loc	38 101 45
	movq	936(%rsp), %rdx
	movq	%rdx, 72(%rsp)
	movq	944(%rsp), %rcx
	movq	%rcx, 80(%rsp)
	movq	%rdx, 3664(%rsp)
	movq	%rcx, 3672(%rsp)
.Ltmp838:
	.loc	21 2218 12
	cmpq	%rcx, %rax
	jbe	.LBB79_130
	jmp	.LBB79_129
.Ltmp839:
.LBB79_128:
	.loc	38 104 17
	jmp	.LBB79_47
.LBB79_129:
.Ltmp840:
	.loc	5 236 9
	leaq	.Lanon.60f91fde1ce0e38296af11bc775d42ab.38(%rip), %rax
	movq	%rax, 2040(%rsp)
	movq	$1, 2048(%rsp)
	movq	.Lanon.60f91fde1ce0e38296af11bc775d42ab.3(%rip), %rcx
	movq	.Lanon.60f91fde1ce0e38296af11bc775d42ab.3+8(%rip), %rax
	movq	%rcx, 2072(%rsp)
	movq	%rax, 2080(%rsp)
	movq	$8, 2056(%rsp)
	movq	$0, 2064(%rsp)
.Ltmp841:
.Ltmp559:
	.loc	21 2016 21
	leaq	.Lanon.60f91fde1ce0e38296af11bc775d42ab.43(%rip), %rsi
	movq	_ZN4core9panicking9panic_fmt17hc8737e8cca20a7c8E@GOTPCREL(%rip), %rax
	leaq	2040(%rsp), %rdi
	callq	*%rax
.Ltmp560:
	jmp	.LBB79_50
.LBB79_130:
.Ltmp561:
	.loc	21 0 21 is_stmt 0
	movq	800(%rsp), %rcx
	movq	80(%rsp), %rdx
	movq	72(%rsp), %rsi
	leaq	2088(%rsp), %rdi
.Ltmp842:
	.loc	21 2221 27 is_stmt 1
	callq	_ZN4core5slice29_$LT$impl$u20$$u5b$T$u5d$$GT$22split_at_mut_unchecked17hf356a30103ff69fbE
.Ltmp562:
	jmp	.LBB79_131
.Ltmp843:
.LBB79_131:
	.loc	21 0 27 is_stmt 0
	movq	800(%rsp), %rcx
	movq	808(%rsp), %rdx
	.loc	21 2015 18 is_stmt 1
	movq	2088(%rsp), %rdi
	movq	2096(%rsp), %rsi
	movq	%rdi, 3680(%rsp)
	movq	%rsi, 3688(%rsp)
	movq	2104(%rsp), %r8
	movq	%r8, 40(%rsp)
	movq	2112(%rsp), %rax
	movq	%rax, 48(%rsp)
	movq	%r8, 3696(%rsp)
	movq	%rax, 3704(%rsp)
.Ltmp844:
.Ltmp563:
	.loc	38 116 9
	leaq	.Lanon.60f91fde1ce0e38296af11bc775d42ab.43(%rip), %r8
	callq	_ZN4core5slice29_$LT$impl$u20$$u5b$T$u5d$$GT$15copy_from_slice17h506442b2f1ca0c87E
.Ltmp564:
	jmp	.LBB79_132
.LBB79_132:
	.loc	38 0 9 is_stmt 0
	movq	64(%rsp), %rax
	movq	48(%rsp), %rcx
	movq	40(%rsp), %rdx
	.loc	38 117 9 is_stmt 1
	movq	%rdx, 936(%rsp)
	movq	%rcx, 944(%rsp)
.Ltmp845:
	.loc	38 114 19
	movq	%rax, 3712(%rsp)
.Ltmp846:
	.loc	38 103 45
	movq	936(%rsp), %rdx
	movq	%rdx, 24(%rsp)
	movq	944(%rsp), %rcx
	movq	%rcx, 32(%rsp)
	movq	%rdx, 3720(%rsp)
	movq	%rcx, 3728(%rsp)
.Ltmp847:
	.loc	21 2218 12
	cmpq	%rcx, %rax
	jbe	.LBB79_134
.Ltmp848:
	.loc	5 236 9
	leaq	.Lanon.60f91fde1ce0e38296af11bc775d42ab.38(%rip), %rax
	movq	%rax, 2120(%rsp)
	movq	$1, 2128(%rsp)
	movq	.Lanon.60f91fde1ce0e38296af11bc775d42ab.3(%rip), %rcx
	movq	.Lanon.60f91fde1ce0e38296af11bc775d42ab.3+8(%rip), %rax
	movq	%rcx, 2152(%rsp)
	movq	%rax, 2160(%rsp)
	movq	$8, 2136(%rsp)
	movq	$0, 2144(%rsp)
.Ltmp849:
.Ltmp565:
	.loc	21 2016 21
	leaq	.Lanon.60f91fde1ce0e38296af11bc775d42ab.43(%rip), %rsi
	movq	_ZN4core9panicking9panic_fmt17hc8737e8cca20a7c8E@GOTPCREL(%rip), %rax
	leaq	2120(%rsp), %rdi
	callq	*%rax
.Ltmp566:
	jmp	.LBB79_50
.LBB79_134:
.Ltmp567:
	.loc	21 0 21 is_stmt 0
	movq	64(%rsp), %rcx
	movq	32(%rsp), %rdx
	movq	24(%rsp), %rsi
	leaq	2168(%rsp), %rdi
.Ltmp850:
	.loc	21 2221 27 is_stmt 1
	callq	_ZN4core5slice29_$LT$impl$u20$$u5b$T$u5d$$GT$22split_at_mut_unchecked17hf356a30103ff69fbE
.Ltmp568:
	jmp	.LBB79_135
.Ltmp851:
.LBB79_135:
	.loc	21 0 27 is_stmt 0
	movq	64(%rsp), %rcx
	movq	56(%rsp), %rdx
	.loc	21 2015 18 is_stmt 1
	movq	2168(%rsp), %rdi
	movq	2176(%rsp), %rsi
	movq	%rdi, 3736(%rsp)
	movq	%rsi, 3744(%rsp)
	movq	2184(%rsp), %r8
	movq	%r8, 8(%rsp)
	movq	2192(%rsp), %rax
	movq	%rax, 16(%rsp)
	movq	%r8, 3752(%rsp)
	movq	%rax, 3760(%rsp)
.Ltmp852:
.Ltmp569:
	.loc	38 116 9
	leaq	.Lanon.60f91fde1ce0e38296af11bc775d42ab.43(%rip), %r8
	callq	_ZN4core5slice29_$LT$impl$u20$$u5b$T$u5d$$GT$15copy_from_slice17h506442b2f1ca0c87E
.Ltmp570:
	jmp	.LBB79_136
.LBB79_136:
	.loc	38 0 9 is_stmt 0
	movq	16(%rsp), %rax
	movq	8(%rsp), %rcx
	.loc	38 117 9 is_stmt 1
	movq	%rcx, 936(%rsp)
	movq	%rax, 944(%rsp)
.Ltmp853:
	.loc	38 100 17
	jmp	.LBB79_121
.Ltmp854:
.LBB79_137:
.Ltmp574:
	.loc	38 130 1
	callq	*_ZN4core9panicking16panic_in_cleanup17h51d1753fd07771d1E@GOTPCREL(%rip)
.LBB79_138:
	.loc	38 130 1
	movq	2560(%rsp), %rdi
	callq	_Unwind_Resume@PLT
.Ltmp855:
.Lfunc_end79:
	.size	_ZN5alloc3str17join_generic_copy17h5a36b1ab8c7ab0a5E, .Lfunc_end79-_ZN5alloc3str17join_generic_copy17h5a36b1ab8c7ab0a5E
	.cfi_endproc
	.section	.rodata._ZN5alloc3str17join_generic_copy17h5a36b1ab8c7ab0a5E,"a",@progbits
	.p2align	2, 0x0
.LJTI79_0:
	.long	.LBB79_34-.LJTI79_0
	.long	.LBB79_35-.LJTI79_0
	.long	.LBB79_36-.LJTI79_0
	.long	.LBB79_37-.LJTI79_0
	.long	.LBB79_38-.LJTI79_0
	.file	41 "/home/ordyboii/.rustup/toolchains/stable-x86_64-unknown-linux-gnu/lib/rustlib/src/rust/library/alloc/src" "macros.rs"
	.section	.gcc_except_table._ZN5alloc3str17join_generic_copy17h5a36b1ab8c7ab0a5E,"a",@progbits
	.p2align	2, 0x0
GCC_except_table79:
.Lexception18:
	.byte	255
	.byte	155
	.uleb128 .Lttbase11-.Lttbaseref11
.Lttbaseref11:
	.byte	1
	.uleb128 .Lcst_end18-.Lcst_begin18
.Lcst_begin18:
	.uleb128 .Lfunc_begin79-.Lfunc_begin79
	.uleb128 .Ltmp469-.Lfunc_begin79
	.byte	0
	.byte	0
	.uleb128 .Ltmp469-.Lfunc_begin79
	.uleb128 .Ltmp470-.Ltmp469
	.uleb128 .Ltmp571-.Lfunc_begin79
	.byte	0
	.uleb128 .Ltmp470-.Lfunc_begin79
	.uleb128 .Ltmp572-.Ltmp470
	.byte	0
	.byte	0
	.uleb128 .Ltmp572-.Lfunc_begin79
	.uleb128 .Ltmp573-.Ltmp572
	.uleb128 .Ltmp574-.Lfunc_begin79
	.byte	1
	.uleb128 .Ltmp471-.Lfunc_begin79
	.uleb128 .Ltmp570-.Ltmp471
	.uleb128 .Ltmp571-.Lfunc_begin79
	.byte	0
	.uleb128 .Ltmp570-.Lfunc_begin79
	.uleb128 .Lfunc_end79-.Ltmp570
	.byte	0
	.byte	0
.Lcst_end18:
	.byte	127
	.byte	0
	.p2align	2, 0x0
.Lttbase11:
	.byte	0
	.p2align	2, 0x0

	.section	".text._ZN5alloc3str17join_generic_copy28_$u7b$$u7b$closure$u7d$$u7d$17he5dd1b03df1432edE","ax",@progbits
	.p2align	4
	.type	_ZN5alloc3str17join_generic_copy28_$u7b$$u7b$closure$u7d$$u7d$17he5dd1b03df1432edE,@function
_ZN5alloc3str17join_generic_copy28_$u7b$$u7b$closure$u7d$$u7d$17he5dd1b03df1432edE:
.Lfunc_begin80:
	.loc	38 169 0
	.cfi_startproc
	subq	$88, %rsp
	.cfi_def_cfa_offset 96
	movq	%rsi, 8(%rsp)
	movq	%rdi, %rax
	movq	8(%rsp), %rdi
	movq	%rax, 32(%rsp)
	movq	%rdi, 40(%rsp)
.Ltmp856:
	.loc	38 170 22 prologue_end
	callq	_ZN5alloc3str83_$LT$impl$u20$core..borrow..Borrow$LT$str$GT$$u20$for$u20$alloc..string..String$GT$6borrow17h63f4a7a909b9a8f6E
	movq	%rax, %rdi
	movq	%rdx, %rsi
	callq	_ZN4core3str74_$LT$impl$u20$core..convert..AsRef$LT$$u5b$u8$u5d$$GT$$u20$for$u20$str$GT$6as_ref17h71122c9018f4e328E
	movq	%rax, 16(%rsp)
	movq	%rdx, 24(%rsp)
	movq	%rax, 48(%rsp)
	movq	%rdx, 56(%rsp)
.Ltmp857:
	.loc	21 720 9
	movq	%rax, 64(%rsp)
.Ltmp858:
	.loc	23 66 9
	movq	%rax, 72(%rsp)
.Ltmp859:
	.loc	38 171 61
	movq	%rdx, 80(%rsp)
	.loc	38 0 61 is_stmt 0
	movq	24(%rsp), %rcx
	movq	16(%rsp), %rdi
.Ltmp860:
	.loc	2 75 17 is_stmt 1
	movl	$1, %edx
	movq	%rdx, %rsi
	callq	_ZN4core5slice3raw14from_raw_parts18precondition_check17hfa653467a729f925E
.Ltmp861:
	.loc	2 0 17 is_stmt 0
	movq	24(%rsp), %rdx
	movq	16(%rsp), %rax
	.loc	38 172 10 epilogue_begin is_stmt 1
	addq	$88, %rsp
	.cfi_def_cfa_offset 8
	retq
.Ltmp862:
.Lfunc_end80:
	.size	_ZN5alloc3str17join_generic_copy28_$u7b$$u7b$closure$u7d$$u7d$17he5dd1b03df1432edE, .Lfunc_end80-_ZN5alloc3str17join_generic_copy28_$u7b$$u7b$closure$u7d$$u7d$17he5dd1b03df1432edE
	.cfi_endproc

	.section	".text._ZN5alloc3str17join_generic_copy28_$u7b$$u7b$closure$u7d$$u7d$28_$u7b$$u7b$closure$u7d$$u7d$17h6e73de9decd2f227E","ax",@progbits
	.p2align	4
	.type	_ZN5alloc3str17join_generic_copy28_$u7b$$u7b$closure$u7d$$u7d$28_$u7b$$u7b$closure$u7d$$u7d$17h6e73de9decd2f227E,@function
_ZN5alloc3str17join_generic_copy28_$u7b$$u7b$closure$u7d$$u7d$28_$u7b$$u7b$closure$u7d$$u7d$17h6e73de9decd2f227E:
.Lfunc_begin81:
	.loc	38 152 0
	.cfi_startproc
	subq	$24, %rsp
	.cfi_def_cfa_offset 32
	movq	%rsi, (%rsp)
	movq	%rdi, %rax
	movq	(%rsp), %rdi
	movq	%rax, 8(%rsp)
	movq	%rdi, 16(%rsp)
.Ltmp863:
	.loc	38 152 34 prologue_end
	callq	_ZN5alloc3str83_$LT$impl$u20$core..borrow..Borrow$LT$str$GT$$u20$for$u20$alloc..string..String$GT$6borrow17h63f4a7a909b9a8f6E
	movq	%rax, %rdi
	movq	%rdx, %rsi
	callq	_ZN4core3str74_$LT$impl$u20$core..convert..AsRef$LT$$u5b$u8$u5d$$GT$$u20$for$u20$str$GT$6as_ref17h71122c9018f4e328E
	movq	%rdx, %rax
	.loc	38 152 59 epilogue_begin is_stmt 0
	addq	$24, %rsp
	.cfi_def_cfa_offset 8
	retq
.Ltmp864:
.Lfunc_end81:
	.size	_ZN5alloc3str17join_generic_copy28_$u7b$$u7b$closure$u7d$$u7d$28_$u7b$$u7b$closure$u7d$$u7d$17h6e73de9decd2f227E, .Lfunc_end81-_ZN5alloc3str17join_generic_copy28_$u7b$$u7b$closure$u7d$$u7d$28_$u7b$$u7b$closure$u7d$$u7d$17h6e73de9decd2f227E
	.cfi_endproc

	.section	".text._ZN5alloc3str75_$LT$impl$u20$alloc..slice..Join$LT$$RF$str$GT$$u20$for$u20$$u5b$S$u5d$$GT$4join17h3d7ece5af3db4bfdE","ax",@progbits
	.p2align	4
	.type	_ZN5alloc3str75_$LT$impl$u20$alloc..slice..Join$LT$$RF$str$GT$$u20$for$u20$$u5b$S$u5d$$GT$4join17h3d7ece5af3db4bfdE,@function
_ZN5alloc3str75_$LT$impl$u20$alloc..slice..Join$LT$$RF$str$GT$$u20$for$u20$$u5b$S$u5d$$GT$4join17h3d7ece5af3db4bfdE:
.Lfunc_begin82:
	.loc	38 75 0 is_stmt 1
	.cfi_startproc
	subq	$72, %rsp
	.cfi_def_cfa_offset 80
	movq	%rdi, (%rsp)
	movq	%rdi, 8(%rsp)
	movq	%rsi, 40(%rsp)
	movq	%rdx, 48(%rsp)
	movq	%rcx, 56(%rsp)
	movq	%r8, 64(%rsp)
.Ltmp865:
	.loc	38 76 46 prologue_end
	leaq	16(%rsp), %rdi
	callq	_ZN5alloc3str17join_generic_copy17h5a36b1ab8c7ab0a5E
	movq	(%rsp), %rdi
	movq	8(%rsp), %rax
.Ltmp866:
	.loc	15 1028 9
	movq	16(%rsp), %rcx
	movq	%rcx, (%rdi)
	movq	24(%rsp), %rcx
	movq	%rcx, 8(%rdi)
	movq	32(%rsp), %rcx
	movq	%rcx, 16(%rdi)
.Ltmp867:
	.loc	38 77 6 epilogue_begin
	addq	$72, %rsp
	.cfi_def_cfa_offset 8
	retq
.Ltmp868:
.Lfunc_end82:
	.size	_ZN5alloc3str75_$LT$impl$u20$alloc..slice..Join$LT$$RF$str$GT$$u20$for$u20$$u5b$S$u5d$$GT$4join17h3d7ece5af3db4bfdE, .Lfunc_end82-_ZN5alloc3str75_$LT$impl$u20$alloc..slice..Join$LT$$RF$str$GT$$u20$for$u20$$u5b$S$u5d$$GT$4join17h3d7ece5af3db4bfdE
	.cfi_endproc

	.section	".text._ZN5alloc3str83_$LT$impl$u20$core..borrow..Borrow$LT$str$GT$$u20$for$u20$alloc..string..String$GT$6borrow17h63f4a7a909b9a8f6E","ax",@progbits
	.p2align	4
	.type	_ZN5alloc3str83_$LT$impl$u20$core..borrow..Borrow$LT$str$GT$$u20$for$u20$alloc..string..String$GT$6borrow17h63f4a7a909b9a8f6E,@function
_ZN5alloc3str83_$LT$impl$u20$core..borrow..Borrow$LT$str$GT$$u20$for$u20$alloc..string..String$GT$6borrow17h63f4a7a909b9a8f6E:
.Lfunc_begin83:
	.loc	38 191 0
	.cfi_startproc
	pushq	%rax
	.cfi_def_cfa_offset 16
	movq	%rdi, (%rsp)
.Ltmp869:
	.loc	38 192 14 prologue_end
	leaq	.Lanon.60f91fde1ce0e38296af11bc775d42ab.44(%rip), %rsi
	callq	_ZN74_$LT$alloc..string..String$u20$as$u20$core..ops..index..Index$LT$I$GT$$GT$5index17h30cd00cc9b4762baE
	.loc	38 193 6 epilogue_begin
	popq	%rcx
	.cfi_def_cfa_offset 8
	retq
.Ltmp870:
.Lfunc_end83:
	.size	_ZN5alloc3str83_$LT$impl$u20$core..borrow..Borrow$LT$str$GT$$u20$for$u20$alloc..string..String$GT$6borrow17h63f4a7a909b9a8f6E, .Lfunc_end83-_ZN5alloc3str83_$LT$impl$u20$core..borrow..Borrow$LT$str$GT$$u20$for$u20$alloc..string..String$GT$6borrow17h63f4a7a909b9a8f6E
	.cfi_endproc

	.section	".text._ZN5alloc3vec16Vec$LT$T$C$A$GT$14extend_trusted17h383cdae941e30c3dE","ax",@progbits
	.p2align	4
	.type	_ZN5alloc3vec16Vec$LT$T$C$A$GT$14extend_trusted17h383cdae941e30c3dE,@function
_ZN5alloc3vec16Vec$LT$T$C$A$GT$14extend_trusted17h383cdae941e30c3dE:
.Lfunc_begin84:
	.loc	7 3566 0
	.cfi_startproc
	.cfi_personality 155, DW.ref.rust_eh_personality
	.cfi_lsda 27, .Lexception19
	subq	$248, %rsp
	.cfi_def_cfa_offset 256
	movq	%rdi, (%rsp)
	movq	%rcx, 8(%rsp)
	movq	%rsi, 16(%rsp)
	movq	%rdx, 24(%rsp)
	movq	%rdi, 152(%rsp)
.Ltmp880:
	.loc	7 3569 13 prologue_end
	movb	$0, 167(%rsp)
.Ltmp881:
	.loc	5 250 9
	leaq	.Lanon.60f91fde1ce0e38296af11bc775d42ab.46(%rip), %rax
	movq	%rax, 168(%rsp)
.Ltmp882:
	.loc	5 234 44
	leaq	.Lanon.60f91fde1ce0e38296af11bc775d42ab.2(%rip), %rax
	movq	%rax, 176(%rsp)
.Ltmp883:
	.loc	7 3567 27
	movb	$1, 151(%rsp)
.Ltmp871:
	leaq	48(%rsp), %rdi
	leaq	16(%rsp), %rsi
	callq	_ZN102_$LT$core..iter..adapters..map..Map$LT$I$C$F$GT$$u20$as$u20$core..iter..traits..iterator..Iterator$GT$9size_hint17h3ffa7ca613f66c5aE
.Ltmp872:
	jmp	.LBB84_3
.LBB84_1:
	.loc	7 3595 5
	testb	$1, 151(%rsp)
	jne	.LBB84_10
	jmp	.LBB84_9
.LBB84_2:
.Ltmp879:
	.loc	7 0 5 is_stmt 0
	movq	%rax, %rcx
	movl	%edx, %eax
	movq	%rcx, 184(%rsp)
	movl	%eax, 192(%rsp)
	jmp	.LBB84_1
.LBB84_3:
	.loc	7 3567 14 is_stmt 1
	movq	48(%rsp), %rax
	movq	%rax, 200(%rsp)
	.loc	7 3567 19 is_stmt 0
	movq	56(%rsp), %rcx
	movq	64(%rsp), %rax
	movq	%rcx, 32(%rsp)
	movq	%rax, 40(%rsp)
.Ltmp884:
	.loc	7 3568 16 is_stmt 1
	testq	$1, 32(%rsp)
	je	.LBB84_5
	.loc	7 0 16 is_stmt 0
	movq	8(%rsp), %rdx
	movq	(%rsp), %rdi
	.loc	7 3568 21
	movq	40(%rsp), %rsi
	movq	%rsi, 208(%rsp)
.Ltmp875:
	.loc	7 3575 13 is_stmt 1
	callq	_ZN5alloc3vec16Vec$LT$T$C$A$GT$7reserve17h2842629e8f819affE
.Ltmp876:
	jmp	.LBB84_6
.Ltmp885:
.LBB84_5:
	.loc	7 0 13 is_stmt 0
	movq	8(%rsp), %rsi
.Ltmp886:
	.loc	5 236 9 is_stmt 1
	leaq	.Lanon.60f91fde1ce0e38296af11bc775d42ab.2(%rip), %rax
	movq	%rax, 96(%rsp)
	movq	$1, 104(%rsp)
	movq	.Lanon.60f91fde1ce0e38296af11bc775d42ab.3(%rip), %rcx
	movq	.Lanon.60f91fde1ce0e38296af11bc775d42ab.3+8(%rip), %rax
	movq	%rcx, 128(%rsp)
	movq	%rax, 136(%rsp)
	movq	$8, 112(%rsp)
	movq	$0, 120(%rsp)
.Ltmp887:
.Ltmp873:
	.loc	7 3593 13
	movq	_ZN4core9panicking9panic_fmt17hc8737e8cca20a7c8E@GOTPCREL(%rip), %rax
	leaq	96(%rsp), %rdi
	callq	*%rax
.Ltmp874:
	jmp	.LBB84_8
.LBB84_6:
	.loc	7 0 13 is_stmt 0
	movq	(%rsp), %rax
.Ltmp888:
	.loc	6 512 9 is_stmt 1
	movq	8(%rax), %rdx
.Ltmp889:
	.loc	19 391 18
	movq	%rdx, 216(%rsp)
.Ltmp890:
	.loc	7 3578 55
	movq	%rax, %rcx
	addq	$16, %rcx
	movq	%rcx, 224(%rsp)
.Ltmp891:
	.file	42 "/home/ordyboii/.rustup/toolchains/stable-x86_64-unknown-linux-gnu/lib/rustlib/src/rust/library/alloc/src/vec" "set_len_on_drop.rs"
	.loc	42 14 35
	movq	16(%rax), %rax
	.loc	42 14 9 is_stmt 0
	movq	%rcx, 232(%rsp)
	movq	%rax, 240(%rsp)
.Ltmp892:
	.loc	7 3579 17 is_stmt 1
	movb	$0, 151(%rsp)
	movq	16(%rsp), %rdi
	movq	24(%rsp), %rsi
	.loc	7 3579 35 is_stmt 0
	movq	%rdx, 88(%rsp)
	movq	%rcx, 72(%rsp)
	movq	%rax, 80(%rsp)
.Ltmp877:
	leaq	72(%rsp), %rdx
	.loc	7 3579 17
	callq	_ZN4core4iter6traits8iterator8Iterator8for_each17hef99ee47313b5ea3E
.Ltmp878:
	jmp	.LBB84_7
.Ltmp893:
.LBB84_7:
	.loc	7 3595 6 epilogue_begin is_stmt 1
	addq	$248, %rsp
	.cfi_def_cfa_offset 8
	retq
.LBB84_8:
	.cfi_def_cfa_offset 256
	.loc	7 0 6 is_stmt 0
	ud2
.LBB84_9:
	.loc	7 3566 5 is_stmt 1
	movq	184(%rsp), %rdi
	callq	_Unwind_Resume@PLT
.LBB84_10:
	.loc	7 3595 5
	jmp	.LBB84_9
.Ltmp894:
.Lfunc_end84:
	.size	_ZN5alloc3vec16Vec$LT$T$C$A$GT$14extend_trusted17h383cdae941e30c3dE, .Lfunc_end84-_ZN5alloc3vec16Vec$LT$T$C$A$GT$14extend_trusted17h383cdae941e30c3dE
	.cfi_endproc
	.section	".gcc_except_table._ZN5alloc3vec16Vec$LT$T$C$A$GT$14extend_trusted17h383cdae941e30c3dE","a",@progbits
	.p2align	2, 0x0
GCC_except_table84:
.Lexception19:
	.byte	255
	.byte	255
	.byte	1
	.uleb128 .Lcst_end19-.Lcst_begin19
.Lcst_begin19:
	.uleb128 .Ltmp871-.Lfunc_begin84
	.uleb128 .Ltmp878-.Ltmp871
	.uleb128 .Ltmp879-.Lfunc_begin84
	.byte	0
	.uleb128 .Ltmp878-.Lfunc_begin84
	.uleb128 .Lfunc_end84-.Ltmp878
	.byte	0
	.byte	0
.Lcst_end19:
	.p2align	2, 0x0

	.section	".text._ZN5alloc3vec16Vec$LT$T$C$A$GT$14extend_trusted28_$u7b$$u7b$closure$u7d$$u7d$17h0e34822aec13d404E","ax",@progbits
	.p2align	4
	.type	_ZN5alloc3vec16Vec$LT$T$C$A$GT$14extend_trusted28_$u7b$$u7b$closure$u7d$$u7d$17h0e34822aec13d404E,@function
_ZN5alloc3vec16Vec$LT$T$C$A$GT$14extend_trusted28_$u7b$$u7b$closure$u7d$$u7d$17h0e34822aec13d404E:
.Lfunc_begin85:
	.loc	7 3579 0
	.cfi_startproc
	movq	%rdi, -8(%rsp)
.Ltmp895:
	.loc	7 3580 32 prologue_end
	movq	16(%rdi), %rax
.Ltmp896:
	.loc	20 1056 18
	imulq	$24, 8(%rdi), %rcx
	addq	%rcx, %rax
.Ltmp897:
	.loc	28 1655 9
	movq	(%rsi), %rcx
	movq	%rcx, (%rax)
	movq	8(%rsi), %rcx
	movq	%rcx, 8(%rax)
	movq	16(%rsi), %rcx
	movq	%rcx, 16(%rax)
.Ltmp898:
	.loc	42 19 9
	movq	8(%rdi), %rax
	addq	$1, %rax
	movq	%rax, 8(%rdi)
.Ltmp899:
	.loc	7 3585 18
	retq
.Ltmp900:
.Lfunc_end85:
	.size	_ZN5alloc3vec16Vec$LT$T$C$A$GT$14extend_trusted28_$u7b$$u7b$closure$u7d$$u7d$17h0e34822aec13d404E, .Lfunc_end85-_ZN5alloc3vec16Vec$LT$T$C$A$GT$14extend_trusted28_$u7b$$u7b$closure$u7d$$u7d$17h0e34822aec13d404E
	.cfi_endproc

	.section	".text._ZN5alloc3vec16Vec$LT$T$C$A$GT$4push17h802957e744886a6bE","ax",@progbits
	.p2align	4
	.type	_ZN5alloc3vec16Vec$LT$T$C$A$GT$4push17h802957e744886a6bE,@function
_ZN5alloc3vec16Vec$LT$T$C$A$GT$4push17h802957e744886a6bE:
.Lfunc_begin86:
	.loc	7 2442 0
	.cfi_startproc
	.cfi_personality 155, DW.ref.rust_eh_personality
	.cfi_lsda 27, .Lexception20
	subq	$136, %rsp
	.cfi_def_cfa_offset 144
	movq	%rdi, (%rsp)
	movl	%esi, 12(%rsp)
	movq	%rdx, 16(%rsp)
	movq	%rdi, 40(%rsp)
	movl	%esi, 52(%rsp)
.Ltmp904:
	.loc	7 2444 19 prologue_end
	movq	16(%rdi), %rax
	movq	%rax, 24(%rsp)
	movq	%rax, 56(%rsp)
.Ltmp905:
	.loc	7 2447 19
	movq	%rdi, 64(%rsp)
.Ltmp906:
	.loc	6 299 9
	movq	%rdi, 72(%rsp)
.Ltmp907:
	.loc	29 305 5
	movq	$4, 80(%rsp)
.Ltmp908:
	.loc	29 0 5 is_stmt 0
	movq	(%rsp), %rax
.Ltmp909:
	.loc	6 517 49 is_stmt 1
	movq	(%rax), %rax
	movq	%rax, 88(%rsp)
.Ltmp910:
	.loc	40 61 26
	movq	%rax, 32(%rsp)
.Ltmp911:
	.loc	40 0 26 is_stmt 0
	movq	24(%rsp), %rax
	.loc	7 2447 12 is_stmt 1
	cmpq	32(%rsp), %rax
	je	.LBB86_4
	.loc	7 2447 9 is_stmt 0
	jmp	.LBB86_5
.LBB86_4:
.Ltmp901:
	.loc	7 0 9
	movq	16(%rsp), %rsi
	movq	(%rsp), %rdi
	.loc	7 2448 13 is_stmt 1
	callq	_ZN5alloc7raw_vec19RawVec$LT$T$C$A$GT$8grow_one17he760018e67816923E
.Ltmp902:
	jmp	.LBB86_8
.LBB86_5:
	.loc	7 0 13 is_stmt 0
	movq	(%rsp), %rax
	movq	24(%rsp), %rcx
	movl	12(%rsp), %esi
.Ltmp912:
	.loc	6 512 9 is_stmt 1
	movq	8(%rax), %rdx
.Ltmp913:
	.loc	19 391 18
	movq	%rdx, 112(%rsp)
.Ltmp914:
	.loc	20 1056 18
	movq	%rcx, %r8
	shlq	$2, %r8
	movq	%rdx, %rdi
	addq	%r8, %rdi
	movq	%rdi, 120(%rsp)
.Ltmp915:
	.loc	7 2452 29
	movl	%esi, 132(%rsp)
.Ltmp916:
	.loc	28 1655 9
	movl	%esi, (%rdx,%rcx,4)
.Ltmp917:
	.loc	7 2453 13
	addq	$1, %rcx
	movq	%rcx, 16(%rax)
.Ltmp918:
	.loc	7 2455 6 epilogue_begin
	addq	$136, %rsp
	.cfi_def_cfa_offset 8
	retq
.LBB86_6:
	.cfi_def_cfa_offset 144
	.loc	7 2442 5
	movq	96(%rsp), %rdi
	callq	_Unwind_Resume@PLT
.LBB86_7:
.Ltmp903:
	.loc	7 0 5 is_stmt 0
	movq	%rax, %rcx
	movl	%edx, %eax
	movq	%rcx, 96(%rsp)
	movl	%eax, 104(%rsp)
	jmp	.LBB86_6
.LBB86_8:
.Ltmp919:
	.loc	7 2447 9 is_stmt 1
	jmp	.LBB86_5
.Ltmp920:
.Lfunc_end86:
	.size	_ZN5alloc3vec16Vec$LT$T$C$A$GT$4push17h802957e744886a6bE, .Lfunc_end86-_ZN5alloc3vec16Vec$LT$T$C$A$GT$4push17h802957e744886a6bE
	.cfi_endproc
	.section	".gcc_except_table._ZN5alloc3vec16Vec$LT$T$C$A$GT$4push17h802957e744886a6bE","a",@progbits
	.p2align	2, 0x0
GCC_except_table86:
.Lexception20:
	.byte	255
	.byte	255
	.byte	1
	.uleb128 .Lcst_end20-.Lcst_begin20
.Lcst_begin20:
	.uleb128 .Ltmp901-.Lfunc_begin86
	.uleb128 .Ltmp902-.Ltmp901
	.uleb128 .Ltmp903-.Lfunc_begin86
	.byte	0
	.uleb128 .Ltmp902-.Lfunc_begin86
	.uleb128 .Lfunc_end86-.Ltmp902
	.byte	0
	.byte	0
.Lcst_end20:
	.p2align	2, 0x0

	.section	".text._ZN5alloc3vec16Vec$LT$T$C$A$GT$7reserve17h2842629e8f819affE","ax",@progbits
	.p2align	4
	.type	_ZN5alloc3vec16Vec$LT$T$C$A$GT$7reserve17h2842629e8f819affE,@function
_ZN5alloc3vec16Vec$LT$T$C$A$GT$7reserve17h2842629e8f819affE:
.Lfunc_begin87:
	.loc	7 1296 0
	.cfi_startproc
	subq	$136, %rsp
	.cfi_def_cfa_offset 144
	movq	%rdi, 8(%rsp)
	movq	%rsi, 16(%rsp)
	movq	%rdi, 56(%rsp)
	movq	%rsi, 64(%rsp)
.Ltmp921:
	.loc	7 1297 9 prologue_end
	movq	%rdi, 72(%rsp)
	.loc	7 1297 26 is_stmt 0
	movq	16(%rdi), %rax
	movq	%rax, 24(%rsp)
	movq	%rax, 80(%rsp)
.Ltmp922:
	.loc	6 331 9 is_stmt 1
	movq	%rdi, 88(%rsp)
	.loc	6 331 20 is_stmt 0
	movq	$8, 96(%rsp)
	movq	$24, 104(%rsp)
.Ltmp923:
	.loc	6 562 48 is_stmt 1
	movq	$8, 32(%rsp)
	movq	$24, 40(%rsp)
.Ltmp924:
	.loc	6 627 36
	leaq	32(%rsp), %rax
	movq	%rax, 112(%rsp)
.Ltmp925:
	.loc	34 149 9
	movq	$24, 120(%rsp)
.Ltmp926:
	.loc	34 0 9 is_stmt 0
	movq	8(%rsp), %rax
.Ltmp927:
	.loc	6 517 49 is_stmt 1
	movq	(%rax), %rax
	movq	%rax, 128(%rsp)
.Ltmp928:
	.loc	40 61 26
	movq	%rax, 48(%rsp)
.Ltmp929:
	.loc	40 0 26 is_stmt 0
	movq	16(%rsp), %rax
	movq	24(%rsp), %rdx
.Ltmp930:
	.loc	17 2067 13 is_stmt 1
	movq	48(%rsp), %rcx
	subq	%rdx, %rcx
.Ltmp931:
	.loc	6 627 9
	cmpq	%rcx, %rax
.Ltmp932:
	.loc	6 562 12
	ja	.LBB87_4
	.loc	6 562 9 is_stmt 0
	jmp	.LBB87_5
.LBB87_4:
	.loc	6 0 9
	movq	16(%rsp), %rdx
	movq	24(%rsp), %rsi
	movq	8(%rsp), %rdi
	.loc	6 563 13 is_stmt 1
	movl	$8, %ecx
	movl	$24, %r8d
	callq	*_ZN5alloc7raw_vec20RawVecInner$LT$A$GT$7reserve21do_reserve_and_handle17h385d5fc7c124abf1E@GOTPCREL(%rip)
.Ltmp933:
.LBB87_5:
	.loc	7 1298 6 epilogue_begin
	addq	$136, %rsp
	.cfi_def_cfa_offset 8
	retq
.Ltmp934:
.Lfunc_end87:
	.size	_ZN5alloc3vec16Vec$LT$T$C$A$GT$7reserve17h2842629e8f819affE, .Lfunc_end87-_ZN5alloc3vec16Vec$LT$T$C$A$GT$7reserve17h2842629e8f819affE
	.cfi_endproc

	.section	".text._ZN5alloc3vec16Vec$LT$T$C$A$GT$8as_slice17h531b0f09664deff1E","ax",@progbits
	.p2align	4
	.type	_ZN5alloc3vec16Vec$LT$T$C$A$GT$8as_slice17h531b0f09664deff1E,@function
_ZN5alloc3vec16Vec$LT$T$C$A$GT$8as_slice17h531b0f09664deff1E:
.Lfunc_begin88:
	.loc	7 1586 0
	.cfi_startproc
	subq	$40, %rsp
	.cfi_def_cfa_offset 48
	movq	%rdi, 16(%rsp)
.Ltmp935:
	.loc	6 512 9 prologue_end
	movq	8(%rdi), %rax
	movq	%rax, (%rsp)
.Ltmp936:
	.loc	7 1696 9
	movq	%rax, 24(%rsp)
.Ltmp937:
	.loc	7 1600 55
	movq	16(%rdi), %rax
	movq	%rax, 8(%rsp)
	movq	%rax, 32(%rsp)
	.loc	7 0 55 is_stmt 0
	movq	8(%rsp), %rcx
	movq	(%rsp), %rdi
.Ltmp938:
	.loc	2 75 17 is_stmt 1
	movl	$24, %esi
	movl	$8, %edx
	callq	_ZN4core5slice3raw14from_raw_parts18precondition_check17hfa653467a729f925E
.Ltmp939:
	.loc	2 0 17 is_stmt 0
	movq	8(%rsp), %rdx
	movq	(%rsp), %rax
	.loc	7 1601 6 epilogue_begin is_stmt 1
	addq	$40, %rsp
	.cfi_def_cfa_offset 8
	retq
.Ltmp940:
.Lfunc_end88:
	.size	_ZN5alloc3vec16Vec$LT$T$C$A$GT$8as_slice17h531b0f09664deff1E, .Lfunc_end88-_ZN5alloc3vec16Vec$LT$T$C$A$GT$8as_slice17h531b0f09664deff1E
	.cfi_endproc

	.section	".text._ZN5alloc3vec16Vec$LT$T$C$A$GT$8as_slice17hf11455c9d021bde9E","ax",@progbits
	.p2align	4
	.type	_ZN5alloc3vec16Vec$LT$T$C$A$GT$8as_slice17hf11455c9d021bde9E,@function
_ZN5alloc3vec16Vec$LT$T$C$A$GT$8as_slice17hf11455c9d021bde9E:
.Lfunc_begin89:
	.loc	7 1586 0
	.cfi_startproc
	subq	$40, %rsp
	.cfi_def_cfa_offset 48
	movq	%rdi, 16(%rsp)
.Ltmp941:
	.loc	6 512 9 prologue_end
	movq	8(%rdi), %rax
	movq	%rax, (%rsp)
.Ltmp942:
	.loc	7 1696 9
	movq	%rax, 24(%rsp)
.Ltmp943:
	.loc	7 1600 55
	movq	16(%rdi), %rax
	movq	%rax, 8(%rsp)
	movq	%rax, 32(%rsp)
	.loc	7 0 55 is_stmt 0
	movq	8(%rsp), %rcx
	movq	(%rsp), %rdi
.Ltmp944:
	.loc	2 75 17 is_stmt 1
	movl	$4, %edx
	movq	%rdx, %rsi
	callq	_ZN4core5slice3raw14from_raw_parts18precondition_check17hfa653467a729f925E
.Ltmp945:
	.loc	2 0 17 is_stmt 0
	movq	8(%rsp), %rdx
	movq	(%rsp), %rax
	.loc	7 1601 6 epilogue_begin is_stmt 1
	addq	$40, %rsp
	.cfi_def_cfa_offset 8
	retq
.Ltmp946:
.Lfunc_end89:
	.size	_ZN5alloc3vec16Vec$LT$T$C$A$GT$8as_slice17hf11455c9d021bde9E, .Lfunc_end89-_ZN5alloc3vec16Vec$LT$T$C$A$GT$8as_slice17hf11455c9d021bde9E
	.cfi_endproc

	.section	.text._ZN5alloc5alloc12alloc_zeroed17h6cc397a2ef7ae791E,"ax",@progbits
	.p2align	4
	.type	_ZN5alloc5alloc12alloc_zeroed17h6cc397a2ef7ae791E,@function
_ZN5alloc5alloc12alloc_zeroed17h6cc397a2ef7ae791E:
.Lfunc_begin90:
	.file	43 "/home/ordyboii/.rustup/toolchains/stable-x86_64-unknown-linux-gnu/lib/rustlib/src/rust/library/alloc/src" "alloc.rs"
	.loc	43 170 0
	.cfi_startproc
	subq	$56, %rsp
	.cfi_def_cfa_offset 64
	movq	%rdi, 8(%rsp)
	movq	%rsi, 16(%rsp)
.Ltmp947:
	.loc	28 1811 32 prologue_end
	movq	__rust_no_alloc_shim_is_unstable@GOTPCREL(%rip), %rax
	movq	%rax, 24(%rsp)
	.loc	2 75 17
	movq	__rust_no_alloc_shim_is_unstable@GOTPCREL(%rip), %rdi
	movl	$1, %esi
	xorl	%edx, %edx
	callq	_ZN4core3ptr13read_volatile18precondition_check17h041f35cab5155cfaE
	.loc	28 1823 9
	movq	__rust_no_alloc_shim_is_unstable@GOTPCREL(%rip), %rax
	movb	(%rax), %al
	movb	%al, 39(%rsp)
.Ltmp948:
	.loc	43 176 29
	leaq	8(%rsp), %rax
	movq	%rax, 40(%rsp)
.Ltmp949:
	.loc	34 149 9
	movq	16(%rsp), %rdi
.Ltmp950:
	.loc	43 176 44
	leaq	8(%rsp), %rax
	movq	%rax, 48(%rsp)
.Ltmp951:
	.loc	34 161 9
	movq	8(%rsp), %rsi
.Ltmp952:
	.loc	43 176 9
	callq	*_RNvCs691rhTbG0Ee_7___rustc19___rust_alloc_zeroed@GOTPCREL(%rip)
	.loc	43 178 2 epilogue_begin
	addq	$56, %rsp
	.cfi_def_cfa_offset 8
	retq
.Ltmp953:
.Lfunc_end90:
	.size	_ZN5alloc5alloc12alloc_zeroed17h6cc397a2ef7ae791E, .Lfunc_end90-_ZN5alloc5alloc12alloc_zeroed17h6cc397a2ef7ae791E
	.cfi_endproc

	.section	.text._ZN5alloc5alloc15exchange_malloc17he72e328c57e24b57E,"ax",@progbits
	.p2align	4
	.type	_ZN5alloc5alloc15exchange_malloc17he72e328c57e24b57E,@function
_ZN5alloc5alloc15exchange_malloc17he72e328c57e24b57E:
.Lfunc_begin91:
	.loc	43 348 0
	.cfi_startproc
	subq	$88, %rsp
	.cfi_def_cfa_offset 96
	movq	%rdi, (%rsp)
	movq	%rsi, 8(%rsp)
	movq	%rdi, 32(%rsp)
	movq	%rsi, 40(%rsp)
.Ltmp954:
	.loc	43 248 17 prologue_end
	movl	$1, %eax
	movq	%rax, 48(%rsp)
.Ltmp955:
	.loc	43 0 17 is_stmt 0
	movq	8(%rsp), %rsi
	movq	(%rsp), %rdi
.Ltmp956:
	.loc	2 75 17 is_stmt 1
	callq	_ZN4core5alloc6layout6Layout25from_size_align_unchecked18precondition_check17h53072e6af1582a53E
	.loc	2 0 17 is_stmt 0
	movq	(%rsp), %rdx
	movq	8(%rsp), %rsi
	.loc	34 140 18 is_stmt 1
	movq	%rsi, 56(%rsp)
	movq	%rdx, 64(%rsp)
.Ltmp957:
	.loc	43 249 9
	movl	$1, %edi
	xorl	%ecx, %ecx
	callq	_ZN5alloc5alloc6Global10alloc_impl17hfcabdd618416d543E
	movq	%rax, 16(%rsp)
	movq	%rdx, 24(%rsp)
.Ltmp958:
	.loc	43 350 11
	movq	16(%rsp), %rdx
	xorl	%eax, %eax
	movl	$1, %ecx
	cmpq	$0, %rdx
	cmoveq	%rcx, %rax
	.loc	43 350 5 is_stmt 0
	testq	$1, %rax
	je	.LBB91_4
	.loc	43 0 5
	movq	(%rsp), %rsi
	movq	8(%rsp), %rdi
	.loc	43 352 19 is_stmt 1
	callq	*_ZN5alloc5alloc18handle_alloc_error17h29c279d8237d34e5E@GOTPCREL(%rip)
.LBB91_4:
	.loc	43 351 12
	movq	16(%rsp), %rax
	movq	24(%rsp), %rcx
	movq	%rax, 72(%rsp)
	movq	%rcx, 80(%rsp)
.Ltmp959:
	.loc	43 354 2 epilogue_begin
	addq	$88, %rsp
	.cfi_def_cfa_offset 8
	retq
.Ltmp960:
.Lfunc_end91:
	.size	_ZN5alloc5alloc15exchange_malloc17he72e328c57e24b57E, .Lfunc_end91-_ZN5alloc5alloc15exchange_malloc17he72e328c57e24b57E
	.cfi_endproc

	.section	.text._ZN5alloc5alloc5alloc17hf1786ad439003418E,"ax",@progbits
	.p2align	4
	.type	_ZN5alloc5alloc5alloc17hf1786ad439003418E,@function
_ZN5alloc5alloc5alloc17hf1786ad439003418E:
.Lfunc_begin92:
	.loc	43 87 0
	.cfi_startproc
	subq	$56, %rsp
	.cfi_def_cfa_offset 64
	movq	%rdi, 8(%rsp)
	movq	%rsi, 16(%rsp)
.Ltmp961:
	.loc	28 1811 32 prologue_end
	movq	__rust_no_alloc_shim_is_unstable@GOTPCREL(%rip), %rax
	movq	%rax, 24(%rsp)
	.loc	2 75 17
	movq	__rust_no_alloc_shim_is_unstable@GOTPCREL(%rip), %rdi
	movl	$1, %esi
	xorl	%edx, %edx
	callq	_ZN4core3ptr13read_volatile18precondition_check17h041f35cab5155cfaE
	.loc	28 1823 9
	movq	__rust_no_alloc_shim_is_unstable@GOTPCREL(%rip), %rax
	movb	(%rax), %al
	movb	%al, 39(%rsp)
.Ltmp962:
	.loc	43 93 22
	leaq	8(%rsp), %rax
	movq	%rax, 40(%rsp)
.Ltmp963:
	.loc	34 149 9
	movq	16(%rsp), %rdi
.Ltmp964:
	.loc	43 93 37
	leaq	8(%rsp), %rax
	movq	%rax, 48(%rsp)
.Ltmp965:
	.loc	34 161 9
	movq	8(%rsp), %rsi
.Ltmp966:
	.loc	43 93 9
	callq	*_RNvCs691rhTbG0Ee_7___rustc12___rust_alloc@GOTPCREL(%rip)
	.loc	43 95 2 epilogue_begin
	addq	$56, %rsp
	.cfi_def_cfa_offset 8
	retq
.Ltmp967:
.Lfunc_end92:
	.size	_ZN5alloc5alloc5alloc17hf1786ad439003418E, .Lfunc_end92-_ZN5alloc5alloc5alloc17hf1786ad439003418E
	.cfi_endproc

	.section	.text._ZN5alloc5alloc6Global10alloc_impl17hfcabdd618416d543E,"ax",@progbits
	.p2align	4
	.type	_ZN5alloc5alloc6Global10alloc_impl17hfcabdd618416d543E,@function
_ZN5alloc5alloc6Global10alloc_impl17hfcabdd618416d543E:
.Lfunc_begin93:
	.loc	43 183 0
	.cfi_startproc
	subq	$264, %rsp
	.cfi_def_cfa_offset 272
	movb	%cl, %al
	movb	%al, 39(%rsp)
	movq	%rsi, 48(%rsp)
	movq	%rdx, 56(%rsp)
	movq	%rdi, 112(%rsp)
	andb	$1, %al
	movb	%al, 126(%rsp)
.Ltmp968:
	.loc	19 1350 57 prologue_end
	movq	$0, 128(%rsp)
.Ltmp969:
	.loc	28 931 56
	movq	$0, 136(%rsp)
.Ltmp970:
	.loc	43 184 15
	leaq	48(%rsp), %rax
	movq	%rax, 152(%rsp)
.Ltmp971:
	.loc	34 149 9
	movq	56(%rsp), %rax
	movq	%rax, 40(%rsp)
	movq	%rax, 160(%rsp)
.Ltmp972:
	.loc	43 184 9
	cmpq	$0, %rax
	jne	.LBB93_2
	.loc	43 185 51
	leaq	48(%rsp), %rax
	movq	%rax, 168(%rsp)
.Ltmp973:
	.loc	34 236 37
	movq	48(%rsp), %rcx
	movq	%rcx, 16(%rsp)
.Ltmp974:
	.loc	28 600 5
	xorl	%eax, %eax
	addq	%rcx, %rax
.Ltmp975:
	.loc	19 98 18
	movq	%rax, 176(%rsp)
.Ltmp976:
	.loc	19 391 18
	xorl	%eax, %eax
	addq	%rcx, %rax
	movq	%rax, 24(%rsp)
	movq	%rax, 184(%rsp)
.Ltmp977:
	.loc	36 129 5
	movq	%rax, 192(%rsp)
	movq	$0, 200(%rsp)
.Ltmp978:
	.loc	2 74 35
	jmp	.LBB93_3
.Ltmp979:
.LBB93_2:
	.loc	2 0 35 is_stmt 0
	movb	39(%rsp), %al
.Ltmp980:
	.loc	43 188 34 is_stmt 1
	testb	$1, %al
	jne	.LBB93_7
	jmp	.LBB93_6
.Ltmp981:
.LBB93_3:
	.loc	43 0 34 is_stmt 0
	movq	16(%rsp), %rax
.Ltmp982:
	.loc	19 225 33 is_stmt 1
	xorl	%ecx, %ecx
	movl	%ecx, %edi
	addq	%rax, %rdi
	.loc	2 75 17
	callq	_ZN4core3ptr8non_null16NonNull$LT$T$GT$13new_unchecked18precondition_check17h8685598df8ae8022E
.Ltmp983:
	.loc	2 0 17 is_stmt 0
	movq	24(%rsp), %rax
	.loc	43 185 18 is_stmt 1
	movq	%rax, 64(%rsp)
	movq	$0, 72(%rsp)
.LBB93_5:
	.loc	43 193 6
	movq	64(%rsp), %rax
	movq	72(%rsp), %rdx
	.loc	43 193 6 epilogue_begin is_stmt 0
	addq	$264, %rsp
	.cfi_def_cfa_offset 8
	retq
.LBB93_6:
	.cfi_def_cfa_offset 272
.Ltmp984:
	.loc	43 188 73 is_stmt 1
	movq	48(%rsp), %rdi
	movq	56(%rsp), %rsi
	callq	_ZN5alloc5alloc5alloc17hf1786ad439003418E
	movq	%rax, 80(%rsp)
	jmp	.LBB93_8
.LBB93_7:
	.loc	43 188 43 is_stmt 0
	movq	48(%rsp), %rdi
	movq	56(%rsp), %rsi
	callq	_ZN5alloc5alloc12alloc_zeroed17h6cc397a2ef7ae791E
	movq	%rax, 80(%rsp)
.LBB93_8:
.Ltmp985:
	.loc	43 189 40 is_stmt 1
	movq	80(%rsp), %rax
	movq	%rax, 8(%rsp)
	movq	%rax, 208(%rsp)
.Ltmp986:
	.loc	19 256 13
	cmpq	$0, %rax
	jne	.LBB93_10
	.loc	19 260 13
	movq	$0, 104(%rsp)
.Ltmp987:
	.loc	8 1280 21
	movq	$0, 96(%rsp)
.Ltmp988:
	.loc	37 2050 23
	movq	.Lanon.60f91fde1ce0e38296af11bc775d42ab.3(%rip), %rcx
	movq	.Lanon.60f91fde1ce0e38296af11bc775d42ab.3+8(%rip), %rax
	movq	%rcx, 64(%rsp)
	movq	%rax, 72(%rsp)
.Ltmp989:
	.loc	43 193 6
	jmp	.LBB93_5
.LBB93_10:
.Ltmp990:
	.loc	2 74 35
	jmp	.LBB93_11
.LBB93_11:
	.loc	2 0 35 is_stmt 0
	movq	8(%rsp), %rdi
	.loc	2 75 17 is_stmt 1
	callq	_ZN4core3ptr8non_null16NonNull$LT$T$GT$13new_unchecked18precondition_check17h8685598df8ae8022E
.Ltmp991:
	.loc	2 0 17 is_stmt 0
	movq	40(%rsp), %rax
	movq	8(%rsp), %rcx
	.loc	19 258 13 is_stmt 1
	movq	%rcx, 104(%rsp)
.Ltmp992:
	.loc	8 1279 18
	movq	104(%rsp), %rcx
	movq	%rcx, 216(%rsp)
.Ltmp993:
	.loc	8 1279 24 is_stmt 0
	movq	%rcx, 96(%rsp)
.Ltmp994:
	.loc	37 2038 16 is_stmt 1
	movq	96(%rsp), %rcx
	movq	%rcx, 224(%rsp)
.Ltmp995:
	.loc	37 2038 22 is_stmt 0
	movq	%rcx, 88(%rsp)
.Ltmp996:
	.loc	43 189 27 is_stmt 1
	movq	88(%rsp), %rcx
	movq	%rcx, (%rsp)
	movq	%rcx, 232(%rsp)
.Ltmp997:
	.loc	19 391 18
	movq	%rcx, 240(%rsp)
.Ltmp998:
	.loc	36 129 5
	movq	%rcx, 248(%rsp)
	movq	%rax, 256(%rsp)
.Ltmp999:
	.loc	36 0 5 is_stmt 0
	movq	(%rsp), %rdi
.Ltmp1000:
	.loc	2 75 17 is_stmt 1
	callq	_ZN4core3ptr8non_null16NonNull$LT$T$GT$13new_unchecked18precondition_check17h8685598df8ae8022E
.Ltmp1001:
	.loc	2 0 17 is_stmt 0
	movq	40(%rsp), %rax
	movq	(%rsp), %rcx
	.loc	43 190 17 is_stmt 1
	movq	%rcx, 64(%rsp)
	movq	%rax, 72(%rsp)
.Ltmp1002:
	.loc	43 191 13
	jmp	.LBB93_5
.Ltmp1003:
.Lfunc_end93:
	.size	_ZN5alloc5alloc6Global10alloc_impl17hfcabdd618416d543E, .Lfunc_end93-_ZN5alloc5alloc6Global10alloc_impl17hfcabdd618416d543E
	.cfi_endproc

	.section	".text._ZN5alloc5slice29_$LT$impl$u20$$u5b$T$u5d$$GT$4join17h758433ccae2c2043E","ax",@progbits
	.p2align	4
	.type	_ZN5alloc5slice29_$LT$impl$u20$$u5b$T$u5d$$GT$4join17h758433ccae2c2043E,@function
_ZN5alloc5slice29_$LT$impl$u20$$u5b$T$u5d$$GT$4join17h758433ccae2c2043E:
.Lfunc_begin94:
	.file	44 "/home/ordyboii/.rustup/toolchains/stable-x86_64-unknown-linux-gnu/lib/rustlib/src/rust/library/alloc/src" "slice.rs"
	.loc	44 595 0
	.cfi_startproc
	subq	$40, %rsp
	.cfi_def_cfa_offset 48
	movq	%rdi, %rax
	movq	%rax, (%rsp)
	movq	%rsi, 8(%rsp)
	movq	%rdx, 16(%rsp)
	movq	%rcx, 24(%rsp)
	movq	%r8, 32(%rsp)
.Ltmp1004:
	.loc	44 599 9 prologue_end
	callq	_ZN5alloc3str75_$LT$impl$u20$alloc..slice..Join$LT$$RF$str$GT$$u20$for$u20$$u5b$S$u5d$$GT$4join17h3d7ece5af3db4bfdE
	movq	(%rsp), %rax
	.loc	44 600 6 epilogue_begin
	addq	$40, %rsp
	.cfi_def_cfa_offset 8
	retq
.Ltmp1005:
.Lfunc_end94:
	.size	_ZN5alloc5slice29_$LT$impl$u20$$u5b$T$u5d$$GT$4join17h758433ccae2c2043E, .Lfunc_end94-_ZN5alloc5slice29_$LT$impl$u20$$u5b$T$u5d$$GT$4join17h758433ccae2c2043E
	.cfi_endproc

	.section	".text._ZN5alloc5slice29_$LT$impl$u20$$u5b$T$u5d$$GT$8into_vec17h9ca8ff3e0d542d92E","ax",@progbits
	.p2align	4
	.type	_ZN5alloc5slice29_$LT$impl$u20$$u5b$T$u5d$$GT$8into_vec17h9ca8ff3e0d542d92E,@function
_ZN5alloc5slice29_$LT$impl$u20$$u5b$T$u5d$$GT$8into_vec17h9ca8ff3e0d542d92E:
.Lfunc_begin95:
	.loc	44 477 0
	.cfi_startproc
	subq	$120, %rsp
	.cfi_def_cfa_offset 128
	movq	%rdx, 8(%rsp)
	movq	%rsi, 16(%rsp)
	movq	%rdi, 24(%rsp)
	movq	%rdi, 32(%rsp)
	movq	%rsi, 48(%rsp)
	movq	%rdx, 56(%rsp)
.Ltmp1006:
	.loc	44 479 23 prologue_end
	movq	%rdx, 72(%rsp)
.Ltmp1007:
	.file	45 "/home/ordyboii/.rustup/toolchains/stable-x86_64-unknown-linux-gnu/lib/rustlib/src/rust/library/alloc/src" "boxed.rs"
	.loc	45 1382 19
	movq	%rsi, 80(%rsp)
	movq	%rdx, 88(%rsp)
.Ltmp1008:
	.loc	44 481 36
	movq	%rsi, 96(%rsp)
.Ltmp1009:
	.loc	20 48 9
	movq	%rsi, 104(%rsp)
.Ltmp1010:
	.loc	20 0 9 is_stmt 0
	movq	8(%rsp), %rax
.Ltmp1011:
	.loc	40 54 26 is_stmt 1
	movq	%rax, 40(%rsp)
.Ltmp1012:
	.loc	6 260 60
	movq	40(%rsp), %rax
	movq	%rax, (%rsp)
	movq	%rax, 112(%rsp)
	.loc	6 0 60 is_stmt 0
	movq	16(%rsp), %rdi
.Ltmp1013:
	.loc	2 75 17 is_stmt 1
	callq	_ZN4core3ptr8non_null16NonNull$LT$T$GT$13new_unchecked18precondition_check17h8685598df8ae8022E
.Ltmp1014:
	.loc	2 0 17 is_stmt 0
	movq	32(%rsp), %rax
	movq	24(%rsp), %rcx
	movq	8(%rsp), %rdx
	movq	16(%rsp), %rsi
	movq	(%rsp), %rdi
	.loc	7 947 18 is_stmt 1
	movq	%rdi, (%rcx)
	movq	%rsi, 8(%rcx)
	movq	%rdx, 16(%rcx)
.Ltmp1015:
	.loc	44 483 6 epilogue_begin
	addq	$120, %rsp
	.cfi_def_cfa_offset 8
	retq
.Ltmp1016:
.Lfunc_end95:
	.size	_ZN5alloc5slice29_$LT$impl$u20$$u5b$T$u5d$$GT$8into_vec17h9ca8ff3e0d542d92E, .Lfunc_end95-_ZN5alloc5slice29_$LT$impl$u20$$u5b$T$u5d$$GT$8into_vec17h9ca8ff3e0d542d92E
	.cfi_endproc
	.file	46 "/home/ordyboii/.rustup/toolchains/stable-x86_64-unknown-linux-gnu/lib/rustlib/src/rust/library/core/src/ptr" "unique.rs"

	.section	.text._ZN5alloc6string6String4push17h6ee01c0fd9cca3aeE,"ax",@progbits
	.p2align	4
	.type	_ZN5alloc6string6String4push17h6ee01c0fd9cca3aeE,@function
_ZN5alloc6string6String4push17h6ee01c0fd9cca3aeE:
.Lfunc_begin96:
	.loc	15 1403 0
	.cfi_startproc
	subq	$120, %rsp
	.cfi_def_cfa_offset 128
	movq	%rdi, 8(%rsp)
	movl	%esi, 20(%rsp)
	movq	%rdi, 40(%rsp)
	movl	%esi, 52(%rsp)
.Ltmp1017:
	.loc	7 2706 19 prologue_end
	movq	16(%rdi), %rax
	movq	%rax, 24(%rsp)
	movq	%rax, 56(%rsp)
.Ltmp1018:
	.loc	32 644 18
	movl	%esi, 68(%rsp)
.Ltmp1019:
	.loc	32 1778 9
	cmpl	$128, %esi
	jb	.LBB96_2
	.loc	32 0 9 is_stmt 0
	movl	20(%rsp), %eax
	.loc	32 1779 9 is_stmt 1
	cmpl	$2048, %eax
	jb	.LBB96_4
	jmp	.LBB96_3
.LBB96_2:
	.loc	32 1778 24
	movq	$1, 32(%rsp)
	jmp	.LBB96_7
.LBB96_3:
	.loc	32 0 24 is_stmt 0
	movl	20(%rsp), %eax
	.loc	32 1780 9 is_stmt 1
	cmpl	$65536, %eax
	jb	.LBB96_6
	jmp	.LBB96_5
.LBB96_4:
	.loc	32 1779 24
	movq	$2, 32(%rsp)
	jmp	.LBB96_7
.LBB96_5:
	.loc	32 1781 14
	movq	$4, 32(%rsp)
	jmp	.LBB96_7
.LBB96_6:
	.loc	32 1780 26
	movq	$3, 32(%rsp)
.Ltmp1020:
.LBB96_7:
	.loc	32 0 26 is_stmt 0
	movq	8(%rsp), %rdi
.Ltmp1021:
	.loc	15 1406 22 is_stmt 1
	movq	32(%rsp), %rsi
	movq	%rsi, 72(%rsp)
.Ltmp1022:
	.loc	15 1211 9
	leaq	.Lanon.60f91fde1ce0e38296af11bc775d42ab.47(%rip), %rdx
	callq	*_ZN5alloc3vec16Vec$LT$T$C$A$GT$7reserve17h3245432a2f44a27cE@GOTPCREL(%rip)
	movl	20(%rsp), %edi
	movq	8(%rsp), %rax
.Ltmp1023:
	.loc	15 1410 62
	movq	%rax, 80(%rsp)
.Ltmp1024:
	.loc	6 512 9
	movq	8(%rax), %rsi
.Ltmp1025:
	.loc	19 391 18
	movq	%rsi, 88(%rsp)
.Ltmp1026:
	.loc	7 2706 19
	movq	16(%rax), %rax
	movq	%rax, 96(%rsp)
.Ltmp1027:
	.loc	20 1056 18
	addq	%rax, %rsi
.Ltmp1028:
	.loc	15 1410 13
	callq	_ZN4core4char7methods25encode_utf8_raw_unchecked17h04cf10591b4891f0E
	movq	24(%rsp), %rcx
	movq	8(%rsp), %rax
	.loc	15 1411 13
	movq	%rax, 104(%rsp)
	.loc	15 1411 30 is_stmt 0
	addq	32(%rsp), %rcx
	movq	%rcx, 112(%rsp)
.Ltmp1029:
	.loc	7 1923 9 is_stmt 1
	movq	%rcx, 16(%rax)
.Ltmp1030:
	.loc	15 1413 6 epilogue_begin
	addq	$120, %rsp
	.cfi_def_cfa_offset 8
	retq
.Ltmp1031:
.Lfunc_end96:
	.size	_ZN5alloc6string6String4push17h6ee01c0fd9cca3aeE, .Lfunc_end96-_ZN5alloc6string6String4push17h6ee01c0fd9cca3aeE
	.cfi_endproc

	.section	.text._ZN5alloc6string6String8push_str17h0793ebec31cbe42cE,"ax",@progbits
	.p2align	4
	.type	_ZN5alloc6string6String8push_str17h0793ebec31cbe42cE,@function
_ZN5alloc6string6String8push_str17h0793ebec31cbe42cE:
.Lfunc_begin97:
	.loc	15 1111 0
	.cfi_startproc
	subq	$104, %rsp
	.cfi_def_cfa_offset 112
	movq	%rdx, %rax
	movq	%rdi, 8(%rsp)
	movq	%rsi, 16(%rsp)
	movq	%rax, 24(%rsp)
.Ltmp1032:
	.loc	15 1112 9 prologue_end
	movq	%rdi, 32(%rsp)
.Ltmp1033:
	.loc	31 475 18
	movq	%rsi, 40(%rsp)
	movq	%rax, 48(%rsp)
.Ltmp1034:
	.loc	18 97 19
	movq	%rax, 56(%rsp)
.Ltmp1035:
	.loc	19 269 18
	movq	%rsi, 64(%rsp)
	movq	%rax, 72(%rsp)
.Ltmp1036:
	.loc	19 488 18
	movq	%rsi, 80(%rsp)
.Ltmp1037:
	.loc	19 391 18
	movq	%rsi, 88(%rsp)
.Ltmp1038:
	.loc	20 1056 18
	movq	%rsi, %rdx
	addq	%rax, %rdx
.Ltmp1039:
	.loc	18 102 63
	movq	%rdx, 96(%rsp)
.Ltmp1040:
	.loc	7 3067 9
	leaq	.Lanon.60f91fde1ce0e38296af11bc775d42ab.48(%rip), %rcx
	callq	*_ZN132_$LT$alloc..vec..Vec$LT$T$C$A$GT$$u20$as$u20$alloc..vec..spec_extend..SpecExtend$LT$$RF$T$C$core..slice..iter..Iter$LT$T$GT$$GT$$GT$11spec_extend17hcf5ccbed4852be19E@GOTPCREL(%rip)
.Ltmp1041:
	.loc	15 1113 6 epilogue_begin
	addq	$104, %rsp
	.cfi_def_cfa_offset 8
	retq
.Ltmp1042:
.Lfunc_end97:
	.size	_ZN5alloc6string6String8push_str17h0793ebec31cbe42cE, .Lfunc_end97-_ZN5alloc6string6String8push_str17h0793ebec31cbe42cE
	.cfi_endproc

	.section	".text._ZN5alloc7raw_vec19RawVec$LT$T$C$A$GT$8grow_one17he760018e67816923E","ax",@progbits
	.p2align	4
	.type	_ZN5alloc7raw_vec19RawVec$LT$T$C$A$GT$8grow_one17he760018e67816923E,@function
_ZN5alloc7raw_vec19RawVec$LT$T$C$A$GT$8grow_one17he760018e67816923E:
.Lfunc_begin98:
	.loc	6 339 0
	.cfi_startproc
	subq	$88, %rsp
	.cfi_def_cfa_offset 96
	movq	%rsi, 8(%rsp)
	movq	%rdi, 32(%rsp)
.Ltmp1043:
	.loc	6 570 28 prologue_end
	movq	$4, 40(%rsp)
	movq	$4, 48(%rsp)
.Ltmp1044:
	.loc	6 340 9
	movq	%rdi, 56(%rsp)
.Ltmp1045:
	.loc	6 571 47
	movq	(%rdi), %rsi
	movq	%rsi, 64(%rsp)
	.loc	6 571 27 is_stmt 0
	movl	$1, %edx
	movl	$4, %r8d
	movq	%r8, %rcx
	callq	*_ZN5alloc7raw_vec20RawVecInner$LT$A$GT$14grow_amortized17h4ef16fb9008c9989E@GOTPCREL(%rip)
	movq	%rax, 16(%rsp)
	movq	%rdx, 24(%rsp)
	movabsq	$-9223372036854775807, %rdx
	movl	$1, %eax
	xorl	%ecx, %ecx
	cmpq	%rdx, 16(%rsp)
	cmoveq	%rcx, %rax
	.loc	6 571 16
	testq	$1, %rax
	je	.LBB98_2
	.loc	6 0 16
	movq	8(%rsp), %rdx
	.loc	6 571 20
	movq	16(%rsp), %rdi
	movq	24(%rsp), %rsi
	movq	%rdi, 72(%rsp)
	movq	%rsi, 80(%rsp)
	.loc	6 572 13 is_stmt 1
	callq	*_ZN5alloc7raw_vec12handle_error17h891236e332f51b87E@GOTPCREL(%rip)
.Ltmp1046:
.LBB98_2:
	.loc	6 341 6 epilogue_begin
	addq	$88, %rsp
	.cfi_def_cfa_offset 8
	retq
.Ltmp1047:
.Lfunc_end98:
	.size	_ZN5alloc7raw_vec19RawVec$LT$T$C$A$GT$8grow_one17he760018e67816923E, .Lfunc_end98-_ZN5alloc7raw_vec19RawVec$LT$T$C$A$GT$8grow_one17he760018e67816923E
	.cfi_endproc

	.section	".text._ZN5alloc7raw_vec20RawVecInner$LT$A$GT$16with_capacity_in17h05a0957b7809f1a2E","ax",@progbits
	.p2align	4
	.type	_ZN5alloc7raw_vec20RawVecInner$LT$A$GT$16with_capacity_in17h05a0957b7809f1a2E,@function
_ZN5alloc7raw_vec20RawVecInner$LT$A$GT$16with_capacity_in17h05a0957b7809f1a2E:
.Lfunc_begin99:
	.loc	6 421 0
	.cfi_startproc
	subq	$216, %rsp
	.cfi_def_cfa_offset 224
	movq	%rcx, %rax
	movq	%rdx, %r8
	movq	%rsi, %rcx
	movq	%rdi, %rsi
	movq	%rsi, 16(%rsp)
	movq	%rcx, 24(%rsp)
	movq	%r8, 32(%rsp)
	movq	%rax, 40(%rsp)
	movq	%rsi, 112(%rsp)
	movq	%rcx, 128(%rsp)
	movq	%r8, 136(%rsp)
.Ltmp1048:
	.loc	6 626 29 prologue_end
	movq	$0, 144(%rsp)
.Ltmp1049:
	.loc	17 2066 41
	movq	$0, 152(%rsp)
.Ltmp1050:
	.loc	6 422 15
	leaq	48(%rsp), %rdi
	xorl	%edx, %edx
	callq	*_ZN5alloc7raw_vec20RawVecInner$LT$A$GT$15try_allocate_in17h4f7e38587b6f6112E@GOTPCREL(%rip)
	.loc	6 422 9 is_stmt 0
	testq	$1, 48(%rsp)
	je	.LBB99_2
	.loc	6 0 9
	movq	40(%rsp), %rdx
	.loc	6 430 17 is_stmt 1
	movq	56(%rsp), %rdi
	movq	64(%rsp), %rsi
	movq	%rdi, 200(%rsp)
	movq	%rsi, 208(%rsp)
.Ltmp1051:
	.loc	6 430 25 is_stmt 0
	callq	*_ZN5alloc7raw_vec12handle_error17h891236e332f51b87E@GOTPCREL(%rip)
.Ltmp1052:
.LBB99_2:
	.loc	6 0 25
	movq	32(%rsp), %rax
	movq	24(%rsp), %rcx
	.loc	6 423 16 is_stmt 1
	movq	56(%rsp), %rsi
	movq	64(%rsp), %rdx
	movq	%rsi, 72(%rsp)
	movq	%rdx, 80(%rsp)
.Ltmp1053:
	.loc	6 426 45
	leaq	72(%rsp), %rdx
	movq	%rdx, 160(%rsp)
	.loc	6 426 77 is_stmt 0
	movq	%rcx, 88(%rsp)
	movq	%rax, 96(%rsp)
.Ltmp1054:
	.loc	6 627 36 is_stmt 1
	leaq	88(%rsp), %rcx
	movq	%rcx, 168(%rsp)
.Ltmp1055:
	.loc	34 149 9
	movq	%rax, 176(%rsp)
.Ltmp1056:
	.loc	6 517 12
	cmpq	$0, %rax
	jne	.LBB99_4
	.loc	6 517 29 is_stmt 0
	movq	$-1, 104(%rsp)
	.loc	6 517 9
	jmp	.LBB99_5
.LBB99_4:
	.loc	6 517 49
	movq	72(%rsp), %rax
	movq	%rax, 184(%rsp)
.Ltmp1057:
	.loc	40 61 26 is_stmt 1
	movq	%rax, 104(%rsp)
.Ltmp1058:
.LBB99_5:
	.loc	40 0 26 is_stmt 0
	movq	16(%rsp), %rax
.Ltmp1059:
	.loc	17 2067 13 is_stmt 1
	movq	104(%rsp), %rcx
	subq	$0, %rcx
.Ltmp1060:
	.loc	6 627 9
	cmpq	%rcx, %rax
	seta	%al
.Ltmp1061:
	.loc	6 426 44
	xorb	$-1, %al
	movb	%al, 15(%rsp)
	andb	$1, %al
	movb	%al, 199(%rsp)
	.loc	6 0 44 is_stmt 0
	movb	15(%rsp), %al
.Ltmp1062:
	.loc	2 75 17 is_stmt 1
	movzbl	%al, %edi
	andl	$1, %edi
	callq	_ZN4core4hint16assert_unchecked18precondition_check17h6c4500abb4304a0aE
.Ltmp1063:
	.loc	6 428 17
	movq	72(%rsp), %rax
	movq	80(%rsp), %rdx
.Ltmp1064:
	.loc	6 432 6 epilogue_begin
	addq	$216, %rsp
	.cfi_def_cfa_offset 8
	retq
.Ltmp1065:
.Lfunc_end99:
	.size	_ZN5alloc7raw_vec20RawVecInner$LT$A$GT$16with_capacity_in17h05a0957b7809f1a2E, .Lfunc_end99-_ZN5alloc7raw_vec20RawVecInner$LT$A$GT$16with_capacity_in17h05a0957b7809f1a2E
	.cfi_endproc

	.section	".text._ZN60_$LT$alloc..string..String$u20$as$u20$core..fmt..Display$GT$3fmt17h7376670bf6bc4028E","ax",@progbits
	.p2align	4
	.type	_ZN60_$LT$alloc..string..String$u20$as$u20$core..fmt..Display$GT$3fmt17h7376670bf6bc4028E,@function
_ZN60_$LT$alloc..string..String$u20$as$u20$core..fmt..Display$GT$3fmt17h7376670bf6bc4028E:
.Lfunc_begin100:
	.loc	15 2595 0
	.cfi_startproc
	subq	$88, %rsp
	.cfi_def_cfa_offset 96
	movq	%rsi, 8(%rsp)
	movq	%rdi, 32(%rsp)
	movq	%rsi, 40(%rsp)
.Ltmp1066:
	.loc	15 1069 43 prologue_end
	movq	%rdi, 48(%rsp)
.Ltmp1067:
	.loc	6 512 9
	movq	8(%rdi), %rax
	movq	%rax, 16(%rsp)
.Ltmp1068:
	.loc	7 1696 9
	movq	%rax, 56(%rsp)
.Ltmp1069:
	.loc	7 1600 55
	movq	16(%rdi), %rax
	movq	%rax, 24(%rsp)
	movq	%rax, 64(%rsp)
	.loc	7 0 55 is_stmt 0
	movq	24(%rsp), %rcx
	movq	16(%rsp), %rdi
.Ltmp1070:
	.loc	2 75 17 is_stmt 1
	movl	$1, %edx
	movq	%rdx, %rsi
	callq	_ZN4core5slice3raw14from_raw_parts18precondition_check17hfa653467a729f925E
	.loc	2 0 17 is_stmt 0
	movq	8(%rsp), %rdx
	movq	24(%rsp), %rsi
	movq	16(%rsp), %rdi
.Ltmp1071:
	.loc	36 116 5 is_stmt 1
	movq	%rdi, 72(%rsp)
	movq	%rsi, 80(%rsp)
.Ltmp1072:
	.loc	15 2596 9
	callq	*_ZN42_$LT$str$u20$as$u20$core..fmt..Display$GT$3fmt17hc34a6706652b50c1E@GOTPCREL(%rip)
	.loc	15 2597 6
	andb	$1, %al
	.loc	15 2597 6 epilogue_begin is_stmt 0
	addq	$88, %rsp
	.cfi_def_cfa_offset 8
	retq
.Ltmp1073:
.Lfunc_end100:
	.size	_ZN60_$LT$alloc..string..String$u20$as$u20$core..fmt..Display$GT$3fmt17h7376670bf6bc4028E, .Lfunc_end100-_ZN60_$LT$alloc..string..String$u20$as$u20$core..fmt..Display$GT$3fmt17h7376670bf6bc4028E
	.cfi_endproc

	.section	".text._ZN63_$LT$I$u20$as$u20$core..iter..traits..collect..IntoIterator$GT$9into_iter17h480d9594eaa9973bE","ax",@progbits
	.p2align	4
	.type	_ZN63_$LT$I$u20$as$u20$core..iter..traits..collect..IntoIterator$GT$9into_iter17h480d9594eaa9973bE,@function
_ZN63_$LT$I$u20$as$u20$core..iter..traits..collect..IntoIterator$GT$9into_iter17h480d9594eaa9973bE:
.Lfunc_begin101:
	.file	47 "/home/ordyboii/.rustup/toolchains/stable-x86_64-unknown-linux-gnu/lib/rustlib/src/rust/library/core/src/iter/traits" "collect.rs"
	.loc	47 322 0 is_stmt 1
	.cfi_startproc
	movq	%rsi, %rdx
	movq	%rdi, %rax
	movq	%rax, -16(%rsp)
	movq	%rdx, -8(%rsp)
.Ltmp1074:
	.loc	47 324 6 prologue_end
	retq
.Ltmp1075:
.Lfunc_end101:
	.size	_ZN63_$LT$I$u20$as$u20$core..iter..traits..collect..IntoIterator$GT$9into_iter17h480d9594eaa9973bE, .Lfunc_end101-_ZN63_$LT$I$u20$as$u20$core..iter..traits..collect..IntoIterator$GT$9into_iter17h480d9594eaa9973bE
	.cfi_endproc

	.section	".text._ZN63_$LT$I$u20$as$u20$core..iter..traits..collect..IntoIterator$GT$9into_iter17h7369eaf5fd316751E","ax",@progbits
	.p2align	4
	.type	_ZN63_$LT$I$u20$as$u20$core..iter..traits..collect..IntoIterator$GT$9into_iter17h7369eaf5fd316751E,@function
_ZN63_$LT$I$u20$as$u20$core..iter..traits..collect..IntoIterator$GT$9into_iter17h7369eaf5fd316751E:
.Lfunc_begin102:
	.loc	47 322 0
	.cfi_startproc
	movq	%rsi, %rdx
	movq	%rdi, %rax
	movq	%rax, -16(%rsp)
	movq	%rdx, -8(%rsp)
.Ltmp1076:
	.loc	47 324 6 prologue_end
	retq
.Ltmp1077:
.Lfunc_end102:
	.size	_ZN63_$LT$I$u20$as$u20$core..iter..traits..collect..IntoIterator$GT$9into_iter17h7369eaf5fd316751E, .Lfunc_end102-_ZN63_$LT$I$u20$as$u20$core..iter..traits..collect..IntoIterator$GT$9into_iter17h7369eaf5fd316751E
	.cfi_endproc

	.section	".text._ZN63_$LT$I$u20$as$u20$core..iter..traits..collect..IntoIterator$GT$9into_iter17h8d42942a9561daa9E","ax",@progbits
	.p2align	4
	.type	_ZN63_$LT$I$u20$as$u20$core..iter..traits..collect..IntoIterator$GT$9into_iter17h8d42942a9561daa9E,@function
_ZN63_$LT$I$u20$as$u20$core..iter..traits..collect..IntoIterator$GT$9into_iter17h8d42942a9561daa9E:
.Lfunc_begin103:
	.loc	47 322 0
	.cfi_startproc
	movl	%esi, %edx
	movl	%edi, %eax
	movl	%eax, -8(%rsp)
	movl	%edx, -4(%rsp)
.Ltmp1078:
	.loc	47 324 6 prologue_end
	retq
.Ltmp1079:
.Lfunc_end103:
	.size	_ZN63_$LT$I$u20$as$u20$core..iter..traits..collect..IntoIterator$GT$9into_iter17h8d42942a9561daa9E, .Lfunc_end103-_ZN63_$LT$I$u20$as$u20$core..iter..traits..collect..IntoIterator$GT$9into_iter17h8d42942a9561daa9E
	.cfi_endproc

	.section	".text._ZN65_$LT$alloc..vec..Vec$LT$T$C$A$GT$$u20$as$u20$core..fmt..Debug$GT$3fmt17h068488af790689e2E","ax",@progbits
	.p2align	4
	.type	_ZN65_$LT$alloc..vec..Vec$LT$T$C$A$GT$$u20$as$u20$core..fmt..Debug$GT$3fmt17h068488af790689e2E,@function
_ZN65_$LT$alloc..vec..Vec$LT$T$C$A$GT$$u20$as$u20$core..fmt..Debug$GT$3fmt17h068488af790689e2E:
.Lfunc_begin104:
	.loc	7 3822 0
	.cfi_startproc
	subq	$56, %rsp
	.cfi_def_cfa_offset 64
	movq	%rsi, (%rsp)
	movq	%rdi, 24(%rsp)
	movq	%rsi, 32(%rsp)
.Ltmp1080:
	.loc	6 512 9 prologue_end
	movq	8(%rdi), %rax
	movq	%rax, 8(%rsp)
.Ltmp1081:
	.loc	7 1696 9
	movq	%rax, 40(%rsp)
.Ltmp1082:
	.loc	7 1600 55
	movq	16(%rdi), %rax
	movq	%rax, 16(%rsp)
	movq	%rax, 48(%rsp)
	.loc	7 0 55 is_stmt 0
	movq	16(%rsp), %rcx
	movq	8(%rsp), %rdi
.Ltmp1083:
	.loc	2 75 17 is_stmt 1
	movl	$4, %edx
	movq	%rdx, %rsi
	callq	_ZN4core5slice3raw14from_raw_parts18precondition_check17hfa653467a729f925E
.Ltmp1084:
	.loc	2 0 17 is_stmt 0
	movq	(%rsp), %rdx
	movq	16(%rsp), %rsi
	movq	8(%rsp), %rdi
	.loc	7 3823 9 is_stmt 1
	callq	_ZN48_$LT$$u5b$T$u5d$$u20$as$u20$core..fmt..Debug$GT$3fmt17h2485be3502a00e3eE
	.loc	7 3824 6
	andb	$1, %al
	.loc	7 3824 6 epilogue_begin is_stmt 0
	addq	$56, %rsp
	.cfi_def_cfa_offset 8
	retq
.Ltmp1085:
.Lfunc_end104:
	.size	_ZN65_$LT$alloc..vec..Vec$LT$T$C$A$GT$$u20$as$u20$core..fmt..Debug$GT$3fmt17h068488af790689e2E, .Lfunc_end104-_ZN65_$LT$alloc..vec..Vec$LT$T$C$A$GT$$u20$as$u20$core..fmt..Debug$GT$3fmt17h068488af790689e2E
	.cfi_endproc

	.section	".text._ZN70_$LT$alloc..vec..Vec$LT$T$C$A$GT$$u20$as$u20$core..ops..drop..Drop$GT$4drop17h93faa721d57c1e8eE","ax",@progbits
	.p2align	4
	.type	_ZN70_$LT$alloc..vec..Vec$LT$T$C$A$GT$$u20$as$u20$core..ops..drop..Drop$GT$4drop17h93faa721d57c1e8eE,@function
_ZN70_$LT$alloc..vec..Vec$LT$T$C$A$GT$$u20$as$u20$core..ops..drop..Drop$GT$4drop17h93faa721d57c1e8eE:
.Lfunc_begin105:
	.loc	7 3799 0 is_stmt 1
	.cfi_startproc
	movq	%rdi, -24(%rsp)
.Ltmp1086:
	.loc	6 512 9 prologue_end
	movq	8(%rdi), %rax
.Ltmp1087:
	.loc	19 391 18
	movq	%rax, -16(%rsp)
.Ltmp1088:
	.loc	7 3804 81
	movq	16(%rdi), %rax
	movq	%rax, -8(%rsp)
	.loc	7 3807 6
	retq
.Ltmp1089:
.Lfunc_end105:
	.size	_ZN70_$LT$alloc..vec..Vec$LT$T$C$A$GT$$u20$as$u20$core..ops..drop..Drop$GT$4drop17h93faa721d57c1e8eE, .Lfunc_end105-_ZN70_$LT$alloc..vec..Vec$LT$T$C$A$GT$$u20$as$u20$core..ops..drop..Drop$GT$4drop17h93faa721d57c1e8eE
	.cfi_endproc

	.section	".text._ZN70_$LT$alloc..vec..Vec$LT$T$C$A$GT$$u20$as$u20$core..ops..drop..Drop$GT$4drop17hc6f83f57ce550938E","ax",@progbits
	.p2align	4
	.type	_ZN70_$LT$alloc..vec..Vec$LT$T$C$A$GT$$u20$as$u20$core..ops..drop..Drop$GT$4drop17hc6f83f57ce550938E,@function
_ZN70_$LT$alloc..vec..Vec$LT$T$C$A$GT$$u20$as$u20$core..ops..drop..Drop$GT$4drop17hc6f83f57ce550938E:
.Lfunc_begin106:
	.loc	7 3799 0
	.cfi_startproc
	subq	$24, %rsp
	.cfi_def_cfa_offset 32
	movq	%rdi, %rax
	movq	%rax, (%rsp)
.Ltmp1090:
	.loc	6 512 9 prologue_end
	movq	8(%rax), %rdi
.Ltmp1091:
	.loc	19 391 18
	movq	%rdi, 8(%rsp)
.Ltmp1092:
	.loc	7 3804 81
	movq	16(%rax), %rsi
	movq	%rsi, 16(%rsp)
	.loc	7 3804 13 is_stmt 0
	callq	_ZN4core3ptr52drop_in_place$LT$$u5b$alloc..string..String$u5d$$GT$17h6d41e8b25e66c33bE
	.loc	7 3807 6 epilogue_begin is_stmt 1
	addq	$24, %rsp
	.cfi_def_cfa_offset 8
	retq
.Ltmp1093:
.Lfunc_end106:
	.size	_ZN70_$LT$alloc..vec..Vec$LT$T$C$A$GT$$u20$as$u20$core..ops..drop..Drop$GT$4drop17hc6f83f57ce550938E, .Lfunc_end106-_ZN70_$LT$alloc..vec..Vec$LT$T$C$A$GT$$u20$as$u20$core..ops..drop..Drop$GT$4drop17hc6f83f57ce550938E
	.cfi_endproc

	.section	".text._ZN72_$LT$alloc..vec..Vec$LT$T$C$A$GT$$u20$as$u20$core..ops..deref..Deref$GT$5deref17hd2e524a80cf0dfaeE","ax",@progbits
	.p2align	4
	.type	_ZN72_$LT$alloc..vec..Vec$LT$T$C$A$GT$$u20$as$u20$core..ops..deref..Deref$GT$5deref17hd2e524a80cf0dfaeE,@function
_ZN72_$LT$alloc..vec..Vec$LT$T$C$A$GT$$u20$as$u20$core..ops..deref..Deref$GT$5deref17hd2e524a80cf0dfaeE:
.Lfunc_begin107:
	.loc	7 3298 0
	.cfi_startproc
	pushq	%rax
	.cfi_def_cfa_offset 16
	movq	%rdi, (%rsp)
.Ltmp1094:
	.loc	7 3299 9 prologue_end
	callq	_ZN5alloc3vec16Vec$LT$T$C$A$GT$8as_slice17h531b0f09664deff1E
	.loc	7 3300 6 epilogue_begin
	popq	%rcx
	.cfi_def_cfa_offset 8
	retq
.Ltmp1095:
.Lfunc_end107:
	.size	_ZN72_$LT$alloc..vec..Vec$LT$T$C$A$GT$$u20$as$u20$core..ops..deref..Deref$GT$5deref17hd2e524a80cf0dfaeE, .Lfunc_end107-_ZN72_$LT$alloc..vec..Vec$LT$T$C$A$GT$$u20$as$u20$core..ops..deref..Deref$GT$5deref17hd2e524a80cf0dfaeE
	.cfi_endproc

	.section	".text._ZN72_$LT$alloc..vec..Vec$LT$T$C$A$GT$$u20$as$u20$core..ops..deref..Deref$GT$5deref17hd698b76c7f9b2404E","ax",@progbits
	.p2align	4
	.type	_ZN72_$LT$alloc..vec..Vec$LT$T$C$A$GT$$u20$as$u20$core..ops..deref..Deref$GT$5deref17hd698b76c7f9b2404E,@function
_ZN72_$LT$alloc..vec..Vec$LT$T$C$A$GT$$u20$as$u20$core..ops..deref..Deref$GT$5deref17hd698b76c7f9b2404E:
.Lfunc_begin108:
	.loc	7 3298 0
	.cfi_startproc
	pushq	%rax
	.cfi_def_cfa_offset 16
	movq	%rdi, (%rsp)
.Ltmp1096:
	.loc	7 3299 9 prologue_end
	callq	_ZN5alloc3vec16Vec$LT$T$C$A$GT$8as_slice17hf11455c9d021bde9E
	.loc	7 3300 6 epilogue_begin
	popq	%rcx
	.cfi_def_cfa_offset 8
	retq
.Ltmp1097:
.Lfunc_end108:
	.size	_ZN72_$LT$alloc..vec..Vec$LT$T$C$A$GT$$u20$as$u20$core..ops..deref..Deref$GT$5deref17hd698b76c7f9b2404E, .Lfunc_end108-_ZN72_$LT$alloc..vec..Vec$LT$T$C$A$GT$$u20$as$u20$core..ops..deref..Deref$GT$5deref17hd698b76c7f9b2404E
	.cfi_endproc

	.section	".text._ZN74_$LT$alloc..string..String$u20$as$u20$core..ops..index..Index$LT$I$GT$$GT$5index17h30cd00cc9b4762baE","ax",@progbits
	.p2align	4
	.type	_ZN74_$LT$alloc..string..String$u20$as$u20$core..ops..index..Index$LT$I$GT$$GT$5index17h30cd00cc9b4762baE,@function
_ZN74_$LT$alloc..string..String$u20$as$u20$core..ops..index..Index$LT$I$GT$$GT$5index17h30cd00cc9b4762baE:
.Lfunc_begin109:
	.loc	15 2685 0
	.cfi_startproc
	subq	$88, %rsp
	.cfi_def_cfa_offset 96
	movq	%rsi, 8(%rsp)
	movq	%rdi, 32(%rsp)
.Ltmp1098:
	.loc	15 1069 43 prologue_end
	movq	%rdi, 48(%rsp)
.Ltmp1099:
	.loc	6 512 9
	movq	8(%rdi), %rax
	movq	%rax, 16(%rsp)
.Ltmp1100:
	.loc	7 1696 9
	movq	%rax, 56(%rsp)
.Ltmp1101:
	.loc	7 1600 55
	movq	16(%rdi), %rax
	movq	%rax, 24(%rsp)
	movq	%rax, 64(%rsp)
	.loc	7 0 55 is_stmt 0
	movq	24(%rsp), %rcx
	movq	16(%rsp), %rdi
.Ltmp1102:
	.loc	2 75 17 is_stmt 1
	movl	$1, %edx
	movq	%rdx, %rsi
	callq	_ZN4core5slice3raw14from_raw_parts18precondition_check17hfa653467a729f925E
	.loc	2 0 17 is_stmt 0
	movq	8(%rsp), %rdx
	movq	24(%rsp), %rsi
	movq	16(%rsp), %rdi
.Ltmp1103:
	.loc	36 116 5 is_stmt 1
	movq	%rdi, 72(%rsp)
	movq	%rsi, 80(%rsp)
.Ltmp1104:
	.loc	15 2686 9
	callq	_ZN4core3str6traits99_$LT$impl$u20$core..slice..index..SliceIndex$LT$str$GT$$u20$for$u20$core..ops..range..RangeFull$GT$5index17hbd29c3fdf741db5eE
	.loc	15 2687 6 epilogue_begin
	addq	$88, %rsp
	.cfi_def_cfa_offset 8
	retq
.Ltmp1105:
.Lfunc_end109:
	.size	_ZN74_$LT$alloc..string..String$u20$as$u20$core..ops..index..Index$LT$I$GT$$GT$5index17h30cd00cc9b4762baE, .Lfunc_end109-_ZN74_$LT$alloc..string..String$u20$as$u20$core..ops..index..Index$LT$I$GT$$GT$5index17h30cd00cc9b4762baE
	.cfi_endproc

	.section	".text._ZN75_$LT$$RF$mut$u20$W$u20$as$u20$core..fmt..Write..write_fmt..SpecWriteFmt$GT$14spec_write_fmt17h2aacf4e8b8fddd94E","ax",@progbits
	.p2align	4
	.type	_ZN75_$LT$$RF$mut$u20$W$u20$as$u20$core..fmt..Write..write_fmt..SpecWriteFmt$GT$14spec_write_fmt17h2aacf4e8b8fddd94E,@function
_ZN75_$LT$$RF$mut$u20$W$u20$as$u20$core..fmt..Write..write_fmt..SpecWriteFmt$GT$14spec_write_fmt17h2aacf4e8b8fddd94E:
.Lfunc_begin110:
	.loc	14 225 0
	.cfi_startproc
	subq	$184, %rsp
	.cfi_def_cfa_offset 192
	movq	%rdi, (%rsp)
	movq	%rsi, 8(%rsp)
.Ltmp1106:
	movq	%rdi, 80(%rsp)
.Ltmp1107:
	.loc	14 226 34 prologue_end
	movq	%rsi, 88(%rsp)
.Ltmp1108:
	.loc	14 700 16
	movq	(%rsi), %rax
	movq	%rax, 16(%rsp)
	movq	8(%rsi), %rax
	movq	%rax, 24(%rsp)
	.loc	14 700 29 is_stmt 0
	movq	24(%rsi), %rcx
	movq	%rcx, 32(%rsp)
	.loc	14 701 14 is_stmt 1
	cmpq	$0, %rax
.Ltmp1109:
	jne	.LBB110_2
.Ltmp1110:
	.loc	14 0 14 is_stmt 0
	movq	32(%rsp), %rax
	.loc	14 701 18
	cmpq	$0, %rax
	je	.LBB110_3
	jmp	.LBB110_4
.Ltmp1111:
.LBB110_2:
	.loc	14 0 18
	movq	24(%rsp), %rax
	.loc	14 702 14 is_stmt 1
	cmpq	$1, %rax
	je	.LBB110_6
	jmp	.LBB110_4
.Ltmp1112:
.LBB110_3:
	.loc	14 701 25
	movl	$1, %eax
	movq	%rax, 64(%rsp)
	movq	$0, 72(%rsp)
	.loc	14 701 32 is_stmt 0
	jmp	.LBB110_5
.Ltmp1113:
.LBB110_4:
	.loc	14 703 18 is_stmt 1
	movq	.Lanon.60f91fde1ce0e38296af11bc775d42ab.3(%rip), %rcx
	movq	.Lanon.60f91fde1ce0e38296af11bc775d42ab.3+8(%rip), %rax
	movq	%rcx, 64(%rsp)
	movq	%rax, 72(%rsp)
.Ltmp1114:
.LBB110_5:
	.loc	14 714 54
	leaq	64(%rsp), %rax
	movq	%rax, 104(%rsp)
	.loc	14 714 12 is_stmt 0
	movb	$0, 119(%rsp)
	testb	$1, 119(%rsp)
	jne	.LBB110_9
	jmp	.LBB110_8
.Ltmp1115:
.LBB110_6:
	.loc	14 0 12
	movq	32(%rsp), %rax
.Ltmp1116:
	.loc	14 702 19 is_stmt 1
	cmpq	$0, %rax
	jne	.LBB110_4
.Ltmp1117:
	.loc	14 0 19 is_stmt 0
	movq	16(%rsp), %rax
	.loc	14 702 15
	movq	%rax, 96(%rsp)
.Ltmp1118:
	.loc	14 702 31
	movq	(%rax), %rcx
	movq	8(%rax), %rax
	.loc	14 702 26
	movq	%rcx, 64(%rsp)
	movq	%rax, 72(%rsp)
.Ltmp1119:
	.loc	14 702 32
	jmp	.LBB110_5
.Ltmp1120:
.LBB110_8:
	.loc	14 226 24 is_stmt 1
	jmp	.LBB110_10
.Ltmp1121:
.LBB110_9:
	.loc	14 714 69
	movq	64(%rsp), %rcx
	movq	72(%rsp), %rax
	movq	%rcx, 48(%rsp)
	movq	%rax, 56(%rsp)
.Ltmp1122:
	.loc	14 226 34
	movq	48(%rsp), %rdx
	movl	$1, %eax
	xorl	%ecx, %ecx
	cmpq	$0, %rdx
	cmoveq	%rcx, %rax
	.loc	14 226 24 is_stmt 0
	testq	$1, %rax
	jne	.LBB110_11
.Ltmp1123:
.LBB110_10:
	.loc	14 0 24
	movq	8(%rsp), %rsi
	.loc	14 229 21 is_stmt 1
	leaq	136(%rsp), %rdi
	movl	$48, %edx
	callq	memcpy@PLT
	movq	(%rsp), %rdi
	leaq	.Lanon.60f91fde1ce0e38296af11bc775d42ab.5(%rip), %rsi
	leaq	136(%rsp), %rdx
	callq	*_ZN4core3fmt5write17h275e5980d7008551E@GOTPCREL(%rip)
	andb	$1, %al
	movb	%al, 47(%rsp)
	.loc	14 226 17
	jmp	.LBB110_12
.Ltmp1124:
.LBB110_11:
	.loc	14 0 17 is_stmt 0
	movq	(%rsp), %rdi
.Ltmp1125:
	.loc	14 226 29
	movq	48(%rsp), %rsi
	movq	56(%rsp), %rdx
	movq	%rsi, 120(%rsp)
	movq	%rdx, 128(%rsp)
	.loc	14 227 21 is_stmt 1
	callq	_ZN58_$LT$alloc..string..String$u20$as$u20$core..fmt..Write$GT$9write_str17hac7aa2f1a1a9c098E
	andb	$1, %al
	movb	%al, 47(%rsp)
.Ltmp1126:
.LBB110_12:
	.loc	14 231 14
	movb	47(%rsp), %al
	andb	$1, %al
	.loc	14 231 14 epilogue_begin is_stmt 0
	addq	$184, %rsp
	.cfi_def_cfa_offset 8
	retq
.Ltmp1127:
.Lfunc_end110:
	.size	_ZN75_$LT$$RF$mut$u20$W$u20$as$u20$core..fmt..Write..write_fmt..SpecWriteFmt$GT$14spec_write_fmt17h2aacf4e8b8fddd94E, .Lfunc_end110-_ZN75_$LT$$RF$mut$u20$W$u20$as$u20$core..fmt..Write..write_fmt..SpecWriteFmt$GT$14spec_write_fmt17h2aacf4e8b8fddd94E
	.cfi_endproc

	.section	".text._ZN75_$LT$core..option..Option$LT$T$GT$$u20$as$u20$core..ops..try_trait..Try$GT$11from_output17hd32445ccf91095ceE","ax",@progbits
	.p2align	4
	.type	_ZN75_$LT$core..option..Option$LT$T$GT$$u20$as$u20$core..ops..try_trait..Try$GT$11from_output17hd32445ccf91095ceE,@function
_ZN75_$LT$core..option..Option$LT$T$GT$$u20$as$u20$core..ops..try_trait..Try$GT$11from_output17hd32445ccf91095ceE:
.Lfunc_begin111:
	.loc	8 2509 0 is_stmt 1
	.cfi_startproc
	movq	%rdi, -8(%rsp)
.Ltmp1128:
	.loc	8 2510 9 prologue_end
	movq	%rdi, -16(%rsp)
	movq	$1, -24(%rsp)
	.loc	8 2511 6
	movq	-24(%rsp), %rax
	movq	-16(%rsp), %rdx
	retq
.Ltmp1129:
.Lfunc_end111:
	.size	_ZN75_$LT$core..option..Option$LT$T$GT$$u20$as$u20$core..ops..try_trait..Try$GT$11from_output17hd32445ccf91095ceE, .Lfunc_end111-_ZN75_$LT$core..option..Option$LT$T$GT$$u20$as$u20$core..ops..try_trait..Try$GT$11from_output17hd32445ccf91095ceE
	.cfi_endproc

	.section	".text._ZN75_$LT$core..option..Option$LT$T$GT$$u20$as$u20$core..ops..try_trait..Try$GT$6branch17h87679cd9f9961d81E","ax",@progbits
	.p2align	4
	.type	_ZN75_$LT$core..option..Option$LT$T$GT$$u20$as$u20$core..ops..try_trait..Try$GT$6branch17h87679cd9f9961d81E,@function
_ZN75_$LT$core..option..Option$LT$T$GT$$u20$as$u20$core..ops..try_trait..Try$GT$6branch17h87679cd9f9961d81E:
.Lfunc_begin112:
	.loc	8 2514 0
	.cfi_startproc
	movq	%rdi, -40(%rsp)
	movq	%rsi, -32(%rsp)
.Ltmp1130:
	.loc	8 2515 9 prologue_end
	testq	$1, -40(%rsp)
	je	.LBB112_2
	.loc	8 2516 18
	movq	-32(%rsp), %rax
	movq	%rax, -8(%rsp)
.Ltmp1131:
	.loc	8 2516 24 is_stmt 0
	movq	%rax, -16(%rsp)
	movq	$0, -24(%rsp)
.Ltmp1132:
	.loc	8 2519 5 is_stmt 1
	jmp	.LBB112_3
.LBB112_2:
	.loc	8 2517 21
	movq	$1, -24(%rsp)
.LBB112_3:
	.loc	8 2519 6
	movq	-24(%rsp), %rax
	movq	-16(%rsp), %rdx
	retq
.Ltmp1133:
.Lfunc_end112:
	.size	_ZN75_$LT$core..option..Option$LT$T$GT$$u20$as$u20$core..ops..try_trait..Try$GT$6branch17h87679cd9f9961d81E, .Lfunc_end112-_ZN75_$LT$core..option..Option$LT$T$GT$$u20$as$u20$core..ops..try_trait..Try$GT$6branch17h87679cd9f9961d81E
	.cfi_endproc

	.section	".text._ZN75_$LT$usize$u20$as$u20$core..slice..index..SliceIndex$LT$$u5b$T$u5d$$GT$$GT$5index17h7c252088914a17a9E","ax",@progbits
	.p2align	4
	.type	_ZN75_$LT$usize$u20$as$u20$core..slice..index..SliceIndex$LT$$u5b$T$u5d$$GT$$GT$5index17h7c252088914a17a9E,@function
_ZN75_$LT$usize$u20$as$u20$core..slice..index..SliceIndex$LT$$u5b$T$u5d$$GT$$GT$5index17h7c252088914a17a9E:
.Lfunc_begin113:
	.loc	3 272 0
	.cfi_startproc
	subq	$56, %rsp
	.cfi_def_cfa_offset 64
	movq	%rdi, (%rsp)
	movq	%rsi, 8(%rsp)
	movq	%rdx, 16(%rsp)
	movq	%rcx, 24(%rsp)
	movq	%rdi, 32(%rsp)
	movq	%rsi, 40(%rsp)
	movq	%rdx, 48(%rsp)
.Ltmp1134:
	.loc	3 274 10 prologue_end
	cmpq	%rdx, %rdi
	jae	.LBB113_2
	.loc	3 0 10 is_stmt 0
	movq	8(%rsp), %rax
	movq	(%rsp), %rcx
	.loc	3 274 9
	shlq	$2, %rcx
	addq	%rcx, %rax
	.loc	3 275 6 epilogue_begin is_stmt 1
	addq	$56, %rsp
	.cfi_def_cfa_offset 8
	retq
.LBB113_2:
	.cfi_def_cfa_offset 64
	.loc	3 0 6 is_stmt 0
	movq	24(%rsp), %rdx
	movq	16(%rsp), %rsi
	movq	(%rsp), %rdi
	.loc	3 274 10 is_stmt 1
	callq	*_ZN4core9panicking18panic_bounds_check17hda0827d94e974e71E@GOTPCREL(%rip)
.Ltmp1135:
.Lfunc_end113:
	.size	_ZN75_$LT$usize$u20$as$u20$core..slice..index..SliceIndex$LT$$u5b$T$u5d$$GT$$GT$5index17h7c252088914a17a9E, .Lfunc_end113-_ZN75_$LT$usize$u20$as$u20$core..slice..index..SliceIndex$LT$$u5b$T$u5d$$GT$$GT$5index17h7c252088914a17a9E
	.cfi_endproc

	.section	".text._ZN77_$LT$alloc..raw_vec..RawVec$LT$T$C$A$GT$$u20$as$u20$core..ops..drop..Drop$GT$4drop17h8415d88874ca0c00E","ax",@progbits
	.p2align	4
	.type	_ZN77_$LT$alloc..raw_vec..RawVec$LT$T$C$A$GT$$u20$as$u20$core..ops..drop..Drop$GT$4drop17h8415d88874ca0c00E,@function
_ZN77_$LT$alloc..raw_vec..RawVec$LT$T$C$A$GT$$u20$as$u20$core..ops..drop..Drop$GT$4drop17h8415d88874ca0c00E:
.Lfunc_begin114:
	.loc	6 404 0
	.cfi_startproc
	pushq	%rax
	.cfi_def_cfa_offset 16
	movq	%rdi, (%rsp)
.Ltmp1136:
	.loc	6 406 18 prologue_end
	movl	$4, %edx
	movq	%rdx, %rsi
	callq	*_ZN5alloc7raw_vec20RawVecInner$LT$A$GT$10deallocate17h06eec048b34db7f5E@GOTPCREL(%rip)
	.loc	6 407 6 epilogue_begin
	popq	%rax
	.cfi_def_cfa_offset 8
	retq
.Ltmp1137:
.Lfunc_end114:
	.size	_ZN77_$LT$alloc..raw_vec..RawVec$LT$T$C$A$GT$$u20$as$u20$core..ops..drop..Drop$GT$4drop17h8415d88874ca0c00E, .Lfunc_end114-_ZN77_$LT$alloc..raw_vec..RawVec$LT$T$C$A$GT$$u20$as$u20$core..ops..drop..Drop$GT$4drop17h8415d88874ca0c00E
	.cfi_endproc

	.section	".text._ZN77_$LT$alloc..raw_vec..RawVec$LT$T$C$A$GT$$u20$as$u20$core..ops..drop..Drop$GT$4drop17hea47ee0483169086E","ax",@progbits
	.p2align	4
	.type	_ZN77_$LT$alloc..raw_vec..RawVec$LT$T$C$A$GT$$u20$as$u20$core..ops..drop..Drop$GT$4drop17hea47ee0483169086E,@function
_ZN77_$LT$alloc..raw_vec..RawVec$LT$T$C$A$GT$$u20$as$u20$core..ops..drop..Drop$GT$4drop17hea47ee0483169086E:
.Lfunc_begin115:
	.loc	6 404 0
	.cfi_startproc
	pushq	%rax
	.cfi_def_cfa_offset 16
	movq	%rdi, (%rsp)
.Ltmp1138:
	.loc	6 406 18 prologue_end
	movl	$8, %esi
	movl	$24, %edx
	callq	*_ZN5alloc7raw_vec20RawVecInner$LT$A$GT$10deallocate17h06eec048b34db7f5E@GOTPCREL(%rip)
	.loc	6 407 6 epilogue_begin
	popq	%rax
	.cfi_def_cfa_offset 8
	retq
.Ltmp1139:
.Lfunc_end115:
	.size	_ZN77_$LT$alloc..raw_vec..RawVec$LT$T$C$A$GT$$u20$as$u20$core..ops..drop..Drop$GT$4drop17hea47ee0483169086E, .Lfunc_end115-_ZN77_$LT$alloc..raw_vec..RawVec$LT$T$C$A$GT$$u20$as$u20$core..ops..drop..Drop$GT$4drop17hea47ee0483169086E
	.cfi_endproc

	.section	".text._ZN81_$LT$alloc..vec..Vec$LT$T$C$A$GT$$u20$as$u20$core..ops..index..Index$LT$I$GT$$GT$5index17h4e9c7c8b41396518E","ax",@progbits
	.p2align	4
	.type	_ZN81_$LT$alloc..vec..Vec$LT$T$C$A$GT$$u20$as$u20$core..ops..index..Index$LT$I$GT$$GT$5index17h4e9c7c8b41396518E,@function
_ZN81_$LT$alloc..vec..Vec$LT$T$C$A$GT$$u20$as$u20$core..ops..index..Index$LT$I$GT$$GT$5index17h4e9c7c8b41396518E:
.Lfunc_begin116:
	.loc	7 3375 0
	.cfi_startproc
	subq	$88, %rsp
	.cfi_def_cfa_offset 96
	movq	%rsi, 8(%rsp)
	movq	%rdx, 16(%rsp)
	movq	%rdi, 40(%rsp)
	movq	%rsi, 48(%rsp)
.Ltmp1140:
	.loc	6 512 9 prologue_end
	movq	8(%rdi), %rax
	movq	%rax, 24(%rsp)
.Ltmp1141:
	.loc	7 1696 9
	movq	%rax, 56(%rsp)
.Ltmp1142:
	.loc	7 1600 55
	movq	16(%rdi), %rax
	movq	%rax, 32(%rsp)
	movq	%rax, 64(%rsp)
	.loc	7 0 55 is_stmt 0
	movq	32(%rsp), %rcx
	movq	24(%rsp), %rdi
.Ltmp1143:
	.loc	2 75 17 is_stmt 1
	movl	$4, %edx
	movq	%rdx, %rsi
	callq	_ZN4core5slice3raw14from_raw_parts18precondition_check17hfa653467a729f925E
	.loc	2 0 17 is_stmt 0
	movq	16(%rsp), %rcx
	movq	32(%rsp), %rdx
	movq	24(%rsp), %rsi
	movq	8(%rsp), %rdi
.Ltmp1144:
	.loc	36 116 5 is_stmt 1
	movq	%rsi, 72(%rsp)
	movq	%rdx, 80(%rsp)
.Ltmp1145:
	.loc	3 16 9
	callq	_ZN75_$LT$usize$u20$as$u20$core..slice..index..SliceIndex$LT$$u5b$T$u5d$$GT$$GT$5index17h7c252088914a17a9E
.Ltmp1146:
	.loc	7 3377 6 epilogue_begin
	addq	$88, %rsp
	.cfi_def_cfa_offset 8
	retq
.Ltmp1147:
.Lfunc_end116:
	.size	_ZN81_$LT$alloc..vec..Vec$LT$T$C$A$GT$$u20$as$u20$core..ops..index..Index$LT$I$GT$$GT$5index17h4e9c7c8b41396518E, .Lfunc_end116-_ZN81_$LT$alloc..vec..Vec$LT$T$C$A$GT$$u20$as$u20$core..ops..index..Index$LT$I$GT$$GT$5index17h4e9c7c8b41396518E
	.cfi_endproc

	.section	".text._ZN83_$LT$alloc..vec..set_len_on_drop..SetLenOnDrop$u20$as$u20$core..ops..drop..Drop$GT$4drop17hb7b367527df5e884E","ax",@progbits
	.p2align	4
	.type	_ZN83_$LT$alloc..vec..set_len_on_drop..SetLenOnDrop$u20$as$u20$core..ops..drop..Drop$GT$4drop17hb7b367527df5e884E,@function
_ZN83_$LT$alloc..vec..set_len_on_drop..SetLenOnDrop$u20$as$u20$core..ops..drop..Drop$GT$4drop17hb7b367527df5e884E:
.Lfunc_begin117:
	.loc	42 30 0
	.cfi_startproc
	movq	%rdi, -8(%rsp)
.Ltmp1148:
	.loc	42 31 21 prologue_end
	movq	8(%rdi), %rcx
	.loc	42 31 9 is_stmt 0
	movq	(%rdi), %rax
	movq	%rcx, (%rax)
	.loc	42 32 6 is_stmt 1
	retq
.Ltmp1149:
.Lfunc_end117:
	.size	_ZN83_$LT$alloc..vec..set_len_on_drop..SetLenOnDrop$u20$as$u20$core..ops..drop..Drop$GT$4drop17hb7b367527df5e884E, .Lfunc_end117-_ZN83_$LT$alloc..vec..set_len_on_drop..SetLenOnDrop$u20$as$u20$core..ops..drop..Drop$GT$4drop17hb7b367527df5e884E
	.cfi_endproc

	.section	".text._ZN89_$LT$core..ops..range..Range$LT$T$GT$$u20$as$u20$core..iter..range..RangeIteratorImpl$GT$9spec_next17ha0223fad9d4aac6cE","ax",@progbits
	.p2align	4
	.type	_ZN89_$LT$core..ops..range..Range$LT$T$GT$$u20$as$u20$core..iter..range..RangeIteratorImpl$GT$9spec_next17ha0223fad9d4aac6cE,@function
_ZN89_$LT$core..ops..range..Range$LT$T$GT$$u20$as$u20$core..iter..range..RangeIteratorImpl$GT$9spec_next17ha0223fad9d4aac6cE:
.Lfunc_begin118:
	.loc	16 763 0
	.cfi_startproc
	subq	$56, %rsp
	.cfi_def_cfa_offset 64
	movq	%rdi, 8(%rsp)
	movq	%rdi, 24(%rsp)
.Ltmp1150:
	.loc	16 764 25 prologue_end
	movq	%rdi, %rax
	addq	$4, %rax
	movq	%rdi, 40(%rsp)
	movq	%rax, 48(%rsp)
.Ltmp1151:
	.file	48 "/home/ordyboii/.rustup/toolchains/stable-x86_64-unknown-linux-gnu/lib/rustlib/src/rust/library/core/src" "cmp.rs"
	.loc	48 1849 50
	movl	(%rdi), %eax
	cmpl	4(%rdi), %eax
.Ltmp1152:
	.loc	16 764 12
	jb	.LBB118_2
	.loc	16 770 13
	movl	$0, 16(%rsp)
	.loc	16 764 9
	jmp	.LBB118_3
.LBB118_2:
	.loc	16 0 9 is_stmt 0
	movq	8(%rsp), %rax
	.loc	16 765 23 is_stmt 1
	movl	(%rax), %edi
	movl	%edi, 4(%rsp)
	movl	%edi, 36(%rsp)
.Ltmp1153:
	.loc	16 767 35
	movl	$1, %esi
	callq	_ZN47_$LT$u32$u20$as$u20$core..iter..range..Step$GT$17forward_unchecked17hab588e00b7cf7ac9E
	movq	8(%rsp), %rcx
	movl	%eax, %edx
	movl	4(%rsp), %eax
	.loc	16 767 13 is_stmt 0
	movl	%edx, (%rcx)
	.loc	16 768 13 is_stmt 1
	movl	%eax, 20(%rsp)
	movl	$1, 16(%rsp)
.Ltmp1154:
.LBB118_3:
	.loc	16 772 6
	movl	16(%rsp), %eax
	movl	20(%rsp), %edx
	.loc	16 772 6 epilogue_begin is_stmt 0
	addq	$56, %rsp
	.cfi_def_cfa_offset 8
	retq
.Ltmp1155:
.Lfunc_end118:
	.size	_ZN89_$LT$core..ops..range..Range$LT$T$GT$$u20$as$u20$core..iter..range..RangeIteratorImpl$GT$9spec_next17ha0223fad9d4aac6cE, .Lfunc_end118-_ZN89_$LT$core..ops..range..Range$LT$T$GT$$u20$as$u20$core..iter..range..RangeIteratorImpl$GT$9spec_next17ha0223fad9d4aac6cE
	.cfi_endproc

	.section	".text._ZN91_$LT$core..slice..iter..Iter$LT$T$GT$$u20$as$u20$core..iter..traits..iterator..Iterator$GT$4fold17h9e2d81e84835e3d5E","ax",@progbits
	.p2align	4
	.type	_ZN91_$LT$core..slice..iter..Iter$LT$T$GT$$u20$as$u20$core..iter..traits..iterator..Iterator$GT$4fold17h9e2d81e84835e3d5E,@function
_ZN91_$LT$core..slice..iter..Iter$LT$T$GT$$u20$as$u20$core..iter..traits..iterator..Iterator$GT$4fold17h9e2d81e84835e3d5E:
.Lfunc_begin119:
	.loc	39 235 0 is_stmt 1
	.cfi_startproc
	.cfi_personality 155, DW.ref.rust_eh_personality
	.cfi_lsda 27, .Lexception21
	subq	$168, %rsp
	.cfi_def_cfa_offset 176
	movq	%rdx, 24(%rsp)
.Ltmp1169:
	movq	%rdi, 32(%rsp)
	movq	%rsi, 40(%rsp)
.Ltmp1170:
	.loc	17 605 49 prologue_end
	movq	$1, 88(%rsp)
.Ltmp1171:
	.loc	39 33 72
	movq	40(%rsp), %rax
	.loc	39 33 33 is_stmt 0
	movq	%rax, 56(%rsp)
.Ltmp1172:
	.loc	39 44 20 is_stmt 1
	leaq	32(%rsp), %rax
	movq	%rax, 96(%rsp)
	.loc	39 44 33 is_stmt 0
	leaq	56(%rsp), %rax
	movq	%rax, 104(%rsp)
.Ltmp1173:
	.loc	19 1620 9 is_stmt 1
	movq	32(%rsp), %rax
	cmpq	56(%rsp), %rax
	sete	%al
	andb	$1, %al
	movb	%al, 55(%rsp)
.Ltmp1174:
	.loc	39 25 86
	testb	$1, 55(%rsp)
	jne	.LBB119_4
.Ltmp1175:
	.loc	39 249 31
	movb	$0, 85(%rsp)
	movb	$1, 84(%rsp)
.Ltmp1176:
	.loc	39 250 29
	movq	$0, 64(%rsp)
.Ltmp1177:
	.loc	39 28 12
	jmp	.LBB119_5
.Ltmp1178:
.LBB119_4:
	.loc	39 0 12 is_stmt 0
	movq	24(%rsp), %rdi
	.loc	39 247 28 is_stmt 1
	movb	$0, 85(%rsp)
.Ltmp1166:
	.loc	39 265 13
	callq	_ZN4core3ptr544drop_in_place$LT$core..iter..adapters..map..map_fold$LT$$RF$u32$C$alloc..string..String$C$$LP$$RP$$C$variables..fibonacci_sequence..$u7b$$u7b$closure$u7d$$u7d$$C$core..iter..traits..iterator..Iterator..for_each..call$LT$alloc..string..String$C$alloc..vec..Vec$LT$alloc..string..String$GT$..extend_trusted$LT$core..iter..adapters..map..Map$LT$core..slice..iter..Iter$LT$u32$GT$$C$variables..fibonacci_sequence..$u7b$$u7b$closure$u7d$$u7d$$GT$$GT$..$u7b$$u7b$closure$u7d$$u7d$$GT$..$u7b$$u7b$closure$u7d$$u7d$$GT$..$u7b$$u7b$closure$u7d$$u7d$$GT$17h2f25ab8441bc942fE
.Ltmp1167:
	jmp	.LBB119_18
.Ltmp1179:
.LBB119_5:
	.loc	39 33 72
	movq	40(%rsp), %rdi
	.loc	39 33 33 is_stmt 0
	movq	%rdi, 112(%rsp)
.Ltmp1180:
	.loc	39 57 51 is_stmt 1
	movq	32(%rsp), %rsi
.Ltmp1156:
	.loc	39 57 26 is_stmt 0
	callq	_ZN4core3ptr8non_null16NonNull$LT$T$GT$20offset_from_unsigned17ha4458222bf4ce327E
.Ltmp1157:
	movq	%rax, 16(%rsp)
	jmp	.LBB119_8
.Ltmp1181:
.LBB119_6:
	.loc	39 265 13 is_stmt 1
	testb	$1, 84(%rsp)
	jne	.LBB119_20
	jmp	.LBB119_19
.Ltmp1182:
.LBB119_7:
.Ltmp1160:
	.loc	39 0 13 is_stmt 0
	movq	%rax, %rcx
	movl	%edx, %eax
	movq	%rcx, 120(%rsp)
	movl	%eax, 128(%rsp)
	jmp	.LBB119_6
.Ltmp1183:
.LBB119_8:
	movq	16(%rsp), %rax
.Ltmp1184:
	.loc	39 57 26 is_stmt 1
	movq	%rax, 72(%rsp)
.Ltmp1185:
	.loc	39 252 17
	jmp	.LBB119_10
.Ltmp1186:
.LBB119_10:
	.loc	39 0 17 is_stmt 0
	movq	24(%rsp), %rdi
	.loc	39 255 29 is_stmt 1
	movb	$0, 84(%rsp)
	.loc	39 255 58 is_stmt 0
	movq	32(%rsp), %rax
	movq	%rax, 136(%rsp)
	.loc	39 255 71
	movq	64(%rsp), %rcx
	movq	%rcx, 144(%rsp)
.Ltmp1187:
	.loc	19 616 37 is_stmt 1
	leaq	(%rax,%rcx,4), %rsi
	.loc	19 616 18 is_stmt 0
	movq	%rsi, 152(%rsp)
.Ltmp1188:
.Ltmp1158:
	.loc	39 255 27 is_stmt 1
	callq	_ZN4core4iter8adapters3map8map_fold28_$u7b$$u7b$closure$u7d$$u7d$17hb5599f03e89b5cb5E
.Ltmp1159:
	jmp	.LBB119_11
.Ltmp1189:
.LBB119_11:
	.loc	39 259 34
	movq	64(%rsp), %rax
	movq	%rax, 8(%rsp)
	movq	%rax, 160(%rsp)
.Ltmp1190:
	.loc	39 0 34 is_stmt 0
	movq	8(%rsp), %rdi
.Ltmp1191:
	.loc	2 75 17 is_stmt 1
